
/bin/ar:     file format elf64-x86-64


Disassembly of section .init:

0000000000002000 <.init>:
    2000:	f3 0f 1e fa          	endbr64 
    2004:	48 83 ec 08          	sub    $0x8,%rsp
    2008:	48 8b 05 c9 ef 00 00 	mov    0xefc9(%rip),%rax        # 10fd8 <bfd_seek@plt+0xe3a8>
    200f:	48 85 c0             	test   %rax,%rax
    2012:	74 02                	je     2016 <__cxa_finalize@plt-0x61a>
    2014:	ff d0                	callq  *%rax
    2016:	48 83 c4 08          	add    $0x8,%rsp
    201a:	c3                   	retq   

Disassembly of section .plt:

0000000000002020 <.plt>:
    2020:	ff 35 8a ec 00 00    	pushq  0xec8a(%rip)        # 10cb0 <bfd_seek@plt+0xe080>
    2026:	f2 ff 25 8b ec 00 00 	bnd jmpq *0xec8b(%rip)        # 10cb8 <bfd_seek@plt+0xe088>
    202d:	0f 1f 00             	nopl   (%rax)
    2030:	f3 0f 1e fa          	endbr64 
    2034:	68 00 00 00 00       	pushq  $0x0
    2039:	f2 e9 e1 ff ff ff    	bnd jmpq 2020 <__cxa_finalize@plt-0x610>
    203f:	90                   	nop
    2040:	f3 0f 1e fa          	endbr64 
    2044:	68 01 00 00 00       	pushq  $0x1
    2049:	f2 e9 d1 ff ff ff    	bnd jmpq 2020 <__cxa_finalize@plt-0x610>
    204f:	90                   	nop
    2050:	f3 0f 1e fa          	endbr64 
    2054:	68 02 00 00 00       	pushq  $0x2
    2059:	f2 e9 c1 ff ff ff    	bnd jmpq 2020 <__cxa_finalize@plt-0x610>
    205f:	90                   	nop
    2060:	f3 0f 1e fa          	endbr64 
    2064:	68 03 00 00 00       	pushq  $0x3
    2069:	f2 e9 b1 ff ff ff    	bnd jmpq 2020 <__cxa_finalize@plt-0x610>
    206f:	90                   	nop
    2070:	f3 0f 1e fa          	endbr64 
    2074:	68 04 00 00 00       	pushq  $0x4
    2079:	f2 e9 a1 ff ff ff    	bnd jmpq 2020 <__cxa_finalize@plt-0x610>
    207f:	90                   	nop
    2080:	f3 0f 1e fa          	endbr64 
    2084:	68 05 00 00 00       	pushq  $0x5
    2089:	f2 e9 91 ff ff ff    	bnd jmpq 2020 <__cxa_finalize@plt-0x610>
    208f:	90                   	nop
    2090:	f3 0f 1e fa          	endbr64 
    2094:	68 06 00 00 00       	pushq  $0x6
    2099:	f2 e9 81 ff ff ff    	bnd jmpq 2020 <__cxa_finalize@plt-0x610>
    209f:	90                   	nop
    20a0:	f3 0f 1e fa          	endbr64 
    20a4:	68 07 00 00 00       	pushq  $0x7
    20a9:	f2 e9 71 ff ff ff    	bnd jmpq 2020 <__cxa_finalize@plt-0x610>
    20af:	90                   	nop
    20b0:	f3 0f 1e fa          	endbr64 
    20b4:	68 08 00 00 00       	pushq  $0x8
    20b9:	f2 e9 61 ff ff ff    	bnd jmpq 2020 <__cxa_finalize@plt-0x610>
    20bf:	90                   	nop
    20c0:	f3 0f 1e fa          	endbr64 
    20c4:	68 09 00 00 00       	pushq  $0x9
    20c9:	f2 e9 51 ff ff ff    	bnd jmpq 2020 <__cxa_finalize@plt-0x610>
    20cf:	90                   	nop
    20d0:	f3 0f 1e fa          	endbr64 
    20d4:	68 0a 00 00 00       	pushq  $0xa
    20d9:	f2 e9 41 ff ff ff    	bnd jmpq 2020 <__cxa_finalize@plt-0x610>
    20df:	90                   	nop
    20e0:	f3 0f 1e fa          	endbr64 
    20e4:	68 0b 00 00 00       	pushq  $0xb
    20e9:	f2 e9 31 ff ff ff    	bnd jmpq 2020 <__cxa_finalize@plt-0x610>
    20ef:	90                   	nop
    20f0:	f3 0f 1e fa          	endbr64 
    20f4:	68 0c 00 00 00       	pushq  $0xc
    20f9:	f2 e9 21 ff ff ff    	bnd jmpq 2020 <__cxa_finalize@plt-0x610>
    20ff:	90                   	nop
    2100:	f3 0f 1e fa          	endbr64 
    2104:	68 0d 00 00 00       	pushq  $0xd
    2109:	f2 e9 11 ff ff ff    	bnd jmpq 2020 <__cxa_finalize@plt-0x610>
    210f:	90                   	nop
    2110:	f3 0f 1e fa          	endbr64 
    2114:	68 0e 00 00 00       	pushq  $0xe
    2119:	f2 e9 01 ff ff ff    	bnd jmpq 2020 <__cxa_finalize@plt-0x610>
    211f:	90                   	nop
    2120:	f3 0f 1e fa          	endbr64 
    2124:	68 0f 00 00 00       	pushq  $0xf
    2129:	f2 e9 f1 fe ff ff    	bnd jmpq 2020 <__cxa_finalize@plt-0x610>
    212f:	90                   	nop
    2130:	f3 0f 1e fa          	endbr64 
    2134:	68 10 00 00 00       	pushq  $0x10
    2139:	f2 e9 e1 fe ff ff    	bnd jmpq 2020 <__cxa_finalize@plt-0x610>
    213f:	90                   	nop
    2140:	f3 0f 1e fa          	endbr64 
    2144:	68 11 00 00 00       	pushq  $0x11
    2149:	f2 e9 d1 fe ff ff    	bnd jmpq 2020 <__cxa_finalize@plt-0x610>
    214f:	90                   	nop
    2150:	f3 0f 1e fa          	endbr64 
    2154:	68 12 00 00 00       	pushq  $0x12
    2159:	f2 e9 c1 fe ff ff    	bnd jmpq 2020 <__cxa_finalize@plt-0x610>
    215f:	90                   	nop
    2160:	f3 0f 1e fa          	endbr64 
    2164:	68 13 00 00 00       	pushq  $0x13
    2169:	f2 e9 b1 fe ff ff    	bnd jmpq 2020 <__cxa_finalize@plt-0x610>
    216f:	90                   	nop
    2170:	f3 0f 1e fa          	endbr64 
    2174:	68 14 00 00 00       	pushq  $0x14
    2179:	f2 e9 a1 fe ff ff    	bnd jmpq 2020 <__cxa_finalize@plt-0x610>
    217f:	90                   	nop
    2180:	f3 0f 1e fa          	endbr64 
    2184:	68 15 00 00 00       	pushq  $0x15
    2189:	f2 e9 91 fe ff ff    	bnd jmpq 2020 <__cxa_finalize@plt-0x610>
    218f:	90                   	nop
    2190:	f3 0f 1e fa          	endbr64 
    2194:	68 16 00 00 00       	pushq  $0x16
    2199:	f2 e9 81 fe ff ff    	bnd jmpq 2020 <__cxa_finalize@plt-0x610>
    219f:	90                   	nop
    21a0:	f3 0f 1e fa          	endbr64 
    21a4:	68 17 00 00 00       	pushq  $0x17
    21a9:	f2 e9 71 fe ff ff    	bnd jmpq 2020 <__cxa_finalize@plt-0x610>
    21af:	90                   	nop
    21b0:	f3 0f 1e fa          	endbr64 
    21b4:	68 18 00 00 00       	pushq  $0x18
    21b9:	f2 e9 61 fe ff ff    	bnd jmpq 2020 <__cxa_finalize@plt-0x610>
    21bf:	90                   	nop
    21c0:	f3 0f 1e fa          	endbr64 
    21c4:	68 19 00 00 00       	pushq  $0x19
    21c9:	f2 e9 51 fe ff ff    	bnd jmpq 2020 <__cxa_finalize@plt-0x610>
    21cf:	90                   	nop
    21d0:	f3 0f 1e fa          	endbr64 
    21d4:	68 1a 00 00 00       	pushq  $0x1a
    21d9:	f2 e9 41 fe ff ff    	bnd jmpq 2020 <__cxa_finalize@plt-0x610>
    21df:	90                   	nop
    21e0:	f3 0f 1e fa          	endbr64 
    21e4:	68 1b 00 00 00       	pushq  $0x1b
    21e9:	f2 e9 31 fe ff ff    	bnd jmpq 2020 <__cxa_finalize@plt-0x610>
    21ef:	90                   	nop
    21f0:	f3 0f 1e fa          	endbr64 
    21f4:	68 1c 00 00 00       	pushq  $0x1c
    21f9:	f2 e9 21 fe ff ff    	bnd jmpq 2020 <__cxa_finalize@plt-0x610>
    21ff:	90                   	nop
    2200:	f3 0f 1e fa          	endbr64 
    2204:	68 1d 00 00 00       	pushq  $0x1d
    2209:	f2 e9 11 fe ff ff    	bnd jmpq 2020 <__cxa_finalize@plt-0x610>
    220f:	90                   	nop
    2210:	f3 0f 1e fa          	endbr64 
    2214:	68 1e 00 00 00       	pushq  $0x1e
    2219:	f2 e9 01 fe ff ff    	bnd jmpq 2020 <__cxa_finalize@plt-0x610>
    221f:	90                   	nop
    2220:	f3 0f 1e fa          	endbr64 
    2224:	68 1f 00 00 00       	pushq  $0x1f
    2229:	f2 e9 f1 fd ff ff    	bnd jmpq 2020 <__cxa_finalize@plt-0x610>
    222f:	90                   	nop
    2230:	f3 0f 1e fa          	endbr64 
    2234:	68 20 00 00 00       	pushq  $0x20
    2239:	f2 e9 e1 fd ff ff    	bnd jmpq 2020 <__cxa_finalize@plt-0x610>
    223f:	90                   	nop
    2240:	f3 0f 1e fa          	endbr64 
    2244:	68 21 00 00 00       	pushq  $0x21
    2249:	f2 e9 d1 fd ff ff    	bnd jmpq 2020 <__cxa_finalize@plt-0x610>
    224f:	90                   	nop
    2250:	f3 0f 1e fa          	endbr64 
    2254:	68 22 00 00 00       	pushq  $0x22
    2259:	f2 e9 c1 fd ff ff    	bnd jmpq 2020 <__cxa_finalize@plt-0x610>
    225f:	90                   	nop
    2260:	f3 0f 1e fa          	endbr64 
    2264:	68 23 00 00 00       	pushq  $0x23
    2269:	f2 e9 b1 fd ff ff    	bnd jmpq 2020 <__cxa_finalize@plt-0x610>
    226f:	90                   	nop
    2270:	f3 0f 1e fa          	endbr64 
    2274:	68 24 00 00 00       	pushq  $0x24
    2279:	f2 e9 a1 fd ff ff    	bnd jmpq 2020 <__cxa_finalize@plt-0x610>
    227f:	90                   	nop
    2280:	f3 0f 1e fa          	endbr64 
    2284:	68 25 00 00 00       	pushq  $0x25
    2289:	f2 e9 91 fd ff ff    	bnd jmpq 2020 <__cxa_finalize@plt-0x610>
    228f:	90                   	nop
    2290:	f3 0f 1e fa          	endbr64 
    2294:	68 26 00 00 00       	pushq  $0x26
    2299:	f2 e9 81 fd ff ff    	bnd jmpq 2020 <__cxa_finalize@plt-0x610>
    229f:	90                   	nop
    22a0:	f3 0f 1e fa          	endbr64 
    22a4:	68 27 00 00 00       	pushq  $0x27
    22a9:	f2 e9 71 fd ff ff    	bnd jmpq 2020 <__cxa_finalize@plt-0x610>
    22af:	90                   	nop
    22b0:	f3 0f 1e fa          	endbr64 
    22b4:	68 28 00 00 00       	pushq  $0x28
    22b9:	f2 e9 61 fd ff ff    	bnd jmpq 2020 <__cxa_finalize@plt-0x610>
    22bf:	90                   	nop
    22c0:	f3 0f 1e fa          	endbr64 
    22c4:	68 29 00 00 00       	pushq  $0x29
    22c9:	f2 e9 51 fd ff ff    	bnd jmpq 2020 <__cxa_finalize@plt-0x610>
    22cf:	90                   	nop
    22d0:	f3 0f 1e fa          	endbr64 
    22d4:	68 2a 00 00 00       	pushq  $0x2a
    22d9:	f2 e9 41 fd ff ff    	bnd jmpq 2020 <__cxa_finalize@plt-0x610>
    22df:	90                   	nop
    22e0:	f3 0f 1e fa          	endbr64 
    22e4:	68 2b 00 00 00       	pushq  $0x2b
    22e9:	f2 e9 31 fd ff ff    	bnd jmpq 2020 <__cxa_finalize@plt-0x610>
    22ef:	90                   	nop
    22f0:	f3 0f 1e fa          	endbr64 
    22f4:	68 2c 00 00 00       	pushq  $0x2c
    22f9:	f2 e9 21 fd ff ff    	bnd jmpq 2020 <__cxa_finalize@plt-0x610>
    22ff:	90                   	nop
    2300:	f3 0f 1e fa          	endbr64 
    2304:	68 2d 00 00 00       	pushq  $0x2d
    2309:	f2 e9 11 fd ff ff    	bnd jmpq 2020 <__cxa_finalize@plt-0x610>
    230f:	90                   	nop
    2310:	f3 0f 1e fa          	endbr64 
    2314:	68 2e 00 00 00       	pushq  $0x2e
    2319:	f2 e9 01 fd ff ff    	bnd jmpq 2020 <__cxa_finalize@plt-0x610>
    231f:	90                   	nop
    2320:	f3 0f 1e fa          	endbr64 
    2324:	68 2f 00 00 00       	pushq  $0x2f
    2329:	f2 e9 f1 fc ff ff    	bnd jmpq 2020 <__cxa_finalize@plt-0x610>
    232f:	90                   	nop
    2330:	f3 0f 1e fa          	endbr64 
    2334:	68 30 00 00 00       	pushq  $0x30
    2339:	f2 e9 e1 fc ff ff    	bnd jmpq 2020 <__cxa_finalize@plt-0x610>
    233f:	90                   	nop
    2340:	f3 0f 1e fa          	endbr64 
    2344:	68 31 00 00 00       	pushq  $0x31
    2349:	f2 e9 d1 fc ff ff    	bnd jmpq 2020 <__cxa_finalize@plt-0x610>
    234f:	90                   	nop
    2350:	f3 0f 1e fa          	endbr64 
    2354:	68 32 00 00 00       	pushq  $0x32
    2359:	f2 e9 c1 fc ff ff    	bnd jmpq 2020 <__cxa_finalize@plt-0x610>
    235f:	90                   	nop
    2360:	f3 0f 1e fa          	endbr64 
    2364:	68 33 00 00 00       	pushq  $0x33
    2369:	f2 e9 b1 fc ff ff    	bnd jmpq 2020 <__cxa_finalize@plt-0x610>
    236f:	90                   	nop
    2370:	f3 0f 1e fa          	endbr64 
    2374:	68 34 00 00 00       	pushq  $0x34
    2379:	f2 e9 a1 fc ff ff    	bnd jmpq 2020 <__cxa_finalize@plt-0x610>
    237f:	90                   	nop
    2380:	f3 0f 1e fa          	endbr64 
    2384:	68 35 00 00 00       	pushq  $0x35
    2389:	f2 e9 91 fc ff ff    	bnd jmpq 2020 <__cxa_finalize@plt-0x610>
    238f:	90                   	nop
    2390:	f3 0f 1e fa          	endbr64 
    2394:	68 36 00 00 00       	pushq  $0x36
    2399:	f2 e9 81 fc ff ff    	bnd jmpq 2020 <__cxa_finalize@plt-0x610>
    239f:	90                   	nop
    23a0:	f3 0f 1e fa          	endbr64 
    23a4:	68 37 00 00 00       	pushq  $0x37
    23a9:	f2 e9 71 fc ff ff    	bnd jmpq 2020 <__cxa_finalize@plt-0x610>
    23af:	90                   	nop
    23b0:	f3 0f 1e fa          	endbr64 
    23b4:	68 38 00 00 00       	pushq  $0x38
    23b9:	f2 e9 61 fc ff ff    	bnd jmpq 2020 <__cxa_finalize@plt-0x610>
    23bf:	90                   	nop
    23c0:	f3 0f 1e fa          	endbr64 
    23c4:	68 39 00 00 00       	pushq  $0x39
    23c9:	f2 e9 51 fc ff ff    	bnd jmpq 2020 <__cxa_finalize@plt-0x610>
    23cf:	90                   	nop
    23d0:	f3 0f 1e fa          	endbr64 
    23d4:	68 3a 00 00 00       	pushq  $0x3a
    23d9:	f2 e9 41 fc ff ff    	bnd jmpq 2020 <__cxa_finalize@plt-0x610>
    23df:	90                   	nop
    23e0:	f3 0f 1e fa          	endbr64 
    23e4:	68 3b 00 00 00       	pushq  $0x3b
    23e9:	f2 e9 31 fc ff ff    	bnd jmpq 2020 <__cxa_finalize@plt-0x610>
    23ef:	90                   	nop
    23f0:	f3 0f 1e fa          	endbr64 
    23f4:	68 3c 00 00 00       	pushq  $0x3c
    23f9:	f2 e9 21 fc ff ff    	bnd jmpq 2020 <__cxa_finalize@plt-0x610>
    23ff:	90                   	nop
    2400:	f3 0f 1e fa          	endbr64 
    2404:	68 3d 00 00 00       	pushq  $0x3d
    2409:	f2 e9 11 fc ff ff    	bnd jmpq 2020 <__cxa_finalize@plt-0x610>
    240f:	90                   	nop
    2410:	f3 0f 1e fa          	endbr64 
    2414:	68 3e 00 00 00       	pushq  $0x3e
    2419:	f2 e9 01 fc ff ff    	bnd jmpq 2020 <__cxa_finalize@plt-0x610>
    241f:	90                   	nop
    2420:	f3 0f 1e fa          	endbr64 
    2424:	68 3f 00 00 00       	pushq  $0x3f
    2429:	f2 e9 f1 fb ff ff    	bnd jmpq 2020 <__cxa_finalize@plt-0x610>
    242f:	90                   	nop
    2430:	f3 0f 1e fa          	endbr64 
    2434:	68 40 00 00 00       	pushq  $0x40
    2439:	f2 e9 e1 fb ff ff    	bnd jmpq 2020 <__cxa_finalize@plt-0x610>
    243f:	90                   	nop
    2440:	f3 0f 1e fa          	endbr64 
    2444:	68 41 00 00 00       	pushq  $0x41
    2449:	f2 e9 d1 fb ff ff    	bnd jmpq 2020 <__cxa_finalize@plt-0x610>
    244f:	90                   	nop
    2450:	f3 0f 1e fa          	endbr64 
    2454:	68 42 00 00 00       	pushq  $0x42
    2459:	f2 e9 c1 fb ff ff    	bnd jmpq 2020 <__cxa_finalize@plt-0x610>
    245f:	90                   	nop
    2460:	f3 0f 1e fa          	endbr64 
    2464:	68 43 00 00 00       	pushq  $0x43
    2469:	f2 e9 b1 fb ff ff    	bnd jmpq 2020 <__cxa_finalize@plt-0x610>
    246f:	90                   	nop
    2470:	f3 0f 1e fa          	endbr64 
    2474:	68 44 00 00 00       	pushq  $0x44
    2479:	f2 e9 a1 fb ff ff    	bnd jmpq 2020 <__cxa_finalize@plt-0x610>
    247f:	90                   	nop
    2480:	f3 0f 1e fa          	endbr64 
    2484:	68 45 00 00 00       	pushq  $0x45
    2489:	f2 e9 91 fb ff ff    	bnd jmpq 2020 <__cxa_finalize@plt-0x610>
    248f:	90                   	nop
    2490:	f3 0f 1e fa          	endbr64 
    2494:	68 46 00 00 00       	pushq  $0x46
    2499:	f2 e9 81 fb ff ff    	bnd jmpq 2020 <__cxa_finalize@plt-0x610>
    249f:	90                   	nop
    24a0:	f3 0f 1e fa          	endbr64 
    24a4:	68 47 00 00 00       	pushq  $0x47
    24a9:	f2 e9 71 fb ff ff    	bnd jmpq 2020 <__cxa_finalize@plt-0x610>
    24af:	90                   	nop
    24b0:	f3 0f 1e fa          	endbr64 
    24b4:	68 48 00 00 00       	pushq  $0x48
    24b9:	f2 e9 61 fb ff ff    	bnd jmpq 2020 <__cxa_finalize@plt-0x610>
    24bf:	90                   	nop
    24c0:	f3 0f 1e fa          	endbr64 
    24c4:	68 49 00 00 00       	pushq  $0x49
    24c9:	f2 e9 51 fb ff ff    	bnd jmpq 2020 <__cxa_finalize@plt-0x610>
    24cf:	90                   	nop
    24d0:	f3 0f 1e fa          	endbr64 
    24d4:	68 4a 00 00 00       	pushq  $0x4a
    24d9:	f2 e9 41 fb ff ff    	bnd jmpq 2020 <__cxa_finalize@plt-0x610>
    24df:	90                   	nop
    24e0:	f3 0f 1e fa          	endbr64 
    24e4:	68 4b 00 00 00       	pushq  $0x4b
    24e9:	f2 e9 31 fb ff ff    	bnd jmpq 2020 <__cxa_finalize@plt-0x610>
    24ef:	90                   	nop
    24f0:	f3 0f 1e fa          	endbr64 
    24f4:	68 4c 00 00 00       	pushq  $0x4c
    24f9:	f2 e9 21 fb ff ff    	bnd jmpq 2020 <__cxa_finalize@plt-0x610>
    24ff:	90                   	nop
    2500:	f3 0f 1e fa          	endbr64 
    2504:	68 4d 00 00 00       	pushq  $0x4d
    2509:	f2 e9 11 fb ff ff    	bnd jmpq 2020 <__cxa_finalize@plt-0x610>
    250f:	90                   	nop
    2510:	f3 0f 1e fa          	endbr64 
    2514:	68 4e 00 00 00       	pushq  $0x4e
    2519:	f2 e9 01 fb ff ff    	bnd jmpq 2020 <__cxa_finalize@plt-0x610>
    251f:	90                   	nop
    2520:	f3 0f 1e fa          	endbr64 
    2524:	68 4f 00 00 00       	pushq  $0x4f
    2529:	f2 e9 f1 fa ff ff    	bnd jmpq 2020 <__cxa_finalize@plt-0x610>
    252f:	90                   	nop
    2530:	f3 0f 1e fa          	endbr64 
    2534:	68 50 00 00 00       	pushq  $0x50
    2539:	f2 e9 e1 fa ff ff    	bnd jmpq 2020 <__cxa_finalize@plt-0x610>
    253f:	90                   	nop
    2540:	f3 0f 1e fa          	endbr64 
    2544:	68 51 00 00 00       	pushq  $0x51
    2549:	f2 e9 d1 fa ff ff    	bnd jmpq 2020 <__cxa_finalize@plt-0x610>
    254f:	90                   	nop
    2550:	f3 0f 1e fa          	endbr64 
    2554:	68 52 00 00 00       	pushq  $0x52
    2559:	f2 e9 c1 fa ff ff    	bnd jmpq 2020 <__cxa_finalize@plt-0x610>
    255f:	90                   	nop
    2560:	f3 0f 1e fa          	endbr64 
    2564:	68 53 00 00 00       	pushq  $0x53
    2569:	f2 e9 b1 fa ff ff    	bnd jmpq 2020 <__cxa_finalize@plt-0x610>
    256f:	90                   	nop
    2570:	f3 0f 1e fa          	endbr64 
    2574:	68 54 00 00 00       	pushq  $0x54
    2579:	f2 e9 a1 fa ff ff    	bnd jmpq 2020 <__cxa_finalize@plt-0x610>
    257f:	90                   	nop
    2580:	f3 0f 1e fa          	endbr64 
    2584:	68 55 00 00 00       	pushq  $0x55
    2589:	f2 e9 91 fa ff ff    	bnd jmpq 2020 <__cxa_finalize@plt-0x610>
    258f:	90                   	nop
    2590:	f3 0f 1e fa          	endbr64 
    2594:	68 56 00 00 00       	pushq  $0x56
    2599:	f2 e9 81 fa ff ff    	bnd jmpq 2020 <__cxa_finalize@plt-0x610>
    259f:	90                   	nop
    25a0:	f3 0f 1e fa          	endbr64 
    25a4:	68 57 00 00 00       	pushq  $0x57
    25a9:	f2 e9 71 fa ff ff    	bnd jmpq 2020 <__cxa_finalize@plt-0x610>
    25af:	90                   	nop
    25b0:	f3 0f 1e fa          	endbr64 
    25b4:	68 58 00 00 00       	pushq  $0x58
    25b9:	f2 e9 61 fa ff ff    	bnd jmpq 2020 <__cxa_finalize@plt-0x610>
    25bf:	90                   	nop
    25c0:	f3 0f 1e fa          	endbr64 
    25c4:	68 59 00 00 00       	pushq  $0x59
    25c9:	f2 e9 51 fa ff ff    	bnd jmpq 2020 <__cxa_finalize@plt-0x610>
    25cf:	90                   	nop
    25d0:	f3 0f 1e fa          	endbr64 
    25d4:	68 5a 00 00 00       	pushq  $0x5a
    25d9:	f2 e9 41 fa ff ff    	bnd jmpq 2020 <__cxa_finalize@plt-0x610>
    25df:	90                   	nop
    25e0:	f3 0f 1e fa          	endbr64 
    25e4:	68 5b 00 00 00       	pushq  $0x5b
    25e9:	f2 e9 31 fa ff ff    	bnd jmpq 2020 <__cxa_finalize@plt-0x610>
    25ef:	90                   	nop
    25f0:	f3 0f 1e fa          	endbr64 
    25f4:	68 5c 00 00 00       	pushq  $0x5c
    25f9:	f2 e9 21 fa ff ff    	bnd jmpq 2020 <__cxa_finalize@plt-0x610>
    25ff:	90                   	nop
    2600:	f3 0f 1e fa          	endbr64 
    2604:	68 5d 00 00 00       	pushq  $0x5d
    2609:	f2 e9 11 fa ff ff    	bnd jmpq 2020 <__cxa_finalize@plt-0x610>
    260f:	90                   	nop
    2610:	f3 0f 1e fa          	endbr64 
    2614:	68 5e 00 00 00       	pushq  $0x5e
    2619:	f2 e9 01 fa ff ff    	bnd jmpq 2020 <__cxa_finalize@plt-0x610>
    261f:	90                   	nop
    2620:	f3 0f 1e fa          	endbr64 
    2624:	68 5f 00 00 00       	pushq  $0x5f
    2629:	f2 e9 f1 f9 ff ff    	bnd jmpq 2020 <__cxa_finalize@plt-0x610>
    262f:	90                   	nop

Disassembly of section .plt.got:

0000000000002630 <__cxa_finalize@plt>:
    2630:	f3 0f 1e fa          	endbr64 
    2634:	f2 ff 25 b5 e9 00 00 	bnd jmpq *0xe9b5(%rip)        # 10ff0 <bfd_seek@plt+0xe3c0>
    263b:	0f 1f 44 00 00       	nopl   0x0(%rax,%rax,1)

Disassembly of section .plt.sec:

0000000000002640 <mkstemps@plt>:
    2640:	f3 0f 1e fa          	endbr64 
    2644:	f2 ff 25 75 e6 00 00 	bnd jmpq *0xe675(%rip)        # 10cc0 <bfd_seek@plt+0xe090>
    264b:	0f 1f 44 00 00       	nopl   0x0(%rax,%rax,1)

0000000000002650 <getenv@plt>:
    2650:	f3 0f 1e fa          	endbr64 
    2654:	f2 ff 25 6d e6 00 00 	bnd jmpq *0xe66d(%rip)        # 10cc8 <bfd_seek@plt+0xe098>
    265b:	0f 1f 44 00 00       	nopl   0x0(%rax,%rax,1)

0000000000002660 <utime@plt>:
    2660:	f3 0f 1e fa          	endbr64 
    2664:	f2 ff 25 65 e6 00 00 	bnd jmpq *0xe665(%rip)        # 10cd0 <bfd_seek@plt+0xe0a0>
    266b:	0f 1f 44 00 00       	nopl   0x0(%rax,%rax,1)

0000000000002670 <free@plt>:
    2670:	f3 0f 1e fa          	endbr64 
    2674:	f2 ff 25 5d e6 00 00 	bnd jmpq *0xe65d(%rip)        # 10cd8 <bfd_seek@plt+0xe0a8>
    267b:	0f 1f 44 00 00       	nopl   0x0(%rax,%rax,1)

0000000000002680 <bfd_scan_vma@plt>:
    2680:	f3 0f 1e fa          	endbr64 
    2684:	f2 ff 25 55 e6 00 00 	bnd jmpq *0xe655(%rip)        # 10ce0 <bfd_seek@plt+0xe0b0>
    268b:	0f 1f 44 00 00       	nopl   0x0(%rax,%rax,1)

0000000000002690 <bfd_cache_close@plt>:
    2690:	f3 0f 1e fa          	endbr64 
    2694:	f2 ff 25 4d e6 00 00 	bnd jmpq *0xe64d(%rip)        # 10ce8 <bfd_seek@plt+0xe0b8>
    269b:	0f 1f 44 00 00       	nopl   0x0(%rax,%rax,1)

00000000000026a0 <__vfprintf_chk@plt>:
    26a0:	f3 0f 1e fa          	endbr64 
    26a4:	f2 ff 25 45 e6 00 00 	bnd jmpq *0xe645(%rip)        # 10cf0 <bfd_seek@plt+0xe0c0>
    26ab:	0f 1f 44 00 00       	nopl   0x0(%rax,%rax,1)

00000000000026b0 <abort@plt>:
    26b0:	f3 0f 1e fa          	endbr64 
    26b4:	f2 ff 25 3d e6 00 00 	bnd jmpq *0xe63d(%rip)        # 10cf8 <bfd_seek@plt+0xe0c8>
    26bb:	0f 1f 44 00 00       	nopl   0x0(%rax,%rax,1)

00000000000026c0 <__errno_location@plt>:
    26c0:	f3 0f 1e fa          	endbr64 
    26c4:	f2 ff 25 35 e6 00 00 	bnd jmpq *0xe635(%rip)        # 10d00 <bfd_seek@plt+0xe0d0>
    26cb:	0f 1f 44 00 00       	nopl   0x0(%rax,%rax,1)

00000000000026d0 <unlink@plt>:
    26d0:	f3 0f 1e fa          	endbr64 
    26d4:	f2 ff 25 2d e6 00 00 	bnd jmpq *0xe62d(%rip)        # 10d08 <bfd_seek@plt+0xe0d8>
    26db:	0f 1f 44 00 00       	nopl   0x0(%rax,%rax,1)

00000000000026e0 <strcpy@plt>:
    26e0:	f3 0f 1e fa          	endbr64 
    26e4:	f2 ff 25 25 e6 00 00 	bnd jmpq *0xe625(%rip)        # 10d10 <bfd_seek@plt+0xe0e0>
    26eb:	0f 1f 44 00 00       	nopl   0x0(%rax,%rax,1)

00000000000026f0 <bfd_plugin_set_plugin@plt>:
    26f0:	f3 0f 1e fa          	endbr64 
    26f4:	f2 ff 25 1d e6 00 00 	bnd jmpq *0xe61d(%rip)        # 10d18 <bfd_seek@plt+0xe0e8>
    26fb:	0f 1f 44 00 00       	nopl   0x0(%rax,%rax,1)

0000000000002700 <ferror@plt>:
    2700:	f3 0f 1e fa          	endbr64 
    2704:	f2 ff 25 15 e6 00 00 	bnd jmpq *0xe615(%rip)        # 10d20 <bfd_seek@plt+0xe0f0>
    270b:	0f 1f 44 00 00       	nopl   0x0(%rax,%rax,1)

0000000000002710 <bfd_arch_list@plt>:
    2710:	f3 0f 1e fa          	endbr64 
    2714:	f2 ff 25 0d e6 00 00 	bnd jmpq *0xe60d(%rip)        # 10d28 <bfd_seek@plt+0xe0f8>
    271b:	0f 1f 44 00 00       	nopl   0x0(%rax,%rax,1)

0000000000002720 <isatty@plt>:
    2720:	f3 0f 1e fa          	endbr64 
    2724:	f2 ff 25 05 e6 00 00 	bnd jmpq *0xe605(%rip)        # 10d30 <bfd_seek@plt+0xe100>
    272b:	0f 1f 44 00 00       	nopl   0x0(%rax,%rax,1)

0000000000002730 <bfd_set_default_target@plt>:
    2730:	f3 0f 1e fa          	endbr64 
    2734:	f2 ff 25 fd e5 00 00 	bnd jmpq *0xe5fd(%rip)        # 10d38 <bfd_seek@plt+0xe108>
    273b:	0f 1f 44 00 00       	nopl   0x0(%rax,%rax,1)

0000000000002740 <fread@plt>:
    2740:	f3 0f 1e fa          	endbr64 
    2744:	f2 ff 25 f5 e5 00 00 	bnd jmpq *0xe5f5(%rip)        # 10d40 <bfd_seek@plt+0xe110>
    274b:	0f 1f 44 00 00       	nopl   0x0(%rax,%rax,1)

0000000000002750 <bfd_set_archive_head@plt>:
    2750:	f3 0f 1e fa          	endbr64 
    2754:	f2 ff 25 ed e5 00 00 	bnd jmpq *0xe5ed(%rip)        # 10d48 <bfd_seek@plt+0xe118>
    275b:	0f 1f 44 00 00       	nopl   0x0(%rax,%rax,1)

0000000000002760 <filename_cmp@plt>:
    2760:	f3 0f 1e fa          	endbr64 
    2764:	f2 ff 25 e5 e5 00 00 	bnd jmpq *0xe5e5(%rip)        # 10d50 <bfd_seek@plt+0xe120>
    276b:	0f 1f 44 00 00       	nopl   0x0(%rax,%rax,1)

0000000000002770 <write@plt>:
    2770:	f3 0f 1e fa          	endbr64 
    2774:	f2 ff 25 dd e5 00 00 	bnd jmpq *0xe5dd(%rip)        # 10d58 <bfd_seek@plt+0xe128>
    277b:	0f 1f 44 00 00       	nopl   0x0(%rax,%rax,1)

0000000000002780 <textdomain@plt>:
    2780:	f3 0f 1e fa          	endbr64 
    2784:	f2 ff 25 d5 e5 00 00 	bnd jmpq *0xe5d5(%rip)        # 10d60 <bfd_seek@plt+0xe130>
    278b:	0f 1f 44 00 00       	nopl   0x0(%rax,%rax,1)

0000000000002790 <bfd_openr@plt>:
    2790:	f3 0f 1e fa          	endbr64 
    2794:	f2 ff 25 cd e5 00 00 	bnd jmpq *0xe5cd(%rip)        # 10d68 <bfd_seek@plt+0xe138>
    279b:	0f 1f 44 00 00       	nopl   0x0(%rax,%rax,1)

00000000000027a0 <fclose@plt>:
    27a0:	f3 0f 1e fa          	endbr64 
    27a4:	f2 ff 25 c5 e5 00 00 	bnd jmpq *0xe5c5(%rip)        # 10d70 <bfd_seek@plt+0xe140>
    27ab:	0f 1f 44 00 00       	nopl   0x0(%rax,%rax,1)

00000000000027b0 <ctime@plt>:
    27b0:	f3 0f 1e fa          	endbr64 
    27b4:	f2 ff 25 bd e5 00 00 	bnd jmpq *0xe5bd(%rip)        # 10d78 <bfd_seek@plt+0xe148>
    27bb:	0f 1f 44 00 00       	nopl   0x0(%rax,%rax,1)

00000000000027c0 <bindtextdomain@plt>:
    27c0:	f3 0f 1e fa          	endbr64 
    27c4:	f2 ff 25 b5 e5 00 00 	bnd jmpq *0xe5b5(%rip)        # 10d80 <bfd_seek@plt+0xe150>
    27cb:	0f 1f 44 00 00       	nopl   0x0(%rax,%rax,1)

00000000000027d0 <dcgettext@plt>:
    27d0:	f3 0f 1e fa          	endbr64 
    27d4:	f2 ff 25 ad e5 00 00 	bnd jmpq *0xe5ad(%rip)        # 10d88 <bfd_seek@plt+0xe158>
    27db:	0f 1f 44 00 00       	nopl   0x0(%rax,%rax,1)

00000000000027e0 <strlen@plt>:
    27e0:	f3 0f 1e fa          	endbr64 
    27e4:	f2 ff 25 a5 e5 00 00 	bnd jmpq *0xe5a5(%rip)        # 10d90 <bfd_seek@plt+0xe160>
    27eb:	0f 1f 44 00 00       	nopl   0x0(%rax,%rax,1)

00000000000027f0 <__lxstat@plt>:
    27f0:	f3 0f 1e fa          	endbr64 
    27f4:	f2 ff 25 9d e5 00 00 	bnd jmpq *0xe59d(%rip)        # 10d98 <bfd_seek@plt+0xe168>
    27fb:	0f 1f 44 00 00       	nopl   0x0(%rax,%rax,1)

0000000000002800 <__stack_chk_fail@plt>:
    2800:	f3 0f 1e fa          	endbr64 
    2804:	f2 ff 25 95 e5 00 00 	bnd jmpq *0xe595(%rip)        # 10da0 <bfd_seek@plt+0xe170>
    280b:	0f 1f 44 00 00       	nopl   0x0(%rax,%rax,1)

0000000000002810 <getopt_long@plt>:
    2810:	f3 0f 1e fa          	endbr64 
    2814:	f2 ff 25 8d e5 00 00 	bnd jmpq *0xe58d(%rip)        # 10da8 <bfd_seek@plt+0xe178>
    281b:	0f 1f 44 00 00       	nopl   0x0(%rax,%rax,1)

0000000000002820 <xrealloc@plt>:
    2820:	f3 0f 1e fa          	endbr64 
    2824:	f2 ff 25 85 e5 00 00 	bnd jmpq *0xe585(%rip)        # 10db0 <bfd_seek@plt+0xe180>
    282b:	0f 1f 44 00 00       	nopl   0x0(%rax,%rax,1)

0000000000002830 <strrchr@plt>:
    2830:	f3 0f 1e fa          	endbr64 
    2834:	f2 ff 25 7d e5 00 00 	bnd jmpq *0xe57d(%rip)        # 10db8 <bfd_seek@plt+0xe188>
    283b:	0f 1f 44 00 00       	nopl   0x0(%rax,%rax,1)

0000000000002840 <__assert_fail@plt>:
    2840:	f3 0f 1e fa          	endbr64 
    2844:	f2 ff 25 75 e5 00 00 	bnd jmpq *0xe575(%rip)        # 10dc0 <bfd_seek@plt+0xe190>
    284b:	0f 1f 44 00 00       	nopl   0x0(%rax,%rax,1)

0000000000002850 <fputs@plt>:
    2850:	f3 0f 1e fa          	endbr64 
    2854:	f2 ff 25 6d e5 00 00 	bnd jmpq *0xe56d(%rip)        # 10dc8 <bfd_seek@plt+0xe198>
    285b:	0f 1f 44 00 00       	nopl   0x0(%rax,%rax,1)

0000000000002860 <concat@plt>:
    2860:	f3 0f 1e fa          	endbr64 
    2864:	f2 ff 25 65 e5 00 00 	bnd jmpq *0xe565(%rip)        # 10dd0 <bfd_seek@plt+0xe1a0>
    286b:	0f 1f 44 00 00       	nopl   0x0(%rax,%rax,1)

0000000000002870 <bfd_target_list@plt>:
    2870:	f3 0f 1e fa          	endbr64 
    2874:	f2 ff 25 5d e5 00 00 	bnd jmpq *0xe55d(%rip)        # 10dd8 <bfd_seek@plt+0xe1a8>
    287b:	0f 1f 44 00 00       	nopl   0x0(%rax,%rax,1)

0000000000002880 <memset@plt>:
    2880:	f3 0f 1e fa          	endbr64 
    2884:	f2 ff 25 55 e5 00 00 	bnd jmpq *0xe555(%rip)        # 10de0 <bfd_seek@plt+0xe1b0>
    288b:	0f 1f 44 00 00       	nopl   0x0(%rax,%rax,1)

0000000000002890 <bfd_get_error@plt>:
    2890:	f3 0f 1e fa          	endbr64 
    2894:	f2 ff 25 4d e5 00 00 	bnd jmpq *0xe54d(%rip)        # 10de8 <bfd_seek@plt+0xe1b8>
    289b:	0f 1f 44 00 00       	nopl   0x0(%rax,%rax,1)

00000000000028a0 <xmalloc@plt>:
    28a0:	f3 0f 1e fa          	endbr64 
    28a4:	f2 ff 25 45 e5 00 00 	bnd jmpq *0xe545(%rip)        # 10df0 <bfd_seek@plt+0xe1c0>
    28ab:	0f 1f 44 00 00       	nopl   0x0(%rax,%rax,1)

00000000000028b0 <bfd_set_error@plt>:
    28b0:	f3 0f 1e fa          	endbr64 
    28b4:	f2 ff 25 3d e5 00 00 	bnd jmpq *0xe53d(%rip)        # 10df8 <bfd_seek@plt+0xe1c8>
    28bb:	0f 1f 44 00 00       	nopl   0x0(%rax,%rax,1)

00000000000028c0 <xmalloc_set_program_name@plt>:
    28c0:	f3 0f 1e fa          	endbr64 
    28c4:	f2 ff 25 35 e5 00 00 	bnd jmpq *0xe535(%rip)        # 10e00 <bfd_seek@plt+0xe1d0>
    28cb:	0f 1f 44 00 00       	nopl   0x0(%rax,%rax,1)

00000000000028d0 <close@plt>:
    28d0:	f3 0f 1e fa          	endbr64 
    28d4:	f2 ff 25 2d e5 00 00 	bnd jmpq *0xe52d(%rip)        # 10e08 <bfd_seek@plt+0xe1d8>
    28db:	0f 1f 44 00 00       	nopl   0x0(%rax,%rax,1)

00000000000028e0 <xstrdup@plt>:
    28e0:	f3 0f 1e fa          	endbr64 
    28e4:	f2 ff 25 25 e5 00 00 	bnd jmpq *0xe525(%rip)        # 10e10 <bfd_seek@plt+0xe1e0>
    28eb:	0f 1f 44 00 00       	nopl   0x0(%rax,%rax,1)

00000000000028f0 <fputc@plt>:
    28f0:	f3 0f 1e fa          	endbr64 
    28f4:	f2 ff 25 1d e5 00 00 	bnd jmpq *0xe51d(%rip)        # 10e18 <bfd_seek@plt+0xe1e8>
    28fb:	0f 1f 44 00 00       	nopl   0x0(%rax,%rax,1)

0000000000002900 <read@plt>:
    2900:	f3 0f 1e fa          	endbr64 
    2904:	f2 ff 25 15 e5 00 00 	bnd jmpq *0xe515(%rip)        # 10e20 <bfd_seek@plt+0xe1f0>
    290b:	0f 1f 44 00 00       	nopl   0x0(%rax,%rax,1)

0000000000002910 <bfd_init@plt>:
    2910:	f3 0f 1e fa          	endbr64 
    2914:	f2 ff 25 0d e5 00 00 	bnd jmpq *0xe50d(%rip)        # 10e28 <bfd_seek@plt+0xe1f8>
    291b:	0f 1f 44 00 00       	nopl   0x0(%rax,%rax,1)

0000000000002920 <lbasename@plt>:
    2920:	f3 0f 1e fa          	endbr64 
    2924:	f2 ff 25 05 e5 00 00 	bnd jmpq *0xe505(%rip)        # 10e30 <bfd_seek@plt+0xe200>
    292b:	0f 1f 44 00 00       	nopl   0x0(%rax,%rax,1)

0000000000002930 <__asprintf_chk@plt>:
    2930:	f3 0f 1e fa          	endbr64 
    2934:	f2 ff 25 fd e4 00 00 	bnd jmpq *0xe4fd(%rip)        # 10e38 <bfd_seek@plt+0xe208>
    293b:	0f 1f 44 00 00       	nopl   0x0(%rax,%rax,1)

0000000000002940 <calloc@plt>:
    2940:	f3 0f 1e fa          	endbr64 
    2944:	f2 ff 25 f5 e4 00 00 	bnd jmpq *0xe4f5(%rip)        # 10e40 <bfd_seek@plt+0xe210>
    294b:	0f 1f 44 00 00       	nopl   0x0(%rax,%rax,1)

0000000000002950 <strcmp@plt>:
    2950:	f3 0f 1e fa          	endbr64 
    2954:	f2 ff 25 ed e4 00 00 	bnd jmpq *0xe4ed(%rip)        # 10e48 <bfd_seek@plt+0xe218>
    295b:	0f 1f 44 00 00       	nopl   0x0(%rax,%rax,1)

0000000000002960 <putc@plt>:
    2960:	f3 0f 1e fa          	endbr64 
    2964:	f2 ff 25 e5 e4 00 00 	bnd jmpq *0xe4e5(%rip)        # 10e50 <bfd_seek@plt+0xe220>
    296b:	0f 1f 44 00 00       	nopl   0x0(%rax,%rax,1)

0000000000002970 <bfd_fdopenr@plt>:
    2970:	f3 0f 1e fa          	endbr64 
    2974:	f2 ff 25 dd e4 00 00 	bnd jmpq *0xe4dd(%rip)        # 10e58 <bfd_seek@plt+0xe228>
    297b:	0f 1f 44 00 00       	nopl   0x0(%rax,%rax,1)

0000000000002980 <ftell@plt>:
    2980:	f3 0f 1e fa          	endbr64 
    2984:	f2 ff 25 d5 e4 00 00 	bnd jmpq *0xe4d5(%rip)        # 10e60 <bfd_seek@plt+0xe230>
    298b:	0f 1f 44 00 00       	nopl   0x0(%rax,%rax,1)

0000000000002990 <bfd_set_format@plt>:
    2990:	f3 0f 1e fa          	endbr64 
    2994:	f2 ff 25 cd e4 00 00 	bnd jmpq *0xe4cd(%rip)        # 10e68 <bfd_seek@plt+0xe238>
    299b:	0f 1f 44 00 00       	nopl   0x0(%rax,%rax,1)

00000000000029a0 <strtol@plt>:
    29a0:	f3 0f 1e fa          	endbr64 
    29a4:	f2 ff 25 c5 e4 00 00 	bnd jmpq *0xe4c5(%rip)        # 10e70 <bfd_seek@plt+0xe240>
    29ab:	0f 1f 44 00 00       	nopl   0x0(%rax,%rax,1)

00000000000029b0 <clearerr@plt>:
    29b0:	f3 0f 1e fa          	endbr64 
    29b4:	f2 ff 25 bd e4 00 00 	bnd jmpq *0xe4bd(%rip)        # 10e78 <bfd_seek@plt+0xe248>
    29bb:	0f 1f 44 00 00       	nopl   0x0(%rax,%rax,1)

00000000000029c0 <memcpy@plt>:
    29c0:	f3 0f 1e fa          	endbr64 
    29c4:	f2 ff 25 b5 e4 00 00 	bnd jmpq *0xe4b5(%rip)        # 10e80 <bfd_seek@plt+0xe250>
    29cb:	0f 1f 44 00 00       	nopl   0x0(%rax,%rax,1)

00000000000029d0 <bfd_close_all_done@plt>:
    29d0:	f3 0f 1e fa          	endbr64 
    29d4:	f2 ff 25 ad e4 00 00 	bnd jmpq *0xe4ad(%rip)        # 10e88 <bfd_seek@plt+0xe258>
    29db:	0f 1f 44 00 00       	nopl   0x0(%rax,%rax,1)

00000000000029e0 <fileno@plt>:
    29e0:	f3 0f 1e fa          	endbr64 
    29e4:	f2 ff 25 a5 e4 00 00 	bnd jmpq *0xe4a5(%rip)        # 10e90 <bfd_seek@plt+0xe260>
    29eb:	0f 1f 44 00 00       	nopl   0x0(%rax,%rax,1)

00000000000029f0 <bfd_plugin_set_program_name@plt>:
    29f0:	f3 0f 1e fa          	endbr64 
    29f4:	f2 ff 25 9d e4 00 00 	bnd jmpq *0xe49d(%rip)        # 10e98 <bfd_seek@plt+0xe268>
    29fb:	0f 1f 44 00 00       	nopl   0x0(%rax,%rax,1)

0000000000002a00 <__xstat@plt>:
    2a00:	f3 0f 1e fa          	endbr64 
    2a04:	f2 ff 25 95 e4 00 00 	bnd jmpq *0xe495(%rip)        # 10ea0 <bfd_seek@plt+0xe270>
    2a0b:	0f 1f 44 00 00       	nopl   0x0(%rax,%rax,1)

0000000000002a10 <bfd_printable_arch_mach@plt>:
    2a10:	f3 0f 1e fa          	endbr64 
    2a14:	f2 ff 25 8d e4 00 00 	bnd jmpq *0xe48d(%rip)        # 10ea8 <bfd_seek@plt+0xe278>
    2a1b:	0f 1f 44 00 00       	nopl   0x0(%rax,%rax,1)

0000000000002a20 <malloc@plt>:
    2a20:	f3 0f 1e fa          	endbr64 
    2a24:	f2 ff 25 85 e4 00 00 	bnd jmpq *0xe485(%rip)        # 10eb0 <bfd_seek@plt+0xe280>
    2a2b:	0f 1f 44 00 00       	nopl   0x0(%rax,%rax,1)

0000000000002a30 <fflush@plt>:
    2a30:	f3 0f 1e fa          	endbr64 
    2a34:	f2 ff 25 7d e4 00 00 	bnd jmpq *0xe47d(%rip)        # 10eb8 <bfd_seek@plt+0xe288>
    2a3b:	0f 1f 44 00 00       	nopl   0x0(%rax,%rax,1)

0000000000002a40 <unlink_if_ordinary@plt>:
    2a40:	f3 0f 1e fa          	endbr64 
    2a44:	f2 ff 25 75 e4 00 00 	bnd jmpq *0xe475(%rip)        # 10ec0 <bfd_seek@plt+0xe290>
    2a4b:	0f 1f 44 00 00       	nopl   0x0(%rax,%rax,1)

0000000000002a50 <bfd_iterate_over_targets@plt>:
    2a50:	f3 0f 1e fa          	endbr64 
    2a54:	f2 ff 25 6d e4 00 00 	bnd jmpq *0xe46d(%rip)        # 10ec8 <bfd_seek@plt+0xe298>
    2a5b:	0f 1f 44 00 00       	nopl   0x0(%rax,%rax,1)

0000000000002a60 <mkstemp@plt>:
    2a60:	f3 0f 1e fa          	endbr64 
    2a64:	f2 ff 25 65 e4 00 00 	bnd jmpq *0xe465(%rip)        # 10ed0 <bfd_seek@plt+0xe2a0>
    2a6b:	0f 1f 44 00 00       	nopl   0x0(%rax,%rax,1)

0000000000002a70 <fseek@plt>:
    2a70:	f3 0f 1e fa          	endbr64 
    2a74:	f2 ff 25 5d e4 00 00 	bnd jmpq *0xe45d(%rip)        # 10ed8 <bfd_seek@plt+0xe2a8>
    2a7b:	0f 1f 44 00 00       	nopl   0x0(%rax,%rax,1)

0000000000002a80 <chown@plt>:
    2a80:	f3 0f 1e fa          	endbr64 
    2a84:	f2 ff 25 55 e4 00 00 	bnd jmpq *0xe455(%rip)        # 10ee0 <bfd_seek@plt+0xe2b0>
    2a8b:	0f 1f 44 00 00       	nopl   0x0(%rax,%rax,1)

0000000000002a90 <realloc@plt>:
    2a90:	f3 0f 1e fa          	endbr64 
    2a94:	f2 ff 25 4d e4 00 00 	bnd jmpq *0xe44d(%rip)        # 10ee8 <bfd_seek@plt+0xe2b8>
    2a9b:	0f 1f 44 00 00       	nopl   0x0(%rax,%rax,1)

0000000000002aa0 <mkdtemp@plt>:
    2aa0:	f3 0f 1e fa          	endbr64 
    2aa4:	f2 ff 25 45 e4 00 00 	bnd jmpq *0xe445(%rip)        # 10ef0 <bfd_seek@plt+0xe2c0>
    2aab:	0f 1f 44 00 00       	nopl   0x0(%rax,%rax,1)

0000000000002ab0 <setlocale@plt>:
    2ab0:	f3 0f 1e fa          	endbr64 
    2ab4:	f2 ff 25 3d e4 00 00 	bnd jmpq *0xe43d(%rip)        # 10ef8 <bfd_seek@plt+0xe2c8>
    2abb:	0f 1f 44 00 00       	nopl   0x0(%rax,%rax,1)

0000000000002ac0 <bfd_openw@plt>:
    2ac0:	f3 0f 1e fa          	endbr64 
    2ac4:	f2 ff 25 35 e4 00 00 	bnd jmpq *0xe435(%rip)        # 10f00 <bfd_seek@plt+0xe2d0>
    2acb:	0f 1f 44 00 00       	nopl   0x0(%rax,%rax,1)

0000000000002ad0 <__printf_chk@plt>:
    2ad0:	f3 0f 1e fa          	endbr64 
    2ad4:	f2 ff 25 2d e4 00 00 	bnd jmpq *0xe42d(%rip)        # 10f08 <bfd_seek@plt+0xe2d8>
    2adb:	0f 1f 44 00 00       	nopl   0x0(%rax,%rax,1)

0000000000002ae0 <chmod@plt>:
    2ae0:	f3 0f 1e fa          	endbr64 
    2ae4:	f2 ff 25 25 e4 00 00 	bnd jmpq *0xe425(%rip)        # 10f10 <bfd_seek@plt+0xe2e0>
    2aeb:	0f 1f 44 00 00       	nopl   0x0(%rax,%rax,1)

0000000000002af0 <bfd_set_error_program_name@plt>:
    2af0:	f3 0f 1e fa          	endbr64 
    2af4:	f2 ff 25 1d e4 00 00 	bnd jmpq *0xe41d(%rip)        # 10f18 <bfd_seek@plt+0xe2e8>
    2afb:	0f 1f 44 00 00       	nopl   0x0(%rax,%rax,1)

0000000000002b00 <memmove@plt>:
    2b00:	f3 0f 1e fa          	endbr64 
    2b04:	f2 ff 25 15 e4 00 00 	bnd jmpq *0xe415(%rip)        # 10f20 <bfd_seek@plt+0xe2f0>
    2b0b:	0f 1f 44 00 00       	nopl   0x0(%rax,%rax,1)

0000000000002b10 <open@plt>:
    2b10:	f3 0f 1e fa          	endbr64 
    2b14:	f2 ff 25 0d e4 00 00 	bnd jmpq *0xe40d(%rip)        # 10f28 <bfd_seek@plt+0xe2f8>
    2b1b:	0f 1f 44 00 00       	nopl   0x0(%rax,%rax,1)

0000000000002b20 <access@plt>:
    2b20:	f3 0f 1e fa          	endbr64 
    2b24:	f2 ff 25 05 e4 00 00 	bnd jmpq *0xe405(%rip)        # 10f30 <bfd_seek@plt+0xe300>
    2b2b:	0f 1f 44 00 00       	nopl   0x0(%rax,%rax,1)

0000000000002b30 <fopen@plt>:
    2b30:	f3 0f 1e fa          	endbr64 
    2b34:	f2 ff 25 fd e3 00 00 	bnd jmpq *0xe3fd(%rip)        # 10f38 <bfd_seek@plt+0xe308>
    2b3b:	0f 1f 44 00 00       	nopl   0x0(%rax,%rax,1)

0000000000002b40 <xexit@plt>:
    2b40:	f3 0f 1e fa          	endbr64 
    2b44:	f2 ff 25 f5 e3 00 00 	bnd jmpq *0xe3f5(%rip)        # 10f40 <bfd_seek@plt+0xe310>
    2b4b:	0f 1f 44 00 00       	nopl   0x0(%rax,%rax,1)

0000000000002b50 <bfd_close@plt>:
    2b50:	f3 0f 1e fa          	endbr64 
    2b54:	f2 ff 25 ed e3 00 00 	bnd jmpq *0xe3ed(%rip)        # 10f48 <bfd_seek@plt+0xe318>
    2b5b:	0f 1f 44 00 00       	nopl   0x0(%rax,%rax,1)

0000000000002b60 <perror@plt>:
    2b60:	f3 0f 1e fa          	endbr64 
    2b64:	f2 ff 25 e5 e3 00 00 	bnd jmpq *0xe3e5(%rip)        # 10f50 <bfd_seek@plt+0xe320>
    2b6b:	0f 1f 44 00 00       	nopl   0x0(%rax,%rax,1)

0000000000002b70 <rename@plt>:
    2b70:	f3 0f 1e fa          	endbr64 
    2b74:	f2 ff 25 dd e3 00 00 	bnd jmpq *0xe3dd(%rip)        # 10f58 <bfd_seek@plt+0xe328>
    2b7b:	0f 1f 44 00 00       	nopl   0x0(%rax,%rax,1)

0000000000002b80 <bfd_check_format_matches@plt>:
    2b80:	f3 0f 1e fa          	endbr64 
    2b84:	f2 ff 25 d5 e3 00 00 	bnd jmpq *0xe3d5(%rip)        # 10f60 <bfd_seek@plt+0xe330>
    2b8b:	0f 1f 44 00 00       	nopl   0x0(%rax,%rax,1)

0000000000002b90 <bfd_errmsg@plt>:
    2b90:	f3 0f 1e fa          	endbr64 
    2b94:	f2 ff 25 cd e3 00 00 	bnd jmpq *0xe3cd(%rip)        # 10f68 <bfd_seek@plt+0xe338>
    2b9b:	0f 1f 44 00 00       	nopl   0x0(%rax,%rax,1)

0000000000002ba0 <exit@plt>:
    2ba0:	f3 0f 1e fa          	endbr64 
    2ba4:	f2 ff 25 c5 e3 00 00 	bnd jmpq *0xe3c5(%rip)        # 10f70 <bfd_seek@plt+0xe340>
    2bab:	0f 1f 44 00 00       	nopl   0x0(%rax,%rax,1)

0000000000002bb0 <fwrite@plt>:
    2bb0:	f3 0f 1e fa          	endbr64 
    2bb4:	f2 ff 25 bd e3 00 00 	bnd jmpq *0xe3bd(%rip)        # 10f78 <bfd_seek@plt+0xe348>
    2bbb:	0f 1f 44 00 00       	nopl   0x0(%rax,%rax,1)

0000000000002bc0 <__fprintf_chk@plt>:
    2bc0:	f3 0f 1e fa          	endbr64 
    2bc4:	f2 ff 25 b5 e3 00 00 	bnd jmpq *0xe3b5(%rip)        # 10f80 <bfd_seek@plt+0xe350>
    2bcb:	0f 1f 44 00 00       	nopl   0x0(%rax,%rax,1)

0000000000002bd0 <bfd_check_format@plt>:
    2bd0:	f3 0f 1e fa          	endbr64 
    2bd4:	f2 ff 25 ad e3 00 00 	bnd jmpq *0xe3ad(%rip)        # 10f88 <bfd_seek@plt+0xe358>
    2bdb:	0f 1f 44 00 00       	nopl   0x0(%rax,%rax,1)

0000000000002be0 <bfd_openr_next_archived_file@plt>:
    2be0:	f3 0f 1e fa          	endbr64 
    2be4:	f2 ff 25 a5 e3 00 00 	bnd jmpq *0xe3a5(%rip)        # 10f90 <bfd_seek@plt+0xe360>
    2beb:	0f 1f 44 00 00       	nopl   0x0(%rax,%rax,1)

0000000000002bf0 <bfd_bread@plt>:
    2bf0:	f3 0f 1e fa          	endbr64 
    2bf4:	f2 ff 25 9d e3 00 00 	bnd jmpq *0xe39d(%rip)        # 10f98 <bfd_seek@plt+0xe368>
    2bfb:	0f 1f 44 00 00       	nopl   0x0(%rax,%rax,1)

0000000000002c00 <strerror@plt>:
    2c00:	f3 0f 1e fa          	endbr64 
    2c04:	f2 ff 25 95 e3 00 00 	bnd jmpq *0xe395(%rip)        # 10fa0 <bfd_seek@plt+0xe370>
    2c0b:	0f 1f 44 00 00       	nopl   0x0(%rax,%rax,1)

0000000000002c10 <getc@plt>:
    2c10:	f3 0f 1e fa          	endbr64 
    2c14:	f2 ff 25 8d e3 00 00 	bnd jmpq *0xe38d(%rip)        # 10fa8 <bfd_seek@plt+0xe378>
    2c1b:	0f 1f 44 00 00       	nopl   0x0(%rax,%rax,1)

0000000000002c20 <__sprintf_chk@plt>:
    2c20:	f3 0f 1e fa          	endbr64 
    2c24:	f2 ff 25 85 e3 00 00 	bnd jmpq *0xe385(%rip)        # 10fb0 <bfd_seek@plt+0xe380>
    2c2b:	0f 1f 44 00 00       	nopl   0x0(%rax,%rax,1)

0000000000002c30 <bfd_seek@plt>:
    2c30:	f3 0f 1e fa          	endbr64 
    2c34:	f2 ff 25 7d e3 00 00 	bnd jmpq *0xe37d(%rip)        # 10fb8 <bfd_seek@plt+0xe388>
    2c3b:	0f 1f 44 00 00       	nopl   0x0(%rax,%rax,1)

Disassembly of section .text:

0000000000002c40 <.text>:
    2c40:	e8 6b fa ff ff       	callq  26b0 <abort@plt>
    2c45:	66 2e 0f 1f 84 00 00 	nopw   %cs:0x0(%rax,%rax,1)
    2c4c:	00 00 00 
    2c4f:	90                   	nop
    2c50:	f3 0f 1e fa          	endbr64 
    2c54:	41 57                	push   %r15
    2c56:	41 56                	push   %r14
    2c58:	41 55                	push   %r13
    2c5a:	41 54                	push   %r12
    2c5c:	55                   	push   %rbp
    2c5d:	53                   	push   %rbx
    2c5e:	48 83 ec 58          	sub    $0x58,%rsp
    2c62:	89 7c 24 2c          	mov    %edi,0x2c(%rsp)
    2c66:	bf 05 00 00 00       	mov    $0x5,%edi
    2c6b:	48 89 74 24 20       	mov    %rsi,0x20(%rsp)
    2c70:	48 8d 35 cc 93 00 00 	lea    0x93cc(%rip),%rsi        # c043 <bfd_seek@plt+0x9413>
    2c77:	64 48 8b 04 25 28 00 	mov    %fs:0x28,%rax
    2c7e:	00 00 
    2c80:	48 89 44 24 48       	mov    %rax,0x48(%rsp)
    2c85:	31 c0                	xor    %eax,%eax
    2c87:	e8 24 fe ff ff       	callq  2ab0 <setlocale@plt>
    2c8c:	48 8d 35 b0 93 00 00 	lea    0x93b0(%rip),%rsi        # c043 <bfd_seek@plt+0x9413>
    2c93:	31 ff                	xor    %edi,%edi
    2c95:	e8 16 fe ff ff       	callq  2ab0 <setlocale@plt>
    2c9a:	48 8d 35 bf 94 00 00 	lea    0x94bf(%rip),%rsi        # c160 <bfd_seek@plt+0x9530>
    2ca1:	48 8d 3d ca 94 00 00 	lea    0x94ca(%rip),%rdi        # c172 <bfd_seek@plt+0x9542>
    2ca8:	e8 13 fb ff ff       	callq  27c0 <bindtextdomain@plt>
    2cad:	48 8d 3d be 94 00 00 	lea    0x94be(%rip),%rdi        # c172 <bfd_seek@plt+0x9542>
    2cb4:	e8 c7 fa ff ff       	callq  2780 <textdomain@plt>
    2cb9:	48 8b 44 24 20       	mov    0x20(%rsp),%rax
    2cbe:	48 8b 38             	mov    (%rax),%rdi
    2cc1:	48 89 3d e8 e6 00 00 	mov    %rdi,0xe6e8(%rip)        # 113b0 <stderr@@GLIBC_2.2.5+0x250>
    2cc8:	e8 f3 fb ff ff       	callq  28c0 <xmalloc_set_program_name@plt>
    2ccd:	48 8b 3d dc e6 00 00 	mov    0xe6dc(%rip),%rdi        # 113b0 <stderr@@GLIBC_2.2.5+0x250>
    2cd4:	e8 17 fe ff ff       	callq  2af0 <bfd_set_error_program_name@plt>
    2cd9:	48 8b 3d d0 e6 00 00 	mov    0xe6d0(%rip),%rdi        # 113b0 <stderr@@GLIBC_2.2.5+0x250>
    2ce0:	e8 0b fd ff ff       	callq  29f0 <bfd_plugin_set_program_name@plt>
    2ce5:	48 8d 74 24 20       	lea    0x20(%rsp),%rsi
    2cea:	48 8d 7c 24 2c       	lea    0x2c(%rsp),%rdi
    2cef:	e8 dc 6c 00 00       	callq  99d0 <bfd_seek@plt+0x6da0>
    2cf4:	8b 0d 46 e5 00 00    	mov    0xe546(%rip),%ecx        # 11240 <stderr@@GLIBC_2.2.5+0xe0>
    2cfa:	85 c9                	test   %ecx,%ecx
    2cfc:	0f 88 59 03 00 00    	js     305b <bfd_seek@plt+0x42b>
    2d02:	e8 09 fc ff ff       	callq  2910 <bfd_init@plt>
    2d07:	ba 05 00 00 00       	mov    $0x5,%edx
    2d0c:	48 8d 35 1d 9f 00 00 	lea    0x9f1d(%rip),%rsi        # cc30 <bfd_seek@plt+0xa000>
    2d13:	3d 18 01 00 00       	cmp    $0x118,%eax
    2d18:	74 11                	je     2d2b <bfd_seek@plt+0xfb>
    2d1a:	31 ff                	xor    %edi,%edi
    2d1c:	e8 af fa ff ff       	callq  27d0 <dcgettext@plt>
    2d21:	48 89 c7             	mov    %rax,%rdi
    2d24:	31 c0                	xor    %eax,%eax
    2d26:	e8 05 57 00 00       	callq  8430 <bfd_seek@plt+0x5800>
    2d2b:	e8 70 58 00 00       	callq  85a0 <bfd_seek@plt+0x5970>
    2d30:	48 8d 3d 59 2a 00 00 	lea    0x2a59(%rip),%rdi        # 5790 <bfd_seek@plt+0x2b60>
    2d37:	e8 34 74 00 00       	callq  a170 <bfd_seek@plt+0x7540>
    2d3c:	83 7c 24 2c 01       	cmpl   $0x1,0x2c(%rsp)
    2d41:	0f 8e 0b 0a 00 00    	jle    3752 <bfd_seek@plt+0xb22>
    2d47:	bd 08 00 00 00       	mov    $0x8,%ebp
    2d4c:	bb 01 00 00 00       	mov    $0x1,%ebx
    2d51:	eb 12                	jmp    2d65 <bfd_seek@plt+0x135>
    2d53:	0f 1f 44 00 00       	nopl   0x0(%rax,%rax,1)
    2d58:	83 c3 01             	add    $0x1,%ebx
    2d5b:	48 83 c5 08          	add    $0x8,%rbp
    2d5f:	39 5c 24 2c          	cmp    %ebx,0x2c(%rsp)
    2d63:	7e 12                	jle    2d77 <bfd_seek@plt+0x147>
    2d65:	48 8b 44 24 20       	mov    0x20(%rsp),%rax
    2d6a:	48 8b 3c 28          	mov    (%rax,%rbp,1),%rdi
    2d6e:	e8 cd 52 00 00       	callq  8040 <bfd_seek@plt+0x5410>
    2d73:	85 c0                	test   %eax,%eax
    2d75:	75 e1                	jne    2d58 <bfd_seek@plt+0x128>
    2d77:	48 8b 44 24 20       	mov    0x20(%rsp),%rax
    2d7c:	48 63 d3             	movslq %ebx,%rdx
    2d7f:	83 eb 01             	sub    $0x1,%ebx
    2d82:	48 8d 6c d0 f8       	lea    -0x8(%rax,%rdx,8),%rbp
    2d87:	8b 44 24 2c          	mov    0x2c(%rsp),%eax
    2d8b:	48 89 6c 24 20       	mov    %rbp,0x20(%rsp)
    2d90:	29 d8                	sub    %ebx,%eax
    2d92:	83 3d a7 e4 00 00 00 	cmpl   $0x0,0xe4a7(%rip)        # 11240 <stderr@@GLIBC_2.2.5+0xe0>
    2d99:	89 44 24 2c          	mov    %eax,0x2c(%rsp)
    2d9d:	89 c3                	mov    %eax,%ebx
    2d9f:	0f 85 e7 03 00 00    	jne    318c <bfd_seek@plt+0x55c>
    2da5:	4c 8d 2d 24 a0 00 00 	lea    0xa024(%rip),%r13        # cdd0 <bfd_seek@plt+0xa1a0>
    2dac:	4c 8d 25 71 a0 00 00 	lea    0xa071(%rip),%r12        # ce24 <bfd_seek@plt+0xa1f4>
    2db3:	83 f8 01             	cmp    $0x1,%eax
    2db6:	0f 8e d5 02 00 00    	jle    3091 <bfd_seek@plt+0x461>
    2dbc:	48 8b 7d 08          	mov    0x8(%rbp),%rdi
    2dc0:	80 3f 2d             	cmpb   $0x2d,(%rdi)
    2dc3:	0f 85 f3 02 00 00    	jne    30bc <bfd_seek@plt+0x48c>
    2dc9:	45 31 c0             	xor    %r8d,%r8d
    2dcc:	48 8d 0d 4d e2 00 00 	lea    0xe24d(%rip),%rcx        # 11020 <bfd_seek@plt+0xe3f0>
    2dd3:	48 89 ee             	mov    %rbp,%rsi
    2dd6:	89 df                	mov    %ebx,%edi
    2dd8:	48 8d 15 c8 93 00 00 	lea    0x93c8(%rip),%rdx        # c1a7 <bfd_seek@plt+0x9577>
    2ddf:	e8 2c fa ff ff       	callq  2810 <getopt_long@plt>
    2de4:	83 f8 ff             	cmp    $0xffffffff,%eax
    2de7:	0f 84 0b 02 00 00    	je     2ff8 <bfd_seek@plt+0x3c8>
    2ded:	8d 50 9c             	lea    -0x64(%rax),%edx
    2df0:	83 fa 14             	cmp    $0x14,%edx
    2df3:	77 19                	ja     2e0e <bfd_seek@plt+0x1de>
    2df5:	49 63 54 95 00       	movslq 0x0(%r13,%rdx,4),%rdx
    2dfa:	4c 01 ea             	add    %r13,%rdx
    2dfd:	3e ff e2             	notrack jmpq *%rdx
    2e00:	8b 15 ca e3 00 00    	mov    0xe3ca(%rip),%edx        # 111d0 <stderr@@GLIBC_2.2.5+0x70>
    2e06:	85 d2                	test   %edx,%edx
    2e08:	0f 85 78 09 00 00    	jne    3786 <bfd_seek@plt+0xb56>
    2e0e:	3d cb 00 00 00       	cmp    $0xcb,%eax
    2e13:	0f 87 78 02 00 00    	ja     3091 <bfd_seek@plt+0x461>
    2e19:	89 c0                	mov    %eax,%eax
    2e1b:	49 63 04 84          	movslq (%r12,%rax,4),%rax
    2e1f:	4c 01 e0             	add    %r12,%rax
    2e22:	3e ff e0             	notrack jmpq *%rax
    2e25:	c7 05 a5 e3 00 00 01 	movl   $0x1,0xe3a5(%rip)        # 111d4 <stderr@@GLIBC_2.2.5+0x74>
    2e2c:	00 00 00 
    2e2f:	eb 98                	jmp    2dc9 <bfd_seek@plt+0x199>
    2e31:	c7 05 99 e3 00 00 02 	movl   $0x2,0xe399(%rip)        # 111d4 <stderr@@GLIBC_2.2.5+0x74>
    2e38:	00 00 00 
    2e3b:	eb 8c                	jmp    2dc9 <bfd_seek@plt+0x199>
    2e3d:	c7 05 dd e3 00 00 01 	movl   $0x1,0xe3dd(%rip)        # 11224 <stderr@@GLIBC_2.2.5+0xc4>
    2e44:	00 00 00 
    2e47:	eb 80                	jmp    2dc9 <bfd_seek@plt+0x199>
    2e49:	c7 05 c1 e1 00 00 00 	movl   $0x0,0xe1c1(%rip)        # 11014 <bfd_seek@plt+0xe3e4>
    2e50:	00 00 00 
    2e53:	e9 71 ff ff ff       	jmpq   2dc9 <bfd_seek@plt+0x199>
    2e58:	c7 05 c6 e3 00 00 01 	movl   $0x1,0xe3c6(%rip)        # 11228 <stderr@@GLIBC_2.2.5+0xc8>
    2e5f:	00 00 00 
    2e62:	e9 62 ff ff ff       	jmpq   2dc9 <bfd_seek@plt+0x199>
    2e67:	c7 05 6f e3 00 00 ff 	movl   $0xffffffff,0xe36f(%rip)        # 111e0 <stderr@@GLIBC_2.2.5+0x80>
    2e6e:	ff ff ff 
    2e71:	e9 53 ff ff ff       	jmpq   2dc9 <bfd_seek@plt+0x199>
    2e76:	c7 05 ac e3 00 00 01 	movl   $0x1,0xe3ac(%rip)        # 1122c <stderr@@GLIBC_2.2.5+0xcc>
    2e7d:	00 00 00 
    2e80:	e9 44 ff ff ff       	jmpq   2dc9 <bfd_seek@plt+0x199>
    2e85:	c7 05 5d e3 00 00 01 	movl   $0x1,0xe35d(%rip)        # 111ec <stderr@@GLIBC_2.2.5+0x8c>
    2e8c:	00 00 00 
    2e8f:	e9 35 ff ff ff       	jmpq   2dc9 <bfd_seek@plt+0x199>
    2e94:	c7 05 9a e3 00 00 01 	movl   $0x1,0xe39a(%rip)        # 11238 <stderr@@GLIBC_2.2.5+0xd8>
    2e9b:	00 00 00 
    2e9e:	e9 26 ff ff ff       	jmpq   2dc9 <bfd_seek@plt+0x199>
    2ea3:	c7 05 8f e3 00 00 01 	movl   $0x1,0xe38f(%rip)        # 1123c <stderr@@GLIBC_2.2.5+0xdc>
    2eaa:	00 00 00 
    2ead:	e9 17 ff ff ff       	jmpq   2dc9 <bfd_seek@plt+0x199>
    2eb2:	c7 05 58 e1 00 00 01 	movl   $0x1,0xe158(%rip)        # 11014 <bfd_seek@plt+0xe3e4>
    2eb9:	00 00 00 
    2ebc:	e9 08 ff ff ff       	jmpq   2dc9 <bfd_seek@plt+0x199>
    2ec1:	48 8b 05 78 e2 00 00 	mov    0xe278(%rip),%rax        # 11140 <optarg@@GLIBC_2.2.5>
    2ec8:	48 89 05 41 e3 00 00 	mov    %rax,0xe341(%rip)        # 11210 <stderr@@GLIBC_2.2.5+0xb0>
    2ecf:	e9 f5 fe ff ff       	jmpq   2dc9 <bfd_seek@plt+0x199>
    2ed4:	48 8b 05 65 e2 00 00 	mov    0xe265(%rip),%rax        # 11140 <optarg@@GLIBC_2.2.5>
    2edb:	48 89 05 36 e3 00 00 	mov    %rax,0xe336(%rip)        # 11218 <stderr@@GLIBC_2.2.5+0xb8>
    2ee2:	e9 e2 fe ff ff       	jmpq   2dc9 <bfd_seek@plt+0x199>
    2ee7:	48 8b 3d 52 e2 00 00 	mov    0xe252(%rip),%rdi        # 11140 <optarg@@GLIBC_2.2.5>
    2eee:	e8 fd f7 ff ff       	callq  26f0 <bfd_plugin_set_plugin@plt>
    2ef3:	e9 d1 fe ff ff       	jmpq   2dc9 <bfd_seek@plt+0x199>
    2ef8:	c7 05 ce e2 00 00 05 	movl   $0x5,0xe2ce(%rip)        # 111d0 <stderr@@GLIBC_2.2.5+0x70>
    2eff:	00 00 00 
    2f02:	e9 c2 fe ff ff       	jmpq   2dc9 <bfd_seek@plt+0x199>
    2f07:	c7 05 df e2 00 00 01 	movl   $0x1,0xe2df(%rip)        # 111f0 <stderr@@GLIBC_2.2.5+0x90>
    2f0e:	00 00 00 
    2f11:	e9 b3 fe ff ff       	jmpq   2dc9 <bfd_seek@plt+0x199>
    2f16:	c7 05 c4 e2 00 00 01 	movl   $0x1,0xe2c4(%rip)        # 111e4 <stderr@@GLIBC_2.2.5+0x84>
    2f1d:	00 00 00 
    2f20:	e9 a4 fe ff ff       	jmpq   2dc9 <bfd_seek@plt+0x199>
    2f25:	c7 05 a1 e2 00 00 03 	movl   $0x3,0xe2a1(%rip)        # 111d0 <stderr@@GLIBC_2.2.5+0x70>
    2f2c:	00 00 00 
    2f2f:	e9 95 fe ff ff       	jmpq   2dc9 <bfd_seek@plt+0x199>
    2f34:	c7 05 a2 e2 00 00 01 	movl   $0x1,0xe2a2(%rip)        # 111e0 <stderr@@GLIBC_2.2.5+0x80>
    2f3b:	00 00 00 
    2f3e:	e9 86 fe ff ff       	jmpq   2dc9 <bfd_seek@plt+0x199>
    2f43:	c7 05 83 e2 00 00 02 	movl   $0x2,0xe283(%rip)        # 111d0 <stderr@@GLIBC_2.2.5+0x70>
    2f4a:	00 00 00 
    2f4d:	c7 05 71 e2 00 00 01 	movl   $0x1,0xe271(%rip)        # 111c8 <stderr@@GLIBC_2.2.5+0x68>
    2f54:	00 00 00 
    2f57:	e9 6d fe ff ff       	jmpq   2dc9 <bfd_seek@plt+0x199>
    2f5c:	c7 05 6a e2 00 00 07 	movl   $0x7,0xe26a(%rip)        # 111d0 <stderr@@GLIBC_2.2.5+0x70>
    2f63:	00 00 00 
    2f66:	c7 05 58 e2 00 00 01 	movl   $0x1,0xe258(%rip)        # 111c8 <stderr@@GLIBC_2.2.5+0x68>
    2f6d:	00 00 00 
    2f70:	e9 54 fe ff ff       	jmpq   2dc9 <bfd_seek@plt+0x199>
    2f75:	c7 05 51 e2 00 00 04 	movl   $0x4,0xe251(%rip)        # 111d0 <stderr@@GLIBC_2.2.5+0x70>
    2f7c:	00 00 00 
    2f7f:	e9 45 fe ff ff       	jmpq   2dc9 <bfd_seek@plt+0x199>
    2f84:	c7 05 5a e2 00 00 01 	movl   $0x1,0xe25a(%rip)        # 111e8 <stderr@@GLIBC_2.2.5+0x88>
    2f8b:	00 00 00 
    2f8e:	e9 36 fe ff ff       	jmpq   2dc9 <bfd_seek@plt+0x199>
    2f93:	c7 05 33 e2 00 00 06 	movl   $0x6,0xe233(%rip)        # 111d0 <stderr@@GLIBC_2.2.5+0x70>
    2f9a:	00 00 00 
    2f9d:	c7 05 21 e2 00 00 01 	movl   $0x1,0xe221(%rip)        # 111c8 <stderr@@GLIBC_2.2.5+0x68>
    2fa4:	00 00 00 
    2fa7:	e9 1d fe ff ff       	jmpq   2dc9 <bfd_seek@plt+0x199>
    2fac:	c7 05 6a e2 00 00 01 	movl   $0x1,0xe26a(%rip)        # 11220 <stderr@@GLIBC_2.2.5+0xc0>
    2fb3:	00 00 00 
    2fb6:	e9 0e fe ff ff       	jmpq   2dc9 <bfd_seek@plt+0x199>
    2fbb:	c7 05 6b e2 00 00 01 	movl   $0x1,0xe26b(%rip)        # 11230 <stderr@@GLIBC_2.2.5+0xd0>
    2fc2:	00 00 00 
    2fc5:	e9 ff fd ff ff       	jmpq   2dc9 <bfd_seek@plt+0x199>
    2fca:	c7 05 fc e1 00 00 01 	movl   $0x1,0xe1fc(%rip)        # 111d0 <stderr@@GLIBC_2.2.5+0x70>
    2fd1:	00 00 00 
    2fd4:	c7 05 ea e1 00 00 01 	movl   $0x1,0xe1ea(%rip)        # 111c8 <stderr@@GLIBC_2.2.5+0x68>
    2fdb:	00 00 00 
    2fde:	e9 e6 fd ff ff       	jmpq   2dc9 <bfd_seek@plt+0x199>
    2fe3:	c7 05 07 e2 00 00 01 	movl   $0x1,0xe207(%rip)        # 111f4 <stderr@@GLIBC_2.2.5+0x94>
    2fea:	00 00 00 
    2fed:	e9 d7 fd ff ff       	jmpq   2dc9 <bfd_seek@plt+0x199>
    2ff2:	66 0f 1f 44 00 00    	nopw   0x0(%rax,%rax,1)
    2ff8:	48 63 15 39 e1 00 00 	movslq 0xe139(%rip),%rdx        # 11138 <optind@@GLIBC_2.2.5>
    2fff:	8b 0d cb e1 00 00    	mov    0xe1cb(%rip),%ecx        # 111d0 <stderr@@GLIBC_2.2.5+0x70>
    3005:	48 89 d0             	mov    %rdx,%rax
    3008:	48 c1 e2 03          	shl    $0x3,%rdx
    300c:	83 3d cd e1 00 00 01 	cmpl   $0x1,0xe1cd(%rip)        # 111e0 <stderr@@GLIBC_2.2.5+0x80>
    3013:	0f 84 30 03 00 00    	je     3349 <bfd_seek@plt+0x719>
    3019:	0b 0d 1d e2 00 00    	or     0xe21d(%rip),%ecx        # 1123c <stderr@@GLIBC_2.2.5+0xdc>
    301f:	0f 85 24 03 00 00    	jne    3349 <bfd_seek@plt+0x719>
    3025:	39 d8                	cmp    %ebx,%eax
    3027:	0f 8d 1c 03 00 00    	jge    3349 <bfd_seek@plt+0x719>
    302d:	85 c0                	test   %eax,%eax
    302f:	0f 8e 14 03 00 00    	jle    3349 <bfd_seek@plt+0x719>
    3035:	f3 0f 1e fa          	endbr64 
    3039:	83 e8 01             	sub    $0x1,%eax
    303c:	48 8d 6c 15 f8       	lea    -0x8(%rbp,%rdx,1),%rbp
    3041:	c7 05 ed e0 00 00 00 	movl   $0x0,0xe0ed(%rip)        # 11138 <optind@@GLIBC_2.2.5>
    3048:	00 00 00 
    304b:	29 c3                	sub    %eax,%ebx
    304d:	83 fb 01             	cmp    $0x1,%ebx
    3050:	0f 8f 66 fd ff ff    	jg     2dbc <bfd_seek@plt+0x18c>
    3056:	e9 6e fd ff ff       	jmpq   2dc9 <bfd_seek@plt+0x199>
    305b:	48 8b 3d 4e e3 00 00 	mov    0xe34e(%rip),%rdi        # 113b0 <stderr@@GLIBC_2.2.5+0x250>
    3062:	e8 b9 f8 ff ff       	callq  2920 <lbasename@plt>
    3067:	48 83 c9 ff          	or     $0xffffffffffffffff,%rcx
    306b:	48 89 c2             	mov    %rax,%rdx
    306e:	31 c0                	xor    %eax,%eax
    3070:	48 89 d7             	mov    %rdx,%rdi
    3073:	f2 ae                	repnz scas %es:(%rdi),%al
    3075:	48 f7 d1             	not    %rcx
    3078:	48 8d 41 ff          	lea    -0x1(%rcx),%rax
    307c:	48 83 f8 05          	cmp    $0x5,%rax
    3080:	77 16                	ja     3098 <bfd_seek@plt+0x468>
    3082:	c7 05 b4 e1 00 00 00 	movl   $0x0,0xe1b4(%rip)        # 11240 <stderr@@GLIBC_2.2.5+0xe0>
    3089:	00 00 00 
    308c:	e9 71 fc ff ff       	jmpq   2d02 <bfd_seek@plt+0xd2>
    3091:	31 ff                	xor    %edi,%edi
    3093:	e8 08 2b 00 00       	callq  5ba0 <bfd_seek@plt+0x2f70>
    3098:	48 8d 7c 0a f9       	lea    -0x7(%rdx,%rcx,1),%rdi
    309d:	48 8d 35 d7 90 00 00 	lea    0x90d7(%rip),%rsi        # c17b <bfd_seek@plt+0x954b>
    30a4:	e8 b7 f6 ff ff       	callq  2760 <filename_cmp@plt>
    30a9:	85 c0                	test   %eax,%eax
    30ab:	75 d5                	jne    3082 <bfd_seek@plt+0x452>
    30ad:	c7 05 89 e1 00 00 01 	movl   $0x1,0xe189(%rip)        # 11240 <stderr@@GLIBC_2.2.5+0xe0>
    30b4:	00 00 00 
    30b7:	e9 46 fc ff ff       	jmpq   2d02 <bfd_seek@plt+0xd2>
    30bc:	c6 44 24 45 2d       	movb   $0x2d,0x45(%rsp)
    30c1:	31 c0                	xor    %eax,%eax
    30c3:	48 83 c9 ff          	or     $0xffffffffffffffff,%rcx
    30c7:	c6 44 24 47 00       	movb   $0x0,0x47(%rsp)
    30cc:	f2 ae                	repnz scas %es:(%rdi),%al
    30ce:	48 f7 d1             	not    %rcx
    30d1:	8d 44 0b ff          	lea    -0x1(%rbx,%rcx,1),%eax
    30d5:	8d 48 ff             	lea    -0x1(%rax),%ecx
    30d8:	48 98                	cltq   
    30da:	48 8d 3c c5 00 00 00 	lea    0x0(,%rax,8),%rdi
    30e1:	00 
    30e2:	89 4c 24 28          	mov    %ecx,0x28(%rsp)
    30e6:	e8 b5 f7 ff ff       	callq  28a0 <xmalloc@plt>
    30eb:	48 8d 75 10          	lea    0x10(%rbp),%rsi
    30ef:	48 89 c1             	mov    %rax,%rcx
    30f2:	48 89 44 24 18       	mov    %rax,0x18(%rsp)
    30f7:	4c 8d 78 08          	lea    0x8(%rax),%r15
    30fb:	48 8b 45 00          	mov    0x0(%rbp),%rax
    30ff:	48 89 01             	mov    %rax,(%rcx)
    3102:	4c 8b 75 08          	mov    0x8(%rbp),%r14
    3106:	41 0f b6 06          	movzbl (%r14),%eax
    310a:	84 c0                	test   %al,%al
    310c:	74 3e                	je     314c <bfd_seek@plt+0x51c>
    310e:	48 8d 4c 24 45       	lea    0x45(%rsp),%rcx
    3113:	48 89 4c 24 10       	mov    %rcx,0x10(%rsp)
    3118:	0f 1f 84 00 00 00 00 	nopl   0x0(%rax,%rax,1)
    311f:	00 
    3120:	48 8b 7c 24 10       	mov    0x10(%rsp),%rdi
    3125:	49 83 c7 08          	add    $0x8,%r15
    3129:	49 83 c6 01          	add    $0x1,%r14
    312d:	88 44 24 46          	mov    %al,0x46(%rsp)
    3131:	48 89 74 24 08       	mov    %rsi,0x8(%rsp)
    3136:	e8 a5 f7 ff ff       	callq  28e0 <xstrdup@plt>
    313b:	48 8b 74 24 08       	mov    0x8(%rsp),%rsi
    3140:	49 89 47 f8          	mov    %rax,-0x8(%r15)
    3144:	41 0f b6 06          	movzbl (%r14),%eax
    3148:	84 c0                	test   %al,%al
    314a:	75 d4                	jne    3120 <bfd_seek@plt+0x4f0>
    314c:	48 63 db             	movslq %ebx,%rbx
    314f:	48 8d 44 dd 00       	lea    0x0(%rbp,%rbx,8),%rax
    3154:	48 39 c6             	cmp    %rax,%rsi
    3157:	73 1e                	jae    3177 <bfd_seek@plt+0x547>
    3159:	4c 89 ff             	mov    %r15,%rdi
    315c:	0f 1f 40 00          	nopl   0x0(%rax)
    3160:	48 a5                	movsq  %ds:(%rsi),%es:(%rdi)
    3162:	48 39 c6             	cmp    %rax,%rsi
    3165:	72 f9                	jb     3160 <bfd_seek@plt+0x530>
    3167:	48 29 e8             	sub    %rbp,%rax
    316a:	48 83 e8 11          	sub    $0x11,%rax
    316e:	48 c1 e8 03          	shr    $0x3,%rax
    3172:	4d 8d 7c c7 08       	lea    0x8(%r15,%rax,8),%r15
    3177:	48 8b 6c 24 18       	mov    0x18(%rsp),%rbp
    317c:	8b 5c 24 28          	mov    0x28(%rsp),%ebx
    3180:	49 c7 07 00 00 00 00 	movq   $0x0,(%r15)
    3187:	e9 3d fc ff ff       	jmpq   2dc9 <bfd_seek@plt+0x199>
    318c:	45 31 e4             	xor    %r12d,%r12d
    318f:	4c 8d 2d be 9f 00 00 	lea    0x9fbe(%rip),%r13        # d154 <bfd_seek@plt+0xa524>
    3196:	45 31 c0             	xor    %r8d,%r8d
    3199:	48 8d 0d 80 de 00 00 	lea    0xde80(%rip),%rcx        # 11020 <bfd_seek@plt+0xe3f0>
    31a0:	48 89 ee             	mov    %rbp,%rsi
    31a3:	89 df                	mov    %ebx,%edi
    31a5:	48 8d 15 d6 8f 00 00 	lea    0x8fd6(%rip),%rdx        # c182 <bfd_seek@plt+0x9552>
    31ac:	e8 5f f6 ff ff       	callq  2810 <getopt_long@plt>
    31b1:	83 f8 ff             	cmp    $0xffffffff,%eax
    31b4:	74 76                	je     322c <bfd_seek@plt+0x5fc>
    31b6:	83 f8 76             	cmp    $0x76,%eax
    31b9:	7f 55                	jg     3210 <bfd_seek@plt+0x5e0>
    31bb:	83 f8 43             	cmp    $0x43,%eax
    31be:	7e d6                	jle    3196 <bfd_seek@plt+0x566>
    31c0:	83 e8 44             	sub    $0x44,%eax
    31c3:	83 f8 32             	cmp    $0x32,%eax
    31c6:	77 ce                	ja     3196 <bfd_seek@plt+0x566>
    31c8:	49 63 44 85 00       	movslq 0x0(%r13,%rax,4),%rax
    31cd:	4c 01 e8             	add    %r13,%rax
    31d0:	3e ff e0             	notrack jmpq *%rax
    31d3:	41 bc 01 00 00 00    	mov    $0x1,%r12d
    31d9:	eb bb                	jmp    3196 <bfd_seek@plt+0x566>
    31db:	c7 05 3f e0 00 00 01 	movl   $0x1,0xe03f(%rip)        # 11224 <stderr@@GLIBC_2.2.5+0xc4>
    31e2:	00 00 00 
    31e5:	eb af                	jmp    3196 <bfd_seek@plt+0x566>
    31e7:	c7 05 23 de 00 00 00 	movl   $0x0,0xde23(%rip)        # 11014 <bfd_seek@plt+0xe3e4>
    31ee:	00 00 00 
    31f1:	eb a3                	jmp    3196 <bfd_seek@plt+0x566>
    31f3:	c7 05 23 e0 00 00 01 	movl   $0x1,0xe023(%rip)        # 11220 <stderr@@GLIBC_2.2.5+0xc0>
    31fa:	00 00 00 
    31fd:	eb 97                	jmp    3196 <bfd_seek@plt+0x566>
    31ff:	c7 05 0b de 00 00 01 	movl   $0x1,0xde0b(%rip)        # 11014 <bfd_seek@plt+0xe3e4>
    3206:	00 00 00 
    3209:	eb 8b                	jmp    3196 <bfd_seek@plt+0x566>
    320b:	0f 1f 44 00 00       	nopl   0x0(%rax,%rax,1)
    3210:	3d c9 00 00 00       	cmp    $0xc9,%eax
    3215:	0f 85 7b ff ff ff    	jne    3196 <bfd_seek@plt+0x566>
    321b:	48 8b 3d 1e df 00 00 	mov    0xdf1e(%rip),%rdi        # 11140 <optarg@@GLIBC_2.2.5>
    3222:	e8 c9 f4 ff ff       	callq  26f0 <bfd_plugin_set_plugin@plt>
    3227:	e9 6a ff ff ff       	jmpq   3196 <bfd_seek@plt+0x566>
    322c:	83 fb 01             	cmp    $0x1,%ebx
    322f:	0f 8e 02 05 00 00    	jle    3737 <bfd_seek@plt+0xb07>
    3235:	83 3d e4 df 00 00 00 	cmpl   $0x0,0xdfe4(%rip)        # 11220 <stderr@@GLIBC_2.2.5+0xc0>
    323c:	0f 85 06 05 00 00    	jne    3748 <bfd_seek@plt+0xb18>
    3242:	83 3d db df 00 00 00 	cmpl   $0x0,0xdfdb(%rip)        # 11224 <stderr@@GLIBC_2.2.5+0xc4>
    3249:	0f 85 ca 02 00 00    	jne    3519 <bfd_seek@plt+0x8e9>
    324f:	83 3d be dd 00 00 00 	cmpl   $0x0,0xddbe(%rip)        # 11014 <bfd_seek@plt+0xe3e4>
    3256:	0f 88 ae 02 00 00    	js     350a <bfd_seek@plt+0x8da>
    325c:	4c 63 2d d5 de 00 00 	movslq 0xded5(%rip),%r13        # 11138 <optind@@GLIBC_2.2.5>
    3263:	45 31 ff             	xor    %r15d,%r15d
    3266:	eb 21                	jmp    3289 <bfd_seek@plt+0x659>
    3268:	e8 03 5c 00 00       	callq  8e70 <bfd_seek@plt+0x6240>
    326d:	49 89 c0             	mov    %rax,%r8
    3270:	b8 01 00 00 00       	mov    $0x1,%eax
    3275:	4d 85 c0             	test   %r8,%r8
    3278:	7e 08                	jle    3282 <bfd_seek@plt+0x652>
    327a:	4c 89 f7             	mov    %r14,%rdi
    327d:	e8 1e 3a 00 00       	callq  6ca0 <bfd_seek@plt+0x4070>
    3282:	41 09 c7             	or     %eax,%r15d
    3285:	49 83 c5 01          	add    $0x1,%r13
    3289:	44 39 eb             	cmp    %r13d,%ebx
    328c:	0f 8e 38 02 00 00    	jle    34ca <bfd_seek@plt+0x89a>
    3292:	4e 8b 74 ed 00       	mov    0x0(%rbp,%r13,8),%r14
    3297:	4c 89 f7             	mov    %r14,%rdi
    329a:	45 85 e4             	test   %r12d,%r12d
    329d:	74 c9                	je     3268 <bfd_seek@plt+0x638>
    329f:	e8 cc 5b 00 00       	callq  8e70 <bfd_seek@plt+0x6240>
    32a4:	48 85 c0             	test   %rax,%rax
    32a7:	0f 8e 94 00 00 00    	jle    3341 <bfd_seek@plt+0x711>
    32ad:	31 d2                	xor    %edx,%edx
    32af:	be 02 00 00 00       	mov    $0x2,%esi
    32b4:	4c 89 f7             	mov    %r14,%rdi
    32b7:	31 c0                	xor    %eax,%eax
    32b9:	e8 52 f8 ff ff       	callq  2b10 <open@plt>
    32be:	89 c2                	mov    %eax,%edx
    32c0:	85 c0                	test   %eax,%eax
    32c2:	0f 88 b9 06 00 00    	js     3981 <bfd_seek@plt+0xd51>
    32c8:	4c 89 f7             	mov    %r14,%rdi
    32cb:	31 f6                	xor    %esi,%esi
    32cd:	e8 9e f6 ff ff       	callq  2970 <bfd_fdopenr@plt>
    32d2:	48 89 c7             	mov    %rax,%rdi
    32d5:	48 85 c0             	test   %rax,%rax
    32d8:	0f 84 9b 06 00 00    	je     3979 <bfd_seek@plt+0xd49>
    32de:	48 8d 54 24 38       	lea    0x38(%rsp),%rdx
    32e3:	be 02 00 00 00       	mov    $0x2,%esi
    32e8:	48 89 44 24 08       	mov    %rax,0x8(%rsp)
    32ed:	e8 8e f8 ff ff       	callq  2b80 <bfd_check_format_matches@plt>
    32f2:	48 8b 7c 24 08       	mov    0x8(%rsp),%rdi
    32f7:	85 c0                	test   %eax,%eax
    32f9:	0f 84 5e 06 00 00    	je     395d <bfd_seek@plt+0xd2d>
    32ff:	f6 47 4c 40          	testb  $0x40,0x4c(%rdi)
    3303:	0f 84 34 06 00 00    	je     393d <bfd_seek@plt+0xd0d>
    3309:	83 3d 04 dd 00 00 00 	cmpl   $0x0,0xdd04(%rip)        # 11014 <bfd_seek@plt+0xe3e4>
    3310:	74 07                	je     3319 <bfd_seek@plt+0x6e9>
    3312:	81 4f 48 00 20 00 00 	orl    $0x2000,0x48(%rdi)
    3319:	48 8b 47 08          	mov    0x8(%rdi),%rax
    331d:	48 89 7c 24 08       	mov    %rdi,0x8(%rsp)
    3322:	ff 90 e8 01 00 00    	callq  *0x1e8(%rax)
    3328:	48 8b 7c 24 08       	mov    0x8(%rsp),%rdi
    332d:	e8 1e f8 ff ff       	callq  2b50 <bfd_close@plt>
    3332:	85 c0                	test   %eax,%eax
    3334:	0f 84 3f 06 00 00    	je     3979 <bfd_seek@plt+0xd49>
    333a:	31 c0                	xor    %eax,%eax
    333c:	e9 41 ff ff ff       	jmpq   3282 <bfd_seek@plt+0x652>
    3341:	44 89 e0             	mov    %r12d,%eax
    3344:	e9 39 ff ff ff       	jmpq   3282 <bfd_seek@plt+0x652>
    3349:	48 01 d5             	add    %rdx,%rbp
    334c:	83 3d cd de 00 00 00 	cmpl   $0x0,0xdecd(%rip)        # 11220 <stderr@@GLIBC_2.2.5+0xc0>
    3353:	48 89 6c 24 20       	mov    %rbp,0x20(%rsp)
    3358:	0f 85 e0 03 00 00    	jne    373e <bfd_seek@plt+0xb0e>
    335e:	83 3d bf de 00 00 00 	cmpl   $0x0,0xdebf(%rip)        # 11224 <stderr@@GLIBC_2.2.5+0xc4>
    3365:	0f 85 bf 01 00 00    	jne    352a <bfd_seek@plt+0x8fa>
    336b:	83 3d ca de 00 00 00 	cmpl   $0x0,0xdeca(%rip)        # 1123c <stderr@@GLIBC_2.2.5+0xdc>
    3372:	0f 85 5a 01 00 00    	jne    34d2 <bfd_seek@plt+0x8a2>
    3378:	48 8b 44 24 20       	mov    0x20(%rsp),%rax
    337d:	48 8b 28             	mov    (%rax),%rbp
    3380:	48 85 ed             	test   %rbp,%rbp
    3383:	0f 84 08 fd ff ff    	je     3091 <bfd_seek@plt+0x461>
    3389:	8b 05 41 de 00 00    	mov    0xde41(%rip),%eax        # 111d0 <stderr@@GLIBC_2.2.5+0x70>
    338f:	83 f8 07             	cmp    $0x7,%eax
    3392:	0f 84 ff 03 00 00    	je     3797 <bfd_seek@plt+0xb67>
    3398:	85 c0                	test   %eax,%eax
    339a:	0f 84 bc 03 00 00    	je     375c <bfd_seek@plt+0xb2c>
    33a0:	83 f8 03             	cmp    $0x3,%eax
    33a3:	0f 84 b3 03 00 00    	je     375c <bfd_seek@plt+0xb2c>
    33a9:	83 3d 34 de 00 00 00 	cmpl   $0x0,0xde34(%rip)        # 111e4 <stderr@@GLIBC_2.2.5+0x84>
    33b0:	0f 85 02 04 00 00    	jne    37b8 <bfd_seek@plt+0xb88>
    33b6:	83 3d 57 dc 00 00 00 	cmpl   $0x0,0xdc57(%rip)        # 11014 <bfd_seek@plt+0xe3e4>
    33bd:	79 0a                	jns    33c9 <bfd_seek@plt+0x799>
    33bf:	c7 05 4b dc 00 00 01 	movl   $0x1,0xdc4b(%rip)        # 11014 <bfd_seek@plt+0xe3e4>
    33c6:	00 00 00 
    33c9:	83 3d 04 de 00 00 00 	cmpl   $0x0,0xde04(%rip)        # 111d4 <stderr@@GLIBC_2.2.5+0x74>
    33d0:	0f 84 38 04 00 00    	je     380e <bfd_seek@plt+0xbde>
    33d6:	48 8b 44 24 20       	mov    0x20(%rsp),%rax
    33db:	bb 01 00 00 00       	mov    $0x1,%ebx
    33e0:	ba 05 00 00 00       	mov    $0x5,%edx
    33e5:	48 8d 35 f1 8d 00 00 	lea    0x8df1(%rip),%rsi        # c1dd <bfd_seek@plt+0x95ad>
    33ec:	48 8b 00             	mov    (%rax),%rax
    33ef:	48 89 05 e2 dd 00 00 	mov    %rax,0xdde2(%rip)        # 111d8 <stderr@@GLIBC_2.2.5+0x78>
    33f6:	48 85 c0             	test   %rax,%rax
    33f9:	0f 84 1b f9 ff ff    	je     2d1a <bfd_seek@plt+0xea>
    33ff:	83 3d 32 de 00 00 00 	cmpl   $0x0,0xde32(%rip)        # 11238 <stderr@@GLIBC_2.2.5+0xd8>
    3406:	74 50                	je     3458 <bfd_seek@plt+0x828>
    3408:	8b 05 c2 dd 00 00    	mov    0xddc2(%rip),%eax        # 111d0 <stderr@@GLIBC_2.2.5+0x70>
    340e:	ba 05 00 00 00       	mov    $0x5,%edx
    3413:	48 8d 35 06 99 00 00 	lea    0x9906(%rip),%rsi        # cd20 <bfd_seek@plt+0xa0f0>
    341a:	83 e0 fb             	and    $0xfffffffb,%eax
    341d:	83 e8 01             	sub    $0x1,%eax
    3420:	0f 85 f4 f8 ff ff    	jne    2d1a <bfd_seek@plt+0xea>
    3426:	48 8b 54 24 20       	mov    0x20(%rsp),%rdx
    342b:	48 63 c3             	movslq %ebx,%rax
    342e:	48 8b 3c c2          	mov    (%rdx,%rax,8),%rdi
    3432:	48 85 ff             	test   %rdi,%rdi
    3435:	0f 84 46 04 00 00    	je     3881 <bfd_seek@plt+0xc51>
    343b:	ba 0a 00 00 00       	mov    $0xa,%edx
    3440:	31 f6                	xor    %esi,%esi
    3442:	e8 59 f5 ff ff       	callq  29a0 <strtol@plt>
    3447:	89 05 e7 dd 00 00    	mov    %eax,0xdde7(%rip)        # 11234 <stderr@@GLIBC_2.2.5+0xd4>
    344d:	85 c0                	test   %eax,%eax
    344f:	0f 8e 9e 04 00 00    	jle    38f3 <bfd_seek@plt+0xcc3>
    3455:	83 c3 01             	add    $0x1,%ebx
    3458:	4c 8b 44 24 20       	mov    0x20(%rsp),%r8
    345d:	48 63 c3             	movslq %ebx,%rax
    3460:	48 c1 e0 03          	shl    $0x3,%rax
    3464:	49 8d 0c 00          	lea    (%r8,%rax,1),%rcx
    3468:	48 8b 39             	mov    (%rcx),%rdi
    346b:	48 85 ff             	test   %rdi,%rdi
    346e:	0f 84 1d fc ff ff    	je     3091 <bfd_seek@plt+0x461>
    3474:	31 d2                	xor    %edx,%edx
    3476:	41 89 d5             	mov    %edx,%r13d
    3479:	48 83 c2 01          	add    $0x1,%rdx
    347d:	48 8b 34 d1          	mov    (%rcx,%rdx,8),%rsi
    3481:	48 85 f6             	test   %rsi,%rsi
    3484:	75 f0                	jne    3476 <bfd_seek@plt+0x846>
    3486:	45 31 e4             	xor    %r12d,%r12d
    3489:	45 85 ed             	test   %r13d,%r13d
    348c:	74 09                	je     3497 <bfd_seek@plt+0x867>
    348e:	4d 8d 64 00 08       	lea    0x8(%r8,%rax,1),%r12
    3493:	49 8b 34 24          	mov    (%r12),%rsi
    3497:	e8 14 35 00 00       	callq  69b0 <bfd_seek@plt+0x3d80>
    349c:	8b 35 2e dd 00 00    	mov    0xdd2e(%rip),%esi        # 111d0 <stderr@@GLIBC_2.2.5+0x70>
    34a2:	48 89 c5             	mov    %rax,%rbp
    34a5:	83 fe 05             	cmp    $0x5,%esi
    34a8:	0f 84 87 03 00 00    	je     3835 <bfd_seek@plt+0xc05>
    34ae:	83 fe 07             	cmp    $0x7,%esi
    34b1:	0f 87 86 01 00 00    	ja     363d <bfd_seek@plt+0xa0d>
    34b7:	48 8d 0d 62 9d 00 00 	lea    0x9d62(%rip),%rcx        # d220 <bfd_seek@plt+0xa5f0>
    34be:	89 f2                	mov    %esi,%edx
    34c0:	48 63 04 91          	movslq (%rcx,%rdx,4),%rax
    34c4:	48 01 c8             	add    %rcx,%rax
    34c7:	3e ff e0             	notrack jmpq *%rax
    34ca:	44 89 ff             	mov    %r15d,%edi
    34cd:	e8 6e f6 ff ff       	callq  2b40 <xexit@plt>
    34d2:	83 3d 3b db 00 00 00 	cmpl   $0x0,0xdb3b(%rip)        # 11014 <bfd_seek@plt+0xe3e4>
    34d9:	79 0a                	jns    34e5 <bfd_seek@plt+0x8b5>
    34db:	c7 05 2f db 00 00 01 	movl   $0x1,0xdb2f(%rip)        # 11014 <bfd_seek@plt+0xe3e4>
    34e2:	00 00 00 
    34e5:	48 8b 3d 44 dc 00 00 	mov    0xdc44(%rip),%rdi        # 11130 <stdin@@GLIBC_2.2.5>
    34ec:	e8 ef f4 ff ff       	callq  29e0 <fileno@plt>
    34f1:	89 c7                	mov    %eax,%edi
    34f3:	e8 28 f2 ff ff       	callq  2720 <isatty@plt>
    34f8:	89 05 ce dc 00 00    	mov    %eax,0xdcce(%rip)        # 111cc <stderr@@GLIBC_2.2.5+0x6c>
    34fe:	e8 dd 05 00 00       	callq  3ae0 <bfd_seek@plt+0xeb0>
    3503:	31 ff                	xor    %edi,%edi
    3505:	e8 36 f6 ff ff       	callq  2b40 <xexit@plt>
    350a:	c7 05 00 db 00 00 01 	movl   $0x1,0xdb00(%rip)        # 11014 <bfd_seek@plt+0xe3e4>
    3511:	00 00 00 
    3514:	e9 43 fd ff ff       	jmpq   325c <bfd_seek@plt+0x62c>
    3519:	48 8d 3d 5b 8c 00 00 	lea    0x8c5b(%rip),%rdi        # c17b <bfd_seek@plt+0x954b>
    3520:	e8 2b 5e 00 00       	callq  9350 <bfd_seek@plt+0x6720>
    3525:	e9 25 fd ff ff       	jmpq   324f <bfd_seek@plt+0x61f>
    352a:	48 8d 3d 92 8c 00 00 	lea    0x8c92(%rip),%rdi        # c1c3 <bfd_seek@plt+0x9593>
    3531:	e8 1a 5e 00 00       	callq  9350 <bfd_seek@plt+0x6720>
    3536:	e9 30 fe ff ff       	jmpq   336b <bfd_seek@plt+0x73b>
    353b:	4d 85 e4             	test   %r12,%r12
    353e:	0f 84 58 03 00 00    	je     389c <bfd_seek@plt+0xc6c>
    3544:	31 d2                	xor    %edx,%edx
    3546:	83 fe 07             	cmp    $0x7,%esi
    3549:	48 89 ef             	mov    %rbp,%rdi
    354c:	4c 89 e6             	mov    %r12,%rsi
    354f:	0f 94 c2             	sete   %dl
    3552:	e8 09 30 00 00       	callq  6560 <bfd_seek@plt+0x3930>
    3557:	eb aa                	jmp    3503 <bfd_seek@plt+0x8d3>
    3559:	48 8d 85 d8 00 00 00 	lea    0xd8(%rbp),%rax
    3560:	45 31 f6             	xor    %r14d,%r14d
    3563:	48 89 44 24 08       	mov    %rax,0x8(%rsp)
    3568:	4d 85 e4             	test   %r12,%r12
    356b:	75 17                	jne    3584 <bfd_seek@plt+0x954>
    356d:	e9 37 03 00 00       	jmpq   38a9 <bfd_seek@plt+0xc79>
    3572:	80 65 4c bf          	andb   $0xbf,0x4c(%rbp)
    3576:	c7 05 60 dc 00 00 ff 	movl   $0xffffffff,0xdc60(%rip)        # 111e0 <stderr@@GLIBC_2.2.5+0x80>
    357d:	ff ff ff 
    3580:	49 83 c4 08          	add    $0x8,%r12
    3584:	49 8b 3c 24          	mov    (%r12),%rdi
    3588:	48 85 ff             	test   %rdi,%rdi
    358b:	0f 84 73 03 00 00    	je     3904 <bfd_seek@plt+0xcd4>
    3591:	48 8d 35 6e 8c 00 00 	lea    0x8c6e(%rip),%rsi        # c206 <bfd_seek@plt+0x95d6>
    3598:	e8 b3 f3 ff ff       	callq  2950 <strcmp@plt>
    359d:	85 c0                	test   %eax,%eax
    359f:	74 d1                	je     3572 <bfd_seek@plt+0x942>
    35a1:	48 8b 5c 24 08       	mov    0x8(%rsp),%rbx
    35a6:	45 31 ed             	xor    %r13d,%r13d
    35a9:	eb 4f                	jmp    35fa <bfd_seek@plt+0x9ca>
    35ab:	83 3d 7a dc 00 00 00 	cmpl   $0x0,0xdc7a(%rip)        # 1122c <stderr@@GLIBC_2.2.5+0xcc>
    35b2:	4c 8b 38             	mov    (%rax),%r15
    35b5:	49 8b 3c 24          	mov    (%r12),%rdi
    35b9:	75 0b                	jne    35c6 <bfd_seek@plt+0x996>
    35bb:	48 89 ee             	mov    %rbp,%rsi
    35be:	e8 ad 2e 00 00       	callq  6470 <bfd_seek@plt+0x3840>
    35c3:	48 89 c7             	mov    %rax,%rdi
    35c6:	4c 89 fe             	mov    %r15,%rsi
    35c9:	e8 92 f1 ff ff       	callq  2760 <filename_cmp@plt>
    35ce:	85 c0                	test   %eax,%eax
    35d0:	75 1e                	jne    35f0 <bfd_seek@plt+0x9c0>
    35d2:	41 83 c5 01          	add    $0x1,%r13d
    35d6:	83 3d 5b dc 00 00 00 	cmpl   $0x0,0xdc5b(%rip)        # 11238 <stderr@@GLIBC_2.2.5+0xd8>
    35dd:	0f 84 d6 02 00 00    	je     38b9 <bfd_seek@plt+0xc89>
    35e3:	44 3b 2d 4a dc 00 00 	cmp    0xdc4a(%rip),%r13d        # 11234 <stderr@@GLIBC_2.2.5+0xd4>
    35ea:	0f 84 c9 02 00 00    	je     38b9 <bfd_seek@plt+0xc89>
    35f0:	48 8b 1b             	mov    (%rbx),%rbx
    35f3:	48 81 c3 d8 00 00 00 	add    $0xd8,%rbx
    35fa:	48 8b 03             	mov    (%rbx),%rax
    35fd:	48 85 c0             	test   %rax,%rax
    3600:	75 a9                	jne    35ab <bfd_seek@plt+0x97b>
    3602:	83 3d e7 db 00 00 00 	cmpl   $0x0,0xdbe7(%rip)        # 111f0 <stderr@@GLIBC_2.2.5+0x90>
    3609:	0f 84 71 ff ff ff    	je     3580 <bfd_seek@plt+0x950>
    360f:	4d 8b 2c 24          	mov    (%r12),%r13
    3613:	31 ff                	xor    %edi,%edi
    3615:	ba 05 00 00 00       	mov    $0x5,%edx
    361a:	48 8d 35 f7 8b 00 00 	lea    0x8bf7(%rip),%rsi        # c218 <bfd_seek@plt+0x95e8>
    3621:	e8 aa f1 ff ff       	callq  27d0 <dcgettext@plt>
    3626:	bf 01 00 00 00       	mov    $0x1,%edi
    362b:	48 89 c6             	mov    %rax,%rsi
    362e:	4c 89 ea             	mov    %r13,%rdx
    3631:	31 c0                	xor    %eax,%eax
    3633:	e8 98 f4 ff ff       	callq  2ad0 <__printf_chk@plt>
    3638:	e9 43 ff ff ff       	jmpq   3580 <bfd_seek@plt+0x950>
    363d:	ba 05 00 00 00       	mov    $0x5,%edx
    3642:	48 8d 35 57 97 00 00 	lea    0x9757(%rip),%rsi        # cda0 <bfd_seek@plt+0xa170>
    3649:	e9 cc f6 ff ff       	jmpq   2d1a <bfd_seek@plt+0xea>
    364e:	83 3d 9f db 00 00 00 	cmpl   $0x0,0xdb9f(%rip)        # 111f4 <stderr@@GLIBC_2.2.5+0x94>
    3655:	0f 85 e0 fe ff ff    	jne    353b <bfd_seek@plt+0x90b>
    365b:	48 8d 85 d8 00 00 00 	lea    0xd8(%rbp),%rax
    3662:	48 89 44 24 08       	mov    %rax,0x8(%rsp)
    3667:	4d 85 e4             	test   %r12,%r12
    366a:	0f 84 39 02 00 00    	je     38a9 <bfd_seek@plt+0xc79>
    3670:	49 83 3c 24 00       	cmpq   $0x0,(%r12)
    3675:	0f 84 8e 02 00 00    	je     3909 <bfd_seek@plt+0xcd9>
    367b:	48 8b 5c 24 08       	mov    0x8(%rsp),%rbx
    3680:	eb 0a                	jmp    368c <bfd_seek@plt+0xa5c>
    3682:	48 8b 1b             	mov    (%rbx),%rbx
    3685:	48 81 c3 d8 00 00 00 	add    $0xd8,%rbx
    368c:	4c 8b 3b             	mov    (%rbx),%r15
    368f:	4d 8b 2c 24          	mov    (%r12),%r13
    3693:	4d 85 ff             	test   %r15,%r15
    3696:	0f 84 7a 02 00 00    	je     3916 <bfd_seek@plt+0xce6>
    369c:	83 3d 89 db 00 00 00 	cmpl   $0x0,0xdb89(%rip)        # 1122c <stderr@@GLIBC_2.2.5+0xcc>
    36a3:	4d 8b 37             	mov    (%r15),%r14
    36a6:	75 0e                	jne    36b6 <bfd_seek@plt+0xa86>
    36a8:	4c 89 ef             	mov    %r13,%rdi
    36ab:	48 89 ee             	mov    %rbp,%rsi
    36ae:	e8 bd 2d 00 00       	callq  6470 <bfd_seek@plt+0x3840>
    36b3:	49 89 c5             	mov    %rax,%r13
    36b6:	4c 89 f6             	mov    %r14,%rsi
    36b9:	4c 89 ef             	mov    %r13,%rdi
    36bc:	e8 9f f0 ff ff       	callq  2760 <filename_cmp@plt>
    36c1:	85 c0                	test   %eax,%eax
    36c3:	75 bd                	jne    3682 <bfd_seek@plt+0xa52>
    36c5:	49 8b 87 d8 00 00 00 	mov    0xd8(%r15),%rax
    36cc:	48 8b 7c 24 08       	mov    0x8(%rsp),%rdi
    36d1:	31 d2                	xor    %edx,%edx
    36d3:	be 03 00 00 00       	mov    $0x3,%esi
    36d8:	48 89 03             	mov    %rax,(%rbx)
    36db:	e8 60 1e 00 00       	callq  5540 <bfd_seek@plt+0x2910>
    36e0:	83 3d 09 db 00 00 00 	cmpl   $0x0,0xdb09(%rip)        # 111f0 <stderr@@GLIBC_2.2.5+0x90>
    36e7:	48 8b 10             	mov    (%rax),%rdx
    36ea:	4c 89 38             	mov    %r15,(%rax)
    36ed:	49 89 97 d8 00 00 00 	mov    %rdx,0xd8(%r15)
    36f4:	0f 85 6b 01 00 00    	jne    3865 <bfd_seek@plt+0xc35>
    36fa:	49 83 c4 08          	add    $0x8,%r12
    36fe:	e9 6d ff ff ff       	jmpq   3670 <bfd_seek@plt+0xa40>
    3703:	44 89 e9             	mov    %r13d,%ecx
    3706:	4c 89 e2             	mov    %r12,%rdx
    3709:	48 8d 35 e0 1e 00 00 	lea    0x1ee0(%rip),%rsi        # 55f0 <bfd_seek@plt+0x29c0>
    3710:	48 89 ef             	mov    %rbp,%rdi
    3713:	e8 98 30 00 00       	callq  67b0 <bfd_seek@plt+0x3b80>
    3718:	e9 e6 fd ff ff       	jmpq   3503 <bfd_seek@plt+0x8d3>
    371d:	44 89 e9             	mov    %r13d,%ecx
    3720:	4c 89 e2             	mov    %r12,%rdx
    3723:	48 8d 35 46 20 00 00 	lea    0x2046(%rip),%rsi        # 5770 <bfd_seek@plt+0x2b40>
    372a:	48 89 ef             	mov    %rbp,%rdi
    372d:	e8 7e 30 00 00       	callq  67b0 <bfd_seek@plt+0x3b80>
    3732:	e9 cc fd ff ff       	jmpq   3503 <bfd_seek@plt+0x8d3>
    3737:	31 ff                	xor    %edi,%edi
    3739:	e8 a2 20 00 00       	callq  57e0 <bfd_seek@plt+0x2bb0>
    373e:	bf 01 00 00 00       	mov    $0x1,%edi
    3743:	e8 58 24 00 00       	callq  5ba0 <bfd_seek@plt+0x2f70>
    3748:	bf 01 00 00 00       	mov    $0x1,%edi
    374d:	e8 8e 20 00 00       	callq  57e0 <bfd_seek@plt+0x2bb0>
    3752:	bb 01 00 00 00       	mov    $0x1,%ebx
    3757:	e9 1b f6 ff ff       	jmpq   2d77 <bfd_seek@plt+0x147>
    375c:	44 8b 25 7d da 00 00 	mov    0xda7d(%rip),%r12d        # 111e0 <stderr@@GLIBC_2.2.5+0x80>
    3763:	41 83 fc 01          	cmp    $0x1,%r12d
    3767:	0f 84 a8 00 00 00    	je     3815 <bfd_seek@plt+0xbe5>
    376d:	85 c0                	test   %eax,%eax
    376f:	0f 85 34 fc ff ff    	jne    33a9 <bfd_seek@plt+0x779>
    3775:	ba 05 00 00 00       	mov    $0x5,%edx
    377a:	48 8d 35 45 8a 00 00 	lea    0x8a45(%rip),%rsi        # c1c6 <bfd_seek@plt+0x9596>
    3781:	e9 94 f5 ff ff       	jmpq   2d1a <bfd_seek@plt+0xea>
    3786:	ba 05 00 00 00       	mov    $0x5,%edx
    378b:	48 8d 35 c6 94 00 00 	lea    0x94c6(%rip),%rsi        # cc58 <bfd_seek@plt+0xa028>
    3792:	e9 83 f5 ff ff       	jmpq   2d1a <bfd_seek@plt+0xea>
    3797:	83 3d 42 da 00 00 00 	cmpl   $0x0,0xda42(%rip)        # 111e0 <stderr@@GLIBC_2.2.5+0x80>
    379e:	0f 84 05 fc ff ff    	je     33a9 <bfd_seek@plt+0x779>
    37a4:	c7 05 22 da 00 00 02 	movl   $0x2,0xda22(%rip)        # 111d0 <stderr@@GLIBC_2.2.5+0x70>
    37ab:	00 00 00 
    37ae:	b8 02 00 00 00       	mov    $0x2,%eax
    37b3:	e9 f1 fb ff ff       	jmpq   33a9 <bfd_seek@plt+0x779>
    37b8:	ba 05 00 00 00       	mov    $0x5,%edx
    37bd:	48 8d 35 c4 94 00 00 	lea    0x94c4(%rip),%rsi        # cc88 <bfd_seek@plt+0xa058>
    37c4:	83 f8 02             	cmp    $0x2,%eax
    37c7:	0f 85 4d f5 ff ff    	jne    2d1a <bfd_seek@plt+0xea>
    37cd:	83 3d 40 d8 00 00 00 	cmpl   $0x0,0xd840(%rip)        # 11014 <bfd_seek@plt+0xe3e4>
    37d4:	ba 05 00 00 00       	mov    $0x5,%edx
    37d9:	48 8d 35 d8 94 00 00 	lea    0x94d8(%rip),%rsi        # ccb8 <bfd_seek@plt+0xa088>
    37e0:	0f 8f 34 f5 ff ff    	jg     2d1a <bfd_seek@plt+0xea>
    37e6:	0f 84 dd fb ff ff    	je     33c9 <bfd_seek@plt+0x799>
    37ec:	31 ff                	xor    %edi,%edi
    37ee:	ba 05 00 00 00       	mov    $0x5,%edx
    37f3:	48 8d 35 ee 94 00 00 	lea    0x94ee(%rip),%rsi        # cce8 <bfd_seek@plt+0xa0b8>
    37fa:	e8 d1 ef ff ff       	callq  27d0 <dcgettext@plt>
    37ff:	48 89 c7             	mov    %rax,%rdi
    3802:	31 c0                	xor    %eax,%eax
    3804:	e8 d7 4c 00 00       	callq  84e0 <bfd_seek@plt+0x58b0>
    3809:	e9 a8 fb ff ff       	jmpq   33b6 <bfd_seek@plt+0x786>
    380e:	31 db                	xor    %ebx,%ebx
    3810:	e9 ea fb ff ff       	jmpq   33ff <bfd_seek@plt+0x7cf>
    3815:	48 89 ef             	mov    %rbp,%rdi
    3818:	e8 53 56 00 00       	callq  8e70 <bfd_seek@plt+0x6240>
    381d:	48 85 c0             	test   %rax,%rax
    3820:	7e 0b                	jle    382d <bfd_seek@plt+0xbfd>
    3822:	48 89 ef             	mov    %rbp,%rdi
    3825:	e8 76 34 00 00       	callq  6ca0 <bfd_seek@plt+0x4070>
    382a:	41 89 c4             	mov    %eax,%r12d
    382d:	44 89 e7             	mov    %r12d,%edi
    3830:	e8 0b f3 ff ff       	callq  2b40 <xexit@plt>
    3835:	80 78 4c 00          	cmpb   $0x0,0x4c(%rax)
    3839:	ba 05 00 00 00       	mov    $0x5,%edx
    383e:	48 8d 35 33 95 00 00 	lea    0x9533(%rip),%rsi        # cd78 <bfd_seek@plt+0xa148>
    3845:	0f 88 cf f4 ff ff    	js     2d1a <bfd_seek@plt+0xea>
    384b:	44 89 e9             	mov    %r13d,%ecx
    384e:	4c 89 e2             	mov    %r12,%rdx
    3851:	48 8d 35 08 2a 00 00 	lea    0x2a08(%rip),%rsi        # 6260 <bfd_seek@plt+0x3630>
    3858:	48 89 c7             	mov    %rax,%rdi
    385b:	e8 50 2f 00 00       	callq  67b0 <bfd_seek@plt+0x3b80>
    3860:	e9 9e fc ff ff       	jmpq   3503 <bfd_seek@plt+0x8d3>
    3865:	49 8b 14 24          	mov    (%r12),%rdx
    3869:	48 8d 35 be 89 00 00 	lea    0x89be(%rip),%rsi        # c22e <bfd_seek@plt+0x95fe>
    3870:	bf 01 00 00 00       	mov    $0x1,%edi
    3875:	31 c0                	xor    %eax,%eax
    3877:	e8 54 f2 ff ff       	callq  2ad0 <__printf_chk@plt>
    387c:	e9 79 fe ff ff       	jmpq   36fa <bfd_seek@plt+0xaca>
    3881:	ba 05 00 00 00       	mov    $0x5,%edx
    3886:	48 8d 35 66 89 00 00 	lea    0x8966(%rip),%rsi        # c1f3 <bfd_seek@plt+0x95c3>
    388d:	e8 3e ef ff ff       	callq  27d0 <dcgettext@plt>
    3892:	48 89 c7             	mov    %rax,%rdi
    3895:	31 c0                	xor    %eax,%eax
    3897:	e8 94 4b 00 00       	callq  8430 <bfd_seek@plt+0x5800>
    389c:	83 3d 3d d9 00 00 00 	cmpl   $0x0,0xd93d(%rip)        # 111e0 <stderr@@GLIBC_2.2.5+0x80>
    38a3:	0f 8f 9b fc ff ff    	jg     3544 <bfd_seek@plt+0x914>
    38a9:	48 c7 05 54 d9 00 00 	movq   $0x0,0xd954(%rip)        # 11208 <stderr@@GLIBC_2.2.5+0xa8>
    38b0:	00 00 00 00 
    38b4:	e9 4a fc ff ff       	jmpq   3503 <bfd_seek@plt+0x8d3>
    38b9:	83 3d 30 d9 00 00 00 	cmpl   $0x0,0xd930(%rip)        # 111f0 <stderr@@GLIBC_2.2.5+0x90>
    38c0:	75 18                	jne    38da <bfd_seek@plt+0xcaa>
    38c2:	48 8b 03             	mov    (%rbx),%rax
    38c5:	41 be 01 00 00 00    	mov    $0x1,%r14d
    38cb:	48 8b 80 d8 00 00 00 	mov    0xd8(%rax),%rax
    38d2:	48 89 03             	mov    %rax,(%rbx)
    38d5:	e9 a6 fc ff ff       	jmpq   3580 <bfd_seek@plt+0x950>
    38da:	49 8b 14 24          	mov    (%r12),%rdx
    38de:	48 8d 35 2b 89 00 00 	lea    0x892b(%rip),%rsi        # c210 <bfd_seek@plt+0x95e0>
    38e5:	bf 01 00 00 00       	mov    $0x1,%edi
    38ea:	31 c0                	xor    %eax,%eax
    38ec:	e8 df f1 ff ff       	callq  2ad0 <__printf_chk@plt>
    38f1:	eb cf                	jmp    38c2 <bfd_seek@plt+0xc92>
    38f3:	ba 05 00 00 00       	mov    $0x5,%edx
    38f8:	48 8d 35 59 94 00 00 	lea    0x9459(%rip),%rsi        # cd58 <bfd_seek@plt+0xa128>
    38ff:	e9 16 f4 ff ff       	jmpq   2d1a <bfd_seek@plt+0xea>
    3904:	45 85 f6             	test   %r14d,%r14d
    3907:	74 a0                	je     38a9 <bfd_seek@plt+0xc79>
    3909:	48 89 ef             	mov    %rbp,%rdi
    390c:	e8 0f 21 00 00       	callq  5a20 <bfd_seek@plt+0x2df0>
    3911:	e9 ed fb ff ff       	jmpq   3503 <bfd_seek@plt+0x8d3>
    3916:	4c 8b 65 00          	mov    0x0(%rbp),%r12
    391a:	ba 05 00 00 00       	mov    $0x5,%edx
    391f:	48 8d 35 10 89 00 00 	lea    0x8910(%rip),%rsi        # c236 <bfd_seek@plt+0x9606>
    3926:	31 ff                	xor    %edi,%edi
    3928:	e8 a3 ee ff ff       	callq  27d0 <dcgettext@plt>
    392d:	4c 89 ee             	mov    %r13,%rsi
    3930:	48 89 c7             	mov    %rax,%rdi
    3933:	4c 89 e2             	mov    %r12,%rdx
    3936:	31 c0                	xor    %eax,%eax
    3938:	e8 f3 4a 00 00       	callq  8430 <bfd_seek@plt+0x5800>
    393d:	48 8d 35 46 88 00 00 	lea    0x8846(%rip),%rsi        # c18a <bfd_seek@plt+0x955a>
    3944:	31 ff                	xor    %edi,%edi
    3946:	ba 05 00 00 00       	mov    $0x5,%edx
    394b:	e8 80 ee ff ff       	callq  27d0 <dcgettext@plt>
    3950:	4c 89 f6             	mov    %r14,%rsi
    3953:	48 89 c7             	mov    %rax,%rdi
    3956:	31 c0                	xor    %eax,%eax
    3958:	e8 d3 4a 00 00       	callq  8430 <bfd_seek@plt+0x5800>
    395d:	4c 89 f7             	mov    %r14,%rdi
    3960:	e8 cb 47 00 00       	callq  8130 <bfd_seek@plt+0x5500>
    3965:	e8 26 ef ff ff       	callq  2890 <bfd_get_error@plt>
    396a:	83 f8 0d             	cmp    $0xd,%eax
    396d:	74 24                	je     3993 <bfd_seek@plt+0xd63>
    396f:	bf 01 00 00 00       	mov    $0x1,%edi
    3974:	e8 c7 f1 ff ff       	callq  2b40 <xexit@plt>
    3979:	4c 89 f7             	mov    %r14,%rdi
    397c:	e8 1f 4a 00 00       	callq  83a0 <bfd_seek@plt+0x5770>
    3981:	bf 01 00 00 00       	mov    $0x1,%edi
    3986:	e8 25 ef ff ff       	callq  28b0 <bfd_set_error@plt>
    398b:	4c 89 f7             	mov    %r14,%rdi
    398e:	e8 0d 4a 00 00       	callq  83a0 <bfd_seek@plt+0x5770>
    3993:	48 8b 7c 24 38       	mov    0x38(%rsp),%rdi
    3998:	e8 53 4c 00 00       	callq  85f0 <bfd_seek@plt+0x59c0>
    399d:	48 8b 7c 24 38       	mov    0x38(%rsp),%rdi
    39a2:	e8 c9 ec ff ff       	callq  2670 <free@plt>
    39a7:	eb c6                	jmp    396f <bfd_seek@plt+0xd3f>
    39a9:	0f 1f 80 00 00 00 00 	nopl   0x0(%rax)
    39b0:	f3 0f 1e fa          	endbr64 
    39b4:	31 ed                	xor    %ebp,%ebp
    39b6:	49 89 d1             	mov    %rdx,%r9
    39b9:	5e                   	pop    %rsi
    39ba:	48 89 e2             	mov    %rsp,%rdx
    39bd:	48 83 e4 f0          	and    $0xfffffffffffffff0,%rsp
    39c1:	50                   	push   %rax
    39c2:	54                   	push   %rsp
    39c3:	4c 8d 05 a6 68 00 00 	lea    0x68a6(%rip),%r8        # a270 <bfd_seek@plt+0x7640>
    39ca:	48 8d 0d 2f 68 00 00 	lea    0x682f(%rip),%rcx        # a200 <bfd_seek@plt+0x75d0>
    39d1:	48 8d 3d 78 f2 ff ff 	lea    -0xd88(%rip),%rdi        # 2c50 <bfd_seek@plt+0x20>
    39d8:	ff 15 f2 d5 00 00    	callq  *0xd5f2(%rip)        # 10fd0 <bfd_seek@plt+0xe3a0>
    39de:	f4                   	hlt    
    39df:	90                   	nop
    39e0:	48 8d 3d 21 d7 00 00 	lea    0xd721(%rip),%rdi        # 11108 <bfd_seek@plt+0xe4d8>
    39e7:	48 8d 05 1a d7 00 00 	lea    0xd71a(%rip),%rax        # 11108 <bfd_seek@plt+0xe4d8>
    39ee:	48 39 f8             	cmp    %rdi,%rax
    39f1:	74 15                	je     3a08 <bfd_seek@plt+0xdd8>
    39f3:	48 8b 05 c6 d5 00 00 	mov    0xd5c6(%rip),%rax        # 10fc0 <bfd_seek@plt+0xe390>
    39fa:	48 85 c0             	test   %rax,%rax
    39fd:	74 09                	je     3a08 <bfd_seek@plt+0xdd8>
    39ff:	ff e0                	jmpq   *%rax
    3a01:	0f 1f 80 00 00 00 00 	nopl   0x0(%rax)
    3a08:	c3                   	retq   
    3a09:	0f 1f 80 00 00 00 00 	nopl   0x0(%rax)
    3a10:	48 8d 3d f1 d6 00 00 	lea    0xd6f1(%rip),%rdi        # 11108 <bfd_seek@plt+0xe4d8>
    3a17:	48 8d 35 ea d6 00 00 	lea    0xd6ea(%rip),%rsi        # 11108 <bfd_seek@plt+0xe4d8>
    3a1e:	48 29 fe             	sub    %rdi,%rsi
    3a21:	48 89 f0             	mov    %rsi,%rax
    3a24:	48 c1 ee 3f          	shr    $0x3f,%rsi
    3a28:	48 c1 f8 03          	sar    $0x3,%rax
    3a2c:	48 01 c6             	add    %rax,%rsi
    3a2f:	48 d1 fe             	sar    %rsi
    3a32:	74 14                	je     3a48 <bfd_seek@plt+0xe18>
    3a34:	48 8b 05 ad d5 00 00 	mov    0xd5ad(%rip),%rax        # 10fe8 <bfd_seek@plt+0xe3b8>
    3a3b:	48 85 c0             	test   %rax,%rax
    3a3e:	74 08                	je     3a48 <bfd_seek@plt+0xe18>
    3a40:	ff e0                	jmpq   *%rax
    3a42:	66 0f 1f 44 00 00    	nopw   0x0(%rax,%rax,1)
    3a48:	c3                   	retq   
    3a49:	0f 1f 80 00 00 00 00 	nopl   0x0(%rax)
    3a50:	f3 0f 1e fa          	endbr64 
    3a54:	80 3d 0d d7 00 00 00 	cmpb   $0x0,0xd70d(%rip)        # 11168 <stderr@@GLIBC_2.2.5+0x8>
    3a5b:	75 2b                	jne    3a88 <bfd_seek@plt+0xe58>
    3a5d:	55                   	push   %rbp
    3a5e:	48 83 3d 8a d5 00 00 	cmpq   $0x0,0xd58a(%rip)        # 10ff0 <bfd_seek@plt+0xe3c0>
    3a65:	00 
    3a66:	48 89 e5             	mov    %rsp,%rbp
    3a69:	74 0c                	je     3a77 <bfd_seek@plt+0xe47>
    3a6b:	48 8b 3d 96 d5 00 00 	mov    0xd596(%rip),%rdi        # 11008 <bfd_seek@plt+0xe3d8>
    3a72:	e8 b9 eb ff ff       	callq  2630 <__cxa_finalize@plt>
    3a77:	e8 64 ff ff ff       	callq  39e0 <bfd_seek@plt+0xdb0>
    3a7c:	c6 05 e5 d6 00 00 01 	movb   $0x1,0xd6e5(%rip)        # 11168 <stderr@@GLIBC_2.2.5+0x8>
    3a83:	5d                   	pop    %rbp
    3a84:	c3                   	retq   
    3a85:	0f 1f 00             	nopl   (%rax)
    3a88:	c3                   	retq   
    3a89:	0f 1f 80 00 00 00 00 	nopl   0x0(%rax)
    3a90:	f3 0f 1e fa          	endbr64 
    3a94:	e9 77 ff ff ff       	jmpq   3a10 <bfd_seek@plt+0xde0>
    3a99:	0f 1f 80 00 00 00 00 	nopl   0x0(%rax)
    3aa0:	41 54                	push   %r12
    3aa2:	8b 05 00 d9 00 00    	mov    0xd900(%rip),%eax        # 113a8 <stderr@@GLIBC_2.2.5+0x248>
    3aa8:	ba 05 00 00 00       	mov    $0x5,%edx
    3aad:	31 ff                	xor    %edi,%edi
    3aaf:	48 8d 35 52 75 00 00 	lea    0x7552(%rip),%rsi        # b008 <bfd_seek@plt+0x83d8>
    3ab6:	44 8d 60 01          	lea    0x1(%rax),%r12d
    3aba:	e8 11 ed ff ff       	callq  27d0 <dcgettext@plt>
    3abf:	44 89 e2             	mov    %r12d,%edx
    3ac2:	bf 01 00 00 00       	mov    $0x1,%edi
    3ac7:	48 89 c6             	mov    %rax,%rsi
    3aca:	31 c0                	xor    %eax,%eax
    3acc:	e8 ff ef ff ff       	callq  2ad0 <__printf_chk@plt>
    3ad1:	31 c0                	xor    %eax,%eax
    3ad3:	41 5c                	pop    %r12
    3ad5:	c3                   	retq   
    3ad6:	66 2e 0f 1f 84 00 00 	nopw   %cs:0x0(%rax,%rax,1)
    3add:	00 00 00 
    3ae0:	f3 0f 1e fa          	endbr64 
    3ae4:	41 57                	push   %r15
    3ae6:	31 ff                	xor    %edi,%edi
    3ae8:	45 31 ff             	xor    %r15d,%r15d
    3aeb:	48 8d 0d 8e 77 00 00 	lea    0x778e(%rip),%rcx        # b280 <bfd_seek@plt+0x8650>
    3af2:	41 56                	push   %r14
    3af4:	41 55                	push   %r13
    3af6:	41 54                	push   %r12
    3af8:	55                   	push   %rbp
    3af9:	53                   	push   %rbx
    3afa:	bb c8 00 00 00       	mov    $0xc8,%ebx
    3aff:	48 81 ec 08 08 00 00 	sub    $0x808,%rsp
    3b06:	64 48 8b 04 25 28 00 	mov    %fs:0x28,%rax
    3b0d:	00 00 
    3b0f:	48 89 84 24 f8 07 00 	mov    %rax,0x7f8(%rsp)
    3b16:	00 
    3b17:	31 c0                	xor    %eax,%eax
    3b19:	4c 8d 9c 24 b0 01 00 	lea    0x1b0(%rsp),%r11
    3b20:	00 
    3b21:	4c 8d 64 24 20       	lea    0x20(%rsp),%r12
    3b26:	c7 05 60 d8 00 00 00 	movl   $0x0,0xd860(%rip)        # 11390 <stderr@@GLIBC_2.2.5+0x230>
    3b2d:	00 00 00 
    3b30:	c7 05 5a d8 00 00 fe 	movl   $0xfffffffe,0xd85a(%rip)        # 11394 <stderr@@GLIBC_2.2.5+0x234>
    3b37:	ff ff ff 
    3b3a:	4c 89 e5             	mov    %r12,%rbp
    3b3d:	4d 89 de             	mov    %r11,%r14
    3b40:	66 89 7c 24 20       	mov    %di,0x20(%rsp)
    3b45:	c7 44 24 0c 00 00 00 	movl   $0x0,0xc(%rsp)
    3b4c:	00 
    3b4d:	4c 89 1c 24          	mov    %r11,(%rsp)
    3b51:	4c 89 64 24 10       	mov    %r12,0x10(%rsp)
    3b56:	45 89 fc             	mov    %r15d,%r12d
    3b59:	49 89 ef             	mov    %rbp,%r15
    3b5c:	49 63 d4             	movslq %r12d,%rdx
    3b5f:	44 0f be 2c 11       	movsbl (%rcx,%rdx,1),%r13d
    3b64:	45 89 ec             	mov    %r13d,%r12d
    3b67:	41 83 fd f2          	cmp    $0xfffffff2,%r13d
    3b6b:	0f 84 27 02 00 00    	je     3d98 <bfd_seek@plt+0x1168>
    3b71:	8b 05 1d d8 00 00    	mov    0xd81d(%rip),%eax        # 11394 <stderr@@GLIBC_2.2.5+0x234>
    3b77:	83 f8 fe             	cmp    $0xfffffffe,%eax
    3b7a:	0f 84 50 03 00 00    	je     3ed0 <bfd_seek@plt+0x12a0>
    3b80:	85 c0                	test   %eax,%eax
    3b82:	0f 8e 00 03 00 00    	jle    3e88 <bfd_seek@plt+0x1258>
    3b88:	3d 13 01 00 00       	cmp    $0x113,%eax
    3b8d:	0f 8e 0d 03 00 00    	jle    3ea0 <bfd_seek@plt+0x1270>
    3b93:	45 8d 65 02          	lea    0x2(%r13),%r12d
    3b97:	be 02 00 00 00       	mov    $0x2,%esi
    3b9c:	41 83 fc 22          	cmp    $0x22,%r12d
    3ba0:	0f 87 f2 01 00 00    	ja     3d98 <bfd_seek@plt+0x1168>
    3ba6:	49 63 c4             	movslq %r12d,%rax
    3ba9:	48 8d 3d d0 75 00 00 	lea    0x75d0(%rip),%rdi        # b180 <bfd_seek@plt+0x8550>
    3bb0:	0f b6 3c 07          	movzbl (%rdi,%rax,1),%edi
    3bb4:	39 f7                	cmp    %esi,%edi
    3bb6:	0f 85 dc 01 00 00    	jne    3d98 <bfd_seek@plt+0x1168>
    3bbc:	48 8d 15 fd 75 00 00 	lea    0x75fd(%rip),%rdx        # b1c0 <bfd_seek@plt+0x8590>
    3bc3:	44 0f be 24 02       	movsbl (%rdx,%rax,1),%r12d
    3bc8:	44 89 e0             	mov    %r12d,%eax
    3bcb:	f7 d8                	neg    %eax
    3bcd:	45 85 e4             	test   %r12d,%r12d
    3bd0:	7e 2e                	jle    3c00 <bfd_seek@plt+0xfd0>
    3bd2:	8b 44 24 0c          	mov    0xc(%rsp),%eax
    3bd6:	48 89 ee             	mov    %rbp,%rsi
    3bd9:	c7 05 b1 d7 00 00 fe 	movl   $0xfffffffe,0xd7b1(%rip)        # 11394 <stderr@@GLIBC_2.2.5+0x234>
    3be0:	ff ff ff 
    3be3:	83 f8 01             	cmp    $0x1,%eax
    3be6:	83 d0 ff             	adc    $0xffffffff,%eax
    3be9:	49 83 c6 08          	add    $0x8,%r14
    3bed:	89 44 24 0c          	mov    %eax,0xc(%rsp)
    3bf1:	48 8b 05 a0 d7 00 00 	mov    0xd7a0(%rip),%rax        # 11398 <stderr@@GLIBC_2.2.5+0x238>
    3bf8:	49 89 06             	mov    %rax,(%r14)
    3bfb:	e9 a9 00 00 00       	jmpq   3ca9 <bfd_seek@plt+0x1079>
    3c00:	4c 63 e0             	movslq %eax,%r12
    3c03:	48 8d 3d f6 74 00 00 	lea    0x74f6(%rip),%rdi        # b100 <bfd_seek@plt+0x84d0>
    3c0a:	ba 01 00 00 00       	mov    $0x1,%edx
    3c0f:	42 0f b6 34 27       	movzbl (%rdi,%r12,1),%esi
    3c14:	29 f2                	sub    %esi,%edx
    3c16:	49 89 f5             	mov    %rsi,%r13
    3c19:	48 63 d2             	movslq %edx,%rdx
    3c1c:	4d 8b 0c d6          	mov    (%r14,%rdx,8),%r9
    3c20:	83 f8 2a             	cmp    $0x2a,%eax
    3c23:	77 1b                	ja     3c40 <bfd_seek@plt+0x1010>
    3c25:	48 8d 15 14 74 00 00 	lea    0x7414(%rip),%rdx        # b040 <bfd_seek@plt+0x8410>
    3c2c:	89 c0                	mov    %eax,%eax
    3c2e:	48 63 04 82          	movslq (%rdx,%rax,4),%rax
    3c32:	48 01 d0             	add    %rdx,%rax
    3c35:	3e ff e0             	notrack jmpq *%rax
    3c38:	45 31 c9             	xor    %r9d,%r9d
    3c3b:	0f 1f 44 00 00       	nopl   0x0(%rax,%rax,1)
    3c40:	4a 8d 04 ed 00 00 00 	lea    0x0(,%r13,8),%rax
    3c47:	00 
    3c48:	48 89 ee             	mov    %rbp,%rsi
    3c4b:	4d 01 ed             	add    %r13,%r13
    3c4e:	49 29 c6             	sub    %rax,%r14
    3c51:	4c 29 ee             	sub    %r13,%rsi
    3c54:	48 8d 15 b5 75 00 00 	lea    0x75b5(%rip),%rdx        # b210 <bfd_seek@plt+0x85e0>
    3c5b:	4c 89 f0             	mov    %r14,%rax
    3c5e:	0f bf 3e             	movswl (%rsi),%edi
    3c61:	4d 8d 76 08          	lea    0x8(%r14),%r14
    3c65:	4c 89 48 08          	mov    %r9,0x8(%rax)
    3c69:	48 8d 05 d0 74 00 00 	lea    0x74d0(%rip),%rax        # b140 <bfd_seek@plt+0x8510>
    3c70:	42 0f b6 04 20       	movzbl (%rax,%r12,1),%eax
    3c75:	83 e8 18             	sub    $0x18,%eax
    3c78:	48 98                	cltq   
    3c7a:	0f be 14 02          	movsbl (%rdx,%rax,1),%edx
    3c7e:	01 fa                	add    %edi,%edx
    3c80:	83 fa 22             	cmp    $0x22,%edx
    3c83:	77 18                	ja     3c9d <bfd_seek@plt+0x106d>
    3c85:	48 63 d2             	movslq %edx,%rdx
    3c88:	4c 8d 05 f1 74 00 00 	lea    0x74f1(%rip),%r8        # b180 <bfd_seek@plt+0x8550>
    3c8f:	45 0f b6 0c 10       	movzbl (%r8,%rdx,1),%r9d
    3c94:	44 39 cf             	cmp    %r9d,%edi
    3c97:	0f 84 73 02 00 00    	je     3f10 <bfd_seek@plt+0x12e0>
    3c9d:	48 8d 15 4c 75 00 00 	lea    0x754c(%rip),%rdx        # b1f0 <bfd_seek@plt+0x85c0>
    3ca4:	44 0f be 24 02       	movsbl (%rdx,%rax,1),%r12d
    3ca9:	48 8d 04 1b          	lea    (%rbx,%rbx,1),%rax
    3cad:	48 8d 6e 02          	lea    0x2(%rsi),%rbp
    3cb1:	66 44 89 66 02       	mov    %r12w,0x2(%rsi)
    3cb6:	49 8d 54 07 fe       	lea    -0x2(%r15,%rax,1),%rdx
    3cbb:	48 39 d5             	cmp    %rdx,%rbp
    3cbe:	0f 82 bc 00 00 00    	jb     3d80 <bfd_seek@plt+0x1150>
    3cc4:	4c 29 fd             	sub    %r15,%rbp
    3cc7:	49 89 ed             	mov    %rbp,%r13
    3cca:	49 d1 fd             	sar    %r13
    3ccd:	4d 8d 75 01          	lea    0x1(%r13),%r14
    3cd1:	48 81 fb 0f 27 00 00 	cmp    $0x270f,%rbx
    3cd8:	0f 87 38 04 00 00    	ja     4116 <bfd_seek@plt+0x14e6>
    3cde:	48 3d 10 27 00 00    	cmp    $0x2710,%rax
    3ce4:	bb 10 27 00 00       	mov    $0x2710,%ebx
    3ce9:	48 0f 46 d8          	cmovbe %rax,%rbx
    3ced:	48 8d 04 9b          	lea    (%rbx,%rbx,4),%rax
    3cf1:	48 8d 7c 00 07       	lea    0x7(%rax,%rax,1),%rdi
    3cf6:	e8 25 ed ff ff       	callq  2a20 <malloc@plt>
    3cfb:	49 89 c5             	mov    %rax,%r13
    3cfe:	48 85 c0             	test   %rax,%rax
    3d01:	0f 84 0f 04 00 00    	je     4116 <bfd_seek@plt+0x14e6>
    3d07:	48 8d 55 02          	lea    0x2(%rbp),%rdx
    3d0b:	4c 89 fe             	mov    %r15,%rsi
    3d0e:	48 89 c7             	mov    %rax,%rdi
    3d11:	49 c1 e6 03          	shl    $0x3,%r14
    3d15:	e8 a6 ec ff ff       	callq  29c0 <memcpy@plt>
    3d1a:	48 8b 34 24          	mov    (%rsp),%rsi
    3d1e:	48 8d 04 1b          	lea    (%rbx,%rbx,1),%rax
    3d22:	4c 89 f2             	mov    %r14,%rdx
    3d25:	4d 8d 54 5d 00       	lea    0x0(%r13,%rbx,2),%r10
    3d2a:	48 89 44 24 18       	mov    %rax,0x18(%rsp)
    3d2f:	4c 89 d7             	mov    %r10,%rdi
    3d32:	e8 89 ec ff ff       	callq  29c0 <memcpy@plt>
    3d37:	4c 3b 7c 24 10       	cmp    0x10(%rsp),%r15
    3d3c:	48 8d 0d 3d 75 00 00 	lea    0x753d(%rip),%rcx        # b280 <bfd_seek@plt+0x8650>
    3d43:	49 89 c2             	mov    %rax,%r10
    3d46:	74 17                	je     3d5f <bfd_seek@plt+0x112f>
    3d48:	4c 89 ff             	mov    %r15,%rdi
    3d4b:	48 89 04 24          	mov    %rax,(%rsp)
    3d4f:	e8 1c e9 ff ff       	callq  2670 <free@plt>
    3d54:	4c 8b 14 24          	mov    (%rsp),%r10
    3d58:	48 8d 0d 21 75 00 00 	lea    0x7521(%rip),%rcx        # b280 <bfd_seek@plt+0x8650>
    3d5f:	48 8d 04 1b          	lea    (%rbx,%rbx,1),%rax
    3d63:	4c 01 ed             	add    %r13,%rbp
    3d66:	4f 8d 74 32 f8       	lea    -0x8(%r10,%r14,1),%r14
    3d6b:	49 8d 44 05 fe       	lea    -0x2(%r13,%rax,1),%rax
    3d70:	48 39 c5             	cmp    %rax,%rbp
    3d73:	0f 83 b0 03 00 00    	jae    4129 <bfd_seek@plt+0x14f9>
    3d79:	4c 89 14 24          	mov    %r10,(%rsp)
    3d7d:	4d 89 ef             	mov    %r13,%r15
    3d80:	41 83 fc 03          	cmp    $0x3,%r12d
    3d84:	0f 85 d2 fd ff ff    	jne    3b5c <bfd_seek@plt+0xf2c>
    3d8a:	4c 89 fd             	mov    %r15,%rbp
    3d8d:	45 31 e4             	xor    %r12d,%r12d
    3d90:	e9 b1 00 00 00       	jmpq   3e46 <bfd_seek@plt+0x1216>
    3d95:	0f 1f 00             	nopl   (%rax)
    3d98:	48 8d 05 a1 74 00 00 	lea    0x74a1(%rip),%rax        # b240 <bfd_seek@plt+0x8610>
    3d9f:	0f b6 04 10          	movzbl (%rax,%rdx,1),%eax
    3da3:	85 c0                	test   %eax,%eax
    3da5:	0f 85 55 fe ff ff    	jne    3c00 <bfd_seek@plt+0xfd0>
    3dab:	8b 74 24 0c          	mov    0xc(%rsp),%esi
    3daf:	85 f6                	test   %esi,%esi
    3db1:	0f 84 41 01 00 00    	je     3ef8 <bfd_seek@plt+0x12c8>
    3db7:	83 7c 24 0c 03       	cmpl   $0x3,0xc(%rsp)
    3dbc:	75 14                	jne    3dd2 <bfd_seek@plt+0x11a2>
    3dbe:	8b 05 d0 d5 00 00    	mov    0xd5d0(%rip),%eax        # 11394 <stderr@@GLIBC_2.2.5+0x234>
    3dc4:	85 c0                	test   %eax,%eax
    3dc6:	0f 8f f4 00 00 00    	jg     3ec0 <bfd_seek@plt+0x1290>
    3dcc:	0f 84 36 03 00 00    	je     4108 <bfd_seek@plt+0x14d8>
    3dd2:	48 8d 15 e7 73 00 00 	lea    0x73e7(%rip),%rdx        # b1c0 <bfd_seek@plt+0x8590>
    3dd9:	eb 1c                	jmp    3df7 <bfd_seek@plt+0x11c7>
    3ddb:	0f 1f 44 00 00       	nopl   0x0(%rax,%rax,1)
    3de0:	4c 39 fd             	cmp    %r15,%rbp
    3de3:	74 5b                	je     3e40 <bfd_seek@plt+0x1210>
    3de5:	48 0f bf 45 fe       	movswq -0x2(%rbp),%rax
    3dea:	48 83 ed 02          	sub    $0x2,%rbp
    3dee:	49 83 ee 08          	sub    $0x8,%r14
    3df2:	44 0f be 2c 01       	movsbl (%rcx,%rax,1),%r13d
    3df7:	41 83 fd f2          	cmp    $0xfffffff2,%r13d
    3dfb:	74 e3                	je     3de0 <bfd_seek@plt+0x11b0>
    3dfd:	41 83 c5 01          	add    $0x1,%r13d
    3e01:	41 83 fd 22          	cmp    $0x22,%r13d
    3e05:	77 d9                	ja     3de0 <bfd_seek@plt+0x11b0>
    3e07:	4d 63 ed             	movslq %r13d,%r13
    3e0a:	48 8d 05 6f 73 00 00 	lea    0x736f(%rip),%rax        # b180 <bfd_seek@plt+0x8550>
    3e11:	42 80 3c 28 01       	cmpb   $0x1,(%rax,%r13,1)
    3e16:	75 c8                	jne    3de0 <bfd_seek@plt+0x11b0>
    3e18:	46 0f be 24 2a       	movsbl (%rdx,%r13,1),%r12d
    3e1d:	45 85 e4             	test   %r12d,%r12d
    3e20:	7e be                	jle    3de0 <bfd_seek@plt+0x11b0>
    3e22:	48 8b 05 6f d5 00 00 	mov    0xd56f(%rip),%rax        # 11398 <stderr@@GLIBC_2.2.5+0x238>
    3e29:	c7 44 24 0c 03 00 00 	movl   $0x3,0xc(%rsp)
    3e30:	00 
    3e31:	49 83 c6 08          	add    $0x8,%r14
    3e35:	48 89 ee             	mov    %rbp,%rsi
    3e38:	49 89 06             	mov    %rax,(%r14)
    3e3b:	e9 69 fe ff ff       	jmpq   3ca9 <bfd_seek@plt+0x1079>
    3e40:	41 bc 01 00 00 00    	mov    $0x1,%r12d
    3e46:	48 3b 6c 24 10       	cmp    0x10(%rsp),%rbp
    3e4b:	74 08                	je     3e55 <bfd_seek@plt+0x1225>
    3e4d:	48 89 ef             	mov    %rbp,%rdi
    3e50:	e8 1b e8 ff ff       	callq  2670 <free@plt>
    3e55:	48 8b 84 24 f8 07 00 	mov    0x7f8(%rsp),%rax
    3e5c:	00 
    3e5d:	64 48 33 04 25 28 00 	xor    %fs:0x28,%rax
    3e64:	00 00 
    3e66:	0f 85 cb 02 00 00    	jne    4137 <bfd_seek@plt+0x1507>
    3e6c:	48 81 c4 08 08 00 00 	add    $0x808,%rsp
    3e73:	44 89 e0             	mov    %r12d,%eax
    3e76:	5b                   	pop    %rbx
    3e77:	5d                   	pop    %rbp
    3e78:	41 5c                	pop    %r12
    3e7a:	41 5d                	pop    %r13
    3e7c:	41 5e                	pop    %r14
    3e7e:	41 5f                	pop    %r15
    3e80:	c3                   	retq   
    3e81:	0f 1f 80 00 00 00 00 	nopl   0x0(%rax)
    3e88:	c7 05 02 d5 00 00 00 	movl   $0x0,0xd502(%rip)        # 11394 <stderr@@GLIBC_2.2.5+0x234>
    3e8f:	00 00 00 
    3e92:	31 f6                	xor    %esi,%esi
    3e94:	e9 03 fd ff ff       	jmpq   3b9c <bfd_seek@plt+0xf6c>
    3e99:	0f 1f 80 00 00 00 00 	nopl   0x0(%rax)
    3ea0:	48 98                	cltq   
    3ea2:	48 8d 35 17 74 00 00 	lea    0x7417(%rip),%rsi        # b2c0 <bfd_seek@plt+0x8690>
    3ea9:	0f b6 34 06          	movzbl (%rsi,%rax,1),%esi
    3ead:	45 8d 64 35 00       	lea    0x0(%r13,%rsi,1),%r12d
    3eb2:	e9 e5 fc ff ff       	jmpq   3b9c <bfd_seek@plt+0xf6c>
    3eb7:	66 0f 1f 84 00 00 00 	nopw   0x0(%rax,%rax,1)
    3ebe:	00 00 
    3ec0:	c7 05 ca d4 00 00 fe 	movl   $0xfffffffe,0xd4ca(%rip)        # 11394 <stderr@@GLIBC_2.2.5+0x234>
    3ec7:	ff ff ff 
    3eca:	e9 03 ff ff ff       	jmpq   3dd2 <bfd_seek@plt+0x11a2>
    3ecf:	90                   	nop
    3ed0:	48 89 54 24 18       	mov    %rdx,0x18(%rsp)
    3ed5:	e8 b6 07 00 00       	callq  4690 <bfd_seek@plt+0x1a60>
    3eda:	48 8b 54 24 18       	mov    0x18(%rsp),%rdx
    3edf:	48 8d 0d 9a 73 00 00 	lea    0x739a(%rip),%rcx        # b280 <bfd_seek@plt+0x8650>
    3ee6:	89 05 a8 d4 00 00    	mov    %eax,0xd4a8(%rip)        # 11394 <stderr@@GLIBC_2.2.5+0x234>
    3eec:	e9 8f fc ff ff       	jmpq   3b80 <bfd_seek@plt+0xf50>
    3ef1:	0f 1f 80 00 00 00 00 	nopl   0x0(%rax)
    3ef8:	83 05 91 d4 00 00 01 	addl   $0x1,0xd491(%rip)        # 11390 <stderr@@GLIBC_2.2.5+0x230>
    3eff:	e8 9c fb ff ff       	callq  3aa0 <bfd_seek@plt+0xe70>
    3f04:	48 8d 0d 75 73 00 00 	lea    0x7375(%rip),%rcx        # b280 <bfd_seek@plt+0x8650>
    3f0b:	e9 c2 fe ff ff       	jmpq   3dd2 <bfd_seek@plt+0x11a2>
    3f10:	48 8d 05 a9 72 00 00 	lea    0x72a9(%rip),%rax        # b1c0 <bfd_seek@plt+0x8590>
    3f17:	44 0f be 24 10       	movsbl (%rax,%rdx,1),%r12d
    3f1c:	e9 88 fd ff ff       	jmpq   3ca9 <bfd_seek@plt+0x1079>
    3f21:	4c 89 4c 24 18       	mov    %r9,0x18(%rsp)
    3f26:	e8 05 30 00 00       	callq  6f30 <bfd_seek@plt+0x4300>
    3f2b:	4c 8b 4c 24 18       	mov    0x18(%rsp),%r9
    3f30:	48 8d 0d 49 73 00 00 	lea    0x7349(%rip),%rcx        # b280 <bfd_seek@plt+0x8650>
    3f37:	e9 04 fd ff ff       	jmpq   3c40 <bfd_seek@plt+0x1010>
    3f3c:	8b 15 ae d2 00 00    	mov    0xd2ae(%rip),%edx        # 111f0 <stderr@@GLIBC_2.2.5+0x90>
    3f42:	31 c0                	xor    %eax,%eax
    3f44:	85 d2                	test   %edx,%edx
    3f46:	0f 94 c0             	sete   %al
    3f49:	89 05 a1 d2 00 00    	mov    %eax,0xd2a1(%rip)        # 111f0 <stderr@@GLIBC_2.2.5+0x90>
    3f4f:	e9 ec fc ff ff       	jmpq   3c40 <bfd_seek@plt+0x1010>
    3f54:	4d 8b 4e f8          	mov    -0x8(%r14),%r9
    3f58:	e9 e3 fc ff ff       	jmpq   3c40 <bfd_seek@plt+0x1010>
    3f5d:	e8 3e 39 00 00       	callq  78a0 <bfd_seek@plt+0x4c70>
    3f62:	45 31 e4             	xor    %r12d,%r12d
    3f65:	e9 eb fe ff ff       	jmpq   3e55 <bfd_seek@plt+0x1225>
    3f6a:	4c 89 4c 24 18       	mov    %r9,0x18(%rsp)
    3f6f:	e8 2c fb ff ff       	callq  3aa0 <bfd_seek@plt+0xe70>
    3f74:	4c 8b 4c 24 18       	mov    0x18(%rsp),%r9
    3f79:	48 8d 0d 00 73 00 00 	lea    0x7300(%rip),%rcx        # b280 <bfd_seek@plt+0x8650>
    3f80:	e9 bb fc ff ff       	jmpq   3c40 <bfd_seek@plt+0x1010>
    3f85:	49 8b 3e             	mov    (%r14),%rdi
    3f88:	4c 89 4c 24 18       	mov    %r9,0x18(%rsp)
    3f8d:	e8 4e 39 00 00       	callq  78e0 <bfd_seek@plt+0x4cb0>
    3f92:	4c 8b 4c 24 18       	mov    0x18(%rsp),%r9
    3f97:	48 8d 0d e2 72 00 00 	lea    0x72e2(%rip),%rcx        # b280 <bfd_seek@plt+0x8650>
    3f9e:	e9 9d fc ff ff       	jmpq   3c40 <bfd_seek@plt+0x1010>
    3fa3:	49 8b 3e             	mov    (%r14),%rdi
    3fa6:	4c 89 4c 24 18       	mov    %r9,0x18(%rsp)
    3fab:	e8 d0 35 00 00       	callq  7580 <bfd_seek@plt+0x4950>
    3fb0:	4c 8b 4c 24 18       	mov    0x18(%rsp),%r9
    3fb5:	48 8d 0d c4 72 00 00 	lea    0x72c4(%rip),%rcx        # b280 <bfd_seek@plt+0x8650>
    3fbc:	e9 7f fc ff ff       	jmpq   3c40 <bfd_seek@plt+0x1010>
    3fc1:	4c 89 4c 24 18       	mov    %r9,0x18(%rsp)
    3fc6:	e8 85 33 00 00       	callq  7350 <bfd_seek@plt+0x4720>
    3fcb:	4c 8b 4c 24 18       	mov    0x18(%rsp),%r9
    3fd0:	48 8d 0d a9 72 00 00 	lea    0x72a9(%rip),%rcx        # b280 <bfd_seek@plt+0x8650>
    3fd7:	e9 64 fc ff ff       	jmpq   3c40 <bfd_seek@plt+0x1010>
    3fdc:	49 8b 3e             	mov    (%r14),%rdi
    3fdf:	4c 89 4c 24 18       	mov    %r9,0x18(%rsp)
    3fe4:	e8 87 33 00 00       	callq  7370 <bfd_seek@plt+0x4740>
    3fe9:	4c 8b 4c 24 18       	mov    0x18(%rsp),%r9
    3fee:	48 8d 0d 8b 72 00 00 	lea    0x728b(%rip),%rcx        # b280 <bfd_seek@plt+0x8650>
    3ff5:	e9 46 fc ff ff       	jmpq   3c40 <bfd_seek@plt+0x1010>
    3ffa:	49 8b 3e             	mov    (%r14),%rdi
    3ffd:	4c 89 4c 24 18       	mov    %r9,0x18(%rsp)
    4002:	e8 39 32 00 00       	callq  7240 <bfd_seek@plt+0x4610>
    4007:	4c 8b 4c 24 18       	mov    0x18(%rsp),%r9
    400c:	48 8d 0d 6d 72 00 00 	lea    0x726d(%rip),%rcx        # b280 <bfd_seek@plt+0x8650>
    4013:	e9 28 fc ff ff       	jmpq   3c40 <bfd_seek@plt+0x1010>
    4018:	4c 89 4c 24 18       	mov    %r9,0x18(%rsp)
    401d:	e8 8e 37 00 00       	callq  77b0 <bfd_seek@plt+0x4b80>
    4022:	4c 8b 4c 24 18       	mov    0x18(%rsp),%r9
    4027:	48 8d 0d 52 72 00 00 	lea    0x7252(%rip),%rcx        # b280 <bfd_seek@plt+0x8650>
    402e:	e9 0d fc ff ff       	jmpq   3c40 <bfd_seek@plt+0x1010>
    4033:	4c 89 4c 24 18       	mov    %r9,0x18(%rsp)
    4038:	e8 83 34 00 00       	callq  74c0 <bfd_seek@plt+0x4890>
    403d:	4c 8b 4c 24 18       	mov    0x18(%rsp),%r9
    4042:	48 8d 0d 37 72 00 00 	lea    0x7237(%rip),%rcx        # b280 <bfd_seek@plt+0x8650>
    4049:	e9 f2 fb ff ff       	jmpq   3c40 <bfd_seek@plt+0x1010>
    404e:	49 8b 3e             	mov    (%r14),%rdi
    4051:	31 f6                	xor    %esi,%esi
    4053:	4c 89 4c 24 18       	mov    %r9,0x18(%rsp)
    4058:	e8 33 2f 00 00       	callq  6f90 <bfd_seek@plt+0x4360>
    405d:	4c 8b 4c 24 18       	mov    0x18(%rsp),%r9
    4062:	48 8d 0d 17 72 00 00 	lea    0x7217(%rip),%rcx        # b280 <bfd_seek@plt+0x8650>
    4069:	e9 d2 fb ff ff       	jmpq   3c40 <bfd_seek@plt+0x1010>
    406e:	49 8b 3e             	mov    (%r14),%rdi
    4071:	be 01 00 00 00       	mov    $0x1,%esi
    4076:	4c 89 4c 24 18       	mov    %r9,0x18(%rsp)
    407b:	e8 10 2f 00 00       	callq  6f90 <bfd_seek@plt+0x4360>
    4080:	4c 8b 4c 24 18       	mov    0x18(%rsp),%r9
    4085:	48 8d 0d f4 71 00 00 	lea    0x71f4(%rip),%rcx        # b280 <bfd_seek@plt+0x8650>
    408c:	e9 af fb ff ff       	jmpq   3c40 <bfd_seek@plt+0x1010>
    4091:	49 8b 7e f8          	mov    -0x8(%r14),%rdi
    4095:	49 8b 36             	mov    (%r14),%rsi
    4098:	4c 89 4c 24 18       	mov    %r9,0x18(%rsp)
    409d:	e8 de 30 00 00       	callq  7180 <bfd_seek@plt+0x4550>
    40a2:	4c 8b 4c 24 18       	mov    0x18(%rsp),%r9
    40a7:	48 8d 0d d2 71 00 00 	lea    0x71d2(%rip),%rcx        # b280 <bfd_seek@plt+0x8650>
    40ae:	e9 8d fb ff ff       	jmpq   3c40 <bfd_seek@plt+0x1010>
    40b3:	49 8b 76 f8          	mov    -0x8(%r14),%rsi
    40b7:	49 8b 7e f0          	mov    -0x10(%r14),%rdi
    40bb:	4c 89 4c 24 18       	mov    %r9,0x18(%rsp)
    40c0:	49 8b 16             	mov    (%r14),%rdx
    40c3:	e8 48 2d 00 00       	callq  6e10 <bfd_seek@plt+0x41e0>
    40c8:	4c 8b 4c 24 18       	mov    0x18(%rsp),%r9
    40cd:	48 8d 0d ac 71 00 00 	lea    0x71ac(%rip),%rcx        # b280 <bfd_seek@plt+0x8650>
    40d4:	e9 67 fb ff ff       	jmpq   3c40 <bfd_seek@plt+0x1010>
    40d9:	4d 8b 0e             	mov    (%r14),%r9
    40dc:	e9 5f fb ff ff       	jmpq   3c40 <bfd_seek@plt+0x1010>
    40e1:	bf 10 00 00 00       	mov    $0x10,%edi
    40e6:	e8 35 e9 ff ff       	callq  2a20 <malloc@plt>
    40eb:	48 8d 0d 8e 71 00 00 	lea    0x718e(%rip),%rcx        # b280 <bfd_seek@plt+0x8650>
    40f2:	49 89 c1             	mov    %rax,%r9
    40f5:	49 8b 46 f0          	mov    -0x10(%r14),%rax
    40f9:	49 89 41 08          	mov    %rax,0x8(%r9)
    40fd:	49 8b 06             	mov    (%r14),%rax
    4100:	49 89 01             	mov    %rax,(%r9)
    4103:	e9 38 fb ff ff       	jmpq   3c40 <bfd_seek@plt+0x1010>
    4108:	4c 89 fd             	mov    %r15,%rbp
    410b:	41 bc 01 00 00 00    	mov    $0x1,%r12d
    4111:	e9 30 fd ff ff       	jmpq   3e46 <bfd_seek@plt+0x1216>
    4116:	e8 85 f9 ff ff       	callq  3aa0 <bfd_seek@plt+0xe70>
    411b:	4c 89 fd             	mov    %r15,%rbp
    411e:	41 bc 02 00 00 00    	mov    $0x2,%r12d
    4124:	e9 1d fd ff ff       	jmpq   3e46 <bfd_seek@plt+0x1216>
    4129:	4c 89 ed             	mov    %r13,%rbp
    412c:	41 bc 01 00 00 00    	mov    $0x1,%r12d
    4132:	e9 16 fd ff ff       	jmpq   3e4d <bfd_seek@plt+0x121d>
    4137:	e8 c4 e6 ff ff       	callq  2800 <__stack_chk_fail@plt>
    413c:	0f 1f 40 00          	nopl   0x0(%rax)
    4140:	48 8b 05 59 d0 00 00 	mov    0xd059(%rip),%rax        # 111a0 <stderr@@GLIBC_2.2.5+0x40>
    4147:	4c 8b 15 52 d2 00 00 	mov    0xd252(%rip),%r10        # 113a0 <stderr@@GLIBC_2.2.5+0x240>
    414e:	41 57                	push   %r15
    4150:	41 56                	push   %r14
    4152:	44 8b 1d 3b d0 00 00 	mov    0xd03b(%rip),%r11d        # 11194 <stderr@@GLIBC_2.2.5+0x34>
    4159:	41 55                	push   %r13
    415b:	41 54                	push   %r12
    415d:	55                   	push   %rbp
    415e:	53                   	push   %rbx
    415f:	48 89 44 24 f8       	mov    %rax,-0x8(%rsp)
    4164:	49 39 c2             	cmp    %rax,%r10
    4167:	0f 83 e2 00 00 00    	jae    424f <bfd_seek@plt+0x161f>
    416d:	44 8b 35 1c d0 00 00 	mov    0xd01c(%rip),%r14d        # 11190 <stderr@@GLIBC_2.2.5+0x30>
    4174:	45 31 e4             	xor    %r12d,%r12d
    4177:	4c 8b 2d 0a d0 00 00 	mov    0xd00a(%rip),%r13        # 11188 <stderr@@GLIBC_2.2.5+0x28>
    417e:	48 8d 2d 3b 7d 00 00 	lea    0x7d3b(%rip),%rbp        # bec0 <bfd_seek@plt+0x9290>
    4185:	4c 8d 05 74 7a 00 00 	lea    0x7a74(%rip),%r8        # bc00 <bfd_seek@plt+0x8fd0>
    418c:	48 8d 3d ed 74 00 00 	lea    0x74ed(%rip),%rdi        # b680 <bfd_seek@plt+0x8a50>
    4193:	44 89 da             	mov    %r11d,%edx
    4196:	4c 8d 0d e3 78 00 00 	lea    0x78e3(%rip),%r9        # ba80 <bfd_seek@plt+0x8e50>
    419d:	48 8d 1d dc 7b 00 00 	lea    0x7bdc(%rip),%rbx        # bd80 <bfd_seek@plt+0x9150>
    41a4:	0f 1f 40 00          	nopl   0x0(%rax)
    41a8:	41 0f b6 02          	movzbl (%r10),%eax
    41ac:	84 c0                	test   %al,%al
    41ae:	0f 84 ac 00 00 00    	je     4260 <bfd_seek@plt+0x1630>
    41b4:	48 8d 35 05 7c 00 00 	lea    0x7c05(%rip),%rsi        # bdc0 <bfd_seek@plt+0x9190>
    41bb:	0f b6 0c 06          	movzbl (%rsi,%rax,1),%ecx
    41bf:	89 ce                	mov    %ecx,%esi
    41c1:	48 63 d2             	movslq %edx,%rdx
    41c4:	b8 01 00 00 00       	mov    $0x1,%eax
    41c9:	66 83 7c 55 00 00    	cmpw   $0x0,0x0(%rbp,%rdx,2)
    41cf:	44 0f 45 e0          	cmovne %eax,%r12d
    41d3:	41 0f bf 04 50       	movswl (%r8,%rdx,2),%eax
    41d8:	4d 0f 45 ea          	cmovne %r10,%r13
    41dc:	44 0f 45 f2          	cmovne %edx,%r14d
    41e0:	01 c8                	add    %ecx,%eax
    41e2:	48 98                	cltq   
    41e4:	44 0f bf 3c 47       	movswl (%rdi,%rax,2),%r15d
    41e9:	41 39 d7             	cmp    %edx,%r15d
    41ec:	74 2f                	je     421d <bfd_seek@plt+0x15ed>
    41ee:	66 90                	xchg   %ax,%ax
    41f0:	41 0f bf 14 51       	movswl (%r9,%rdx,2),%edx
    41f5:	41 89 d3             	mov    %edx,%r11d
    41f8:	66 81 fa b0 00       	cmp    $0xb0,%dx
    41fd:	7e 07                	jle    4206 <bfd_seek@plt+0x15d6>
    41ff:	48 63 c9             	movslq %ecx,%rcx
    4202:	0f b6 34 0b          	movzbl (%rbx,%rcx,1),%esi
    4206:	48 63 d2             	movslq %edx,%rdx
    4209:	40 0f b6 ce          	movzbl %sil,%ecx
    420d:	41 0f bf 04 50       	movswl (%r8,%rdx,2),%eax
    4212:	01 c8                	add    %ecx,%eax
    4214:	48 98                	cltq   
    4216:	66 44 3b 1c 47       	cmp    (%rdi,%rax,2),%r11w
    421b:	75 d3                	jne    41f0 <bfd_seek@plt+0x15c0>
    421d:	48 8d 35 5c 76 00 00 	lea    0x765c(%rip),%rsi        # b880 <bfd_seek@plt+0x8c50>
    4224:	49 83 c2 01          	add    $0x1,%r10
    4228:	0f bf 04 46          	movswl (%rsi,%rax,2),%eax
    422c:	89 c2                	mov    %eax,%edx
    422e:	4c 3b 54 24 f8       	cmp    -0x8(%rsp),%r10
    4233:	0f 85 6f ff ff ff    	jne    41a8 <bfd_seek@plt+0x1578>
    4239:	41 89 c3             	mov    %eax,%r11d
    423c:	45 84 e4             	test   %r12b,%r12b
    423f:	74 0e                	je     424f <bfd_seek@plt+0x161f>
    4241:	44 89 35 48 cf 00 00 	mov    %r14d,0xcf48(%rip)        # 11190 <stderr@@GLIBC_2.2.5+0x30>
    4248:	4c 89 2d 39 cf 00 00 	mov    %r13,0xcf39(%rip)        # 11188 <stderr@@GLIBC_2.2.5+0x28>
    424f:	5b                   	pop    %rbx
    4250:	44 89 d8             	mov    %r11d,%eax
    4253:	5d                   	pop    %rbp
    4254:	41 5c                	pop    %r12
    4256:	41 5d                	pop    %r13
    4258:	41 5e                	pop    %r14
    425a:	41 5f                	pop    %r15
    425c:	c3                   	retq   
    425d:	0f 1f 00             	nopl   (%rax)
    4260:	b9 01 00 00 00       	mov    $0x1,%ecx
    4265:	be 01 00 00 00       	mov    $0x1,%esi
    426a:	e9 52 ff ff ff       	jmpq   41c1 <bfd_seek@plt+0x1591>
    426f:	90                   	nop
    4270:	50                   	push   %rax
    4271:	58                   	pop    %rax
    4272:	48 8d 15 73 92 00 00 	lea    0x9273(%rip),%rdx        # d4ec <bfd_seek@plt+0xa8bc>
    4279:	be 01 00 00 00       	mov    $0x1,%esi
    427e:	31 c0                	xor    %eax,%eax
    4280:	48 83 ec 08          	sub    $0x8,%rsp
    4284:	48 89 f9             	mov    %rdi,%rcx
    4287:	48 8b 3d d2 ce 00 00 	mov    0xced2(%rip),%rdi        # 11160 <stderr@@GLIBC_2.2.5>
    428e:	e8 2d e9 ff ff       	callq  2bc0 <__fprintf_chk@plt>
    4293:	bf 02 00 00 00       	mov    $0x2,%edi
    4298:	e8 03 e9 ff ff       	callq  2ba0 <exit@plt>
    429d:	0f 1f 00             	nopl   (%rax)
    42a0:	55                   	push   %rbp
    42a1:	53                   	push   %rbx
    42a2:	48 83 ec 08          	sub    $0x8,%rsp
    42a6:	48 8b 3d 03 cf 00 00 	mov    0xcf03(%rip),%rdi        # 111b0 <stderr@@GLIBC_2.2.5+0x50>
    42ad:	48 85 ff             	test   %rdi,%rdi
    42b0:	74 6e                	je     4320 <bfd_seek@plt+0x16f0>
    42b2:	48 8b 05 ff ce 00 00 	mov    0xceff(%rip),%rax        # 111b8 <stderr@@GLIBC_2.2.5+0x58>
    42b9:	48 8d 50 ff          	lea    -0x1(%rax),%rdx
    42bd:	48 3b 15 fc ce 00 00 	cmp    0xcefc(%rip),%rdx        # 111c0 <stderr@@GLIBC_2.2.5+0x60>
    42c4:	76 0a                	jbe    42d0 <bfd_seek@plt+0x16a0>
    42c6:	48 83 c4 08          	add    $0x8,%rsp
    42ca:	5b                   	pop    %rbx
    42cb:	5d                   	pop    %rbp
    42cc:	c3                   	retq   
    42cd:	0f 1f 00             	nopl   (%rax)
    42d0:	48 8d 58 08          	lea    0x8(%rax),%rbx
    42d4:	48 8d 2c dd 00 00 00 	lea    0x0(,%rbx,8),%rbp
    42db:	00 
    42dc:	48 89 ee             	mov    %rbp,%rsi
    42df:	e8 ac e7 ff ff       	callq  2a90 <realloc@plt>
    42e4:	48 89 05 c5 ce 00 00 	mov    %rax,0xcec5(%rip)        # 111b0 <stderr@@GLIBC_2.2.5+0x50>
    42eb:	48 85 c0             	test   %rax,%rax
    42ee:	74 68                	je     4358 <bfd_seek@plt+0x1728>
    42f0:	48 8d 44 28 c0       	lea    -0x40(%rax,%rbp,1),%rax
    42f5:	66 0f ef c0          	pxor   %xmm0,%xmm0
    42f9:	48 89 1d b8 ce 00 00 	mov    %rbx,0xceb8(%rip)        # 111b8 <stderr@@GLIBC_2.2.5+0x58>
    4300:	0f 11 00             	movups %xmm0,(%rax)
    4303:	0f 11 40 10          	movups %xmm0,0x10(%rax)
    4307:	0f 11 40 20          	movups %xmm0,0x20(%rax)
    430b:	0f 11 40 30          	movups %xmm0,0x30(%rax)
    430f:	48 83 c4 08          	add    $0x8,%rsp
    4313:	5b                   	pop    %rbx
    4314:	5d                   	pop    %rbp
    4315:	c3                   	retq   
    4316:	66 2e 0f 1f 84 00 00 	nopw   %cs:0x0(%rax,%rax,1)
    431d:	00 00 00 
    4320:	be 01 00 00 00       	mov    $0x1,%esi
    4325:	bf 08 00 00 00       	mov    $0x8,%edi
    432a:	e8 11 e6 ff ff       	callq  2940 <calloc@plt>
    432f:	48 89 05 7a ce 00 00 	mov    %rax,0xce7a(%rip)        # 111b0 <stderr@@GLIBC_2.2.5+0x50>
    4336:	48 85 c0             	test   %rax,%rax
    4339:	74 1d                	je     4358 <bfd_seek@plt+0x1728>
    433b:	48 c7 05 72 ce 00 00 	movq   $0x1,0xce72(%rip)        # 111b8 <stderr@@GLIBC_2.2.5+0x58>
    4342:	01 00 00 00 
    4346:	48 c7 05 6f ce 00 00 	movq   $0x0,0xce6f(%rip)        # 111c0 <stderr@@GLIBC_2.2.5+0x60>
    434d:	00 00 00 00 
    4351:	48 83 c4 08          	add    $0x8,%rsp
    4355:	5b                   	pop    %rbx
    4356:	5d                   	pop    %rbp
    4357:	c3                   	retq   
    4358:	48 8d 3d b1 70 00 00 	lea    0x70b1(%rip),%rdi        # b410 <bfd_seek@plt+0x87e0>
    435f:	e8 0c ff ff ff       	callq  4270 <bfd_seek@plt+0x1640>
    4364:	66 66 2e 0f 1f 84 00 	data16 nopw %cs:0x0(%rax,%rax,1)
    436b:	00 00 00 00 
    436f:	90                   	nop
    4370:	f3 0f 1e fa          	endbr64 
    4374:	53                   	push   %rbx
    4375:	48 89 fb             	mov    %rdi,%rbx
    4378:	e8 23 ff ff ff       	callq  42a0 <bfd_seek@plt+0x1670>
    437d:	48 8b 05 2c ce 00 00 	mov    0xce2c(%rip),%rax        # 111b0 <stderr@@GLIBC_2.2.5+0x50>
    4384:	48 85 c0             	test   %rax,%rax
    4387:	74 6f                	je     43f8 <bfd_seek@plt+0x17c8>
    4389:	48 8b 15 30 ce 00 00 	mov    0xce30(%rip),%rdx        # 111c0 <stderr@@GLIBC_2.2.5+0x60>
    4390:	48 8d 04 d0          	lea    (%rax,%rdx,8),%rax
    4394:	48 8b 10             	mov    (%rax),%rdx
    4397:	48 39 da             	cmp    %rbx,%rdx
    439a:	74 56                	je     43f2 <bfd_seek@plt+0x17c2>
    439c:	48 85 d2             	test   %rdx,%rdx
    439f:	74 20                	je     43c1 <bfd_seek@plt+0x1791>
    43a1:	48 8b 0d f8 cd 00 00 	mov    0xcdf8(%rip),%rcx        # 111a0 <stderr@@GLIBC_2.2.5+0x40>
    43a8:	0f b6 15 fd cd 00 00 	movzbl 0xcdfd(%rip),%edx        # 111ac <stderr@@GLIBC_2.2.5+0x4c>
    43af:	88 11                	mov    %dl,(%rcx)
    43b1:	48 8b 10             	mov    (%rax),%rdx
    43b4:	48 89 4a 10          	mov    %rcx,0x10(%rdx)
    43b8:	8b 0d ea cd 00 00    	mov    0xcdea(%rip),%ecx        # 111a8 <stderr@@GLIBC_2.2.5+0x48>
    43be:	89 4a 1c             	mov    %ecx,0x1c(%rdx)
    43c1:	48 89 18             	mov    %rbx,(%rax)
    43c4:	8b 43 1c             	mov    0x1c(%rbx),%eax
    43c7:	48 8b 13             	mov    (%rbx),%rdx
    43ca:	89 05 d8 cd 00 00    	mov    %eax,0xcdd8(%rip)        # 111a8 <stderr@@GLIBC_2.2.5+0x48>
    43d0:	48 8b 43 10          	mov    0x10(%rbx),%rax
    43d4:	48 89 15 a5 cd 00 00 	mov    %rdx,0xcda5(%rip)        # 11180 <stderr@@GLIBC_2.2.5+0x20>
    43db:	48 89 05 be cd 00 00 	mov    %rax,0xcdbe(%rip)        # 111a0 <stderr@@GLIBC_2.2.5+0x40>
    43e2:	48 89 05 b7 cf 00 00 	mov    %rax,0xcfb7(%rip)        # 113a0 <stderr@@GLIBC_2.2.5+0x240>
    43e9:	0f b6 00             	movzbl (%rax),%eax
    43ec:	88 05 ba cd 00 00    	mov    %al,0xcdba(%rip)        # 111ac <stderr@@GLIBC_2.2.5+0x4c>
    43f2:	5b                   	pop    %rbx
    43f3:	c3                   	retq   
    43f4:	0f 1f 40 00          	nopl   0x0(%rax)
    43f8:	48 85 db             	test   %rbx,%rbx
    43fb:	74 f5                	je     43f2 <bfd_seek@plt+0x17c2>
    43fd:	48 8b 05 bc cd 00 00 	mov    0xcdbc(%rip),%rax        # 111c0 <stderr@@GLIBC_2.2.5+0x60>
    4404:	48 c1 e0 03          	shl    $0x3,%rax
    4408:	eb b7                	jmp    43c1 <bfd_seek@plt+0x1791>
    440a:	66 0f 1f 44 00 00    	nopw   0x0(%rax,%rax,1)
    4410:	f3 0f 1e fa          	endbr64 
    4414:	48 85 ff             	test   %rdi,%rdi
    4417:	74 57                	je     4470 <bfd_seek@plt+0x1840>
    4419:	48 8b 05 90 cd 00 00 	mov    0xcd90(%rip),%rax        # 111b0 <stderr@@GLIBC_2.2.5+0x50>
    4420:	55                   	push   %rbp
    4421:	48 89 fd             	mov    %rdi,%rbp
    4424:	48 85 c0             	test   %rax,%rax
    4427:	74 10                	je     4439 <bfd_seek@plt+0x1809>
    4429:	48 8b 15 90 cd 00 00 	mov    0xcd90(%rip),%rdx        # 111c0 <stderr@@GLIBC_2.2.5+0x60>
    4430:	48 8d 04 d0          	lea    (%rax,%rdx,8),%rax
    4434:	48 3b 38             	cmp    (%rax),%rdi
    4437:	74 17                	je     4450 <bfd_seek@plt+0x1820>
    4439:	8b 45 20             	mov    0x20(%rbp),%eax
    443c:	85 c0                	test   %eax,%eax
    443e:	75 1e                	jne    445e <bfd_seek@plt+0x182e>
    4440:	48 89 ef             	mov    %rbp,%rdi
    4443:	5d                   	pop    %rbp
    4444:	e9 27 e2 ff ff       	jmpq   2670 <free@plt>
    4449:	0f 1f 80 00 00 00 00 	nopl   0x0(%rax)
    4450:	48 c7 00 00 00 00 00 	movq   $0x0,(%rax)
    4457:	8b 45 20             	mov    0x20(%rbp),%eax
    445a:	85 c0                	test   %eax,%eax
    445c:	74 e2                	je     4440 <bfd_seek@plt+0x1810>
    445e:	48 8b 7d 08          	mov    0x8(%rbp),%rdi
    4462:	e8 09 e2 ff ff       	callq  2670 <free@plt>
    4467:	48 89 ef             	mov    %rbp,%rdi
    446a:	5d                   	pop    %rbp
    446b:	e9 00 e2 ff ff       	jmpq   2670 <free@plt>
    4470:	c3                   	retq   
    4471:	66 66 2e 0f 1f 84 00 	data16 nopw %cs:0x0(%rax,%rax,1)
    4478:	00 00 00 00 
    447c:	0f 1f 40 00          	nopl   0x0(%rax)
    4480:	f3 0f 1e fa          	endbr64 
    4484:	48 85 ff             	test   %rdi,%rdi
    4487:	74 45                	je     44ce <bfd_seek@plt+0x189e>
    4489:	48 8b 47 08          	mov    0x8(%rdi),%rax
    448d:	c7 47 1c 00 00 00 00 	movl   $0x0,0x1c(%rdi)
    4494:	48 8b 15 15 cd 00 00 	mov    0xcd15(%rip),%rdx        # 111b0 <stderr@@GLIBC_2.2.5+0x50>
    449b:	c6 00 00             	movb   $0x0,(%rax)
    449e:	48 8b 47 08          	mov    0x8(%rdi),%rax
    44a2:	c6 40 01 00          	movb   $0x0,0x1(%rax)
    44a6:	48 8b 47 08          	mov    0x8(%rdi),%rax
    44aa:	c7 47 28 01 00 00 00 	movl   $0x1,0x28(%rdi)
    44b1:	48 89 47 10          	mov    %rax,0x10(%rdi)
    44b5:	c7 47 38 00 00 00 00 	movl   $0x0,0x38(%rdi)
    44bc:	48 85 d2             	test   %rdx,%rdx
    44bf:	74 0d                	je     44ce <bfd_seek@plt+0x189e>
    44c1:	48 8b 0d f8 cc 00 00 	mov    0xccf8(%rip),%rcx        # 111c0 <stderr@@GLIBC_2.2.5+0x60>
    44c8:	48 3b 3c ca          	cmp    (%rdx,%rcx,8),%rdi
    44cc:	74 02                	je     44d0 <bfd_seek@plt+0x18a0>
    44ce:	c3                   	retq   
    44cf:	90                   	nop
    44d0:	8b 57 1c             	mov    0x1c(%rdi),%edx
    44d3:	48 89 05 c6 cc 00 00 	mov    %rax,0xccc6(%rip)        # 111a0 <stderr@@GLIBC_2.2.5+0x40>
    44da:	48 89 05 bf ce 00 00 	mov    %rax,0xcebf(%rip)        # 113a0 <stderr@@GLIBC_2.2.5+0x240>
    44e1:	89 15 c1 cc 00 00    	mov    %edx,0xccc1(%rip)        # 111a8 <stderr@@GLIBC_2.2.5+0x48>
    44e7:	48 8b 17             	mov    (%rdi),%rdx
    44ea:	48 89 15 8f cc 00 00 	mov    %rdx,0xcc8f(%rip)        # 11180 <stderr@@GLIBC_2.2.5+0x20>
    44f1:	0f b6 00             	movzbl (%rax),%eax
    44f4:	88 05 b2 cc 00 00    	mov    %al,0xccb2(%rip)        # 111ac <stderr@@GLIBC_2.2.5+0x4c>
    44fa:	c3                   	retq   
    44fb:	0f 1f 44 00 00       	nopl   0x0(%rax,%rax,1)
    4500:	41 55                	push   %r13
    4502:	41 54                	push   %r12
    4504:	55                   	push   %rbp
    4505:	48 89 f5             	mov    %rsi,%rbp
    4508:	53                   	push   %rbx
    4509:	48 89 fb             	mov    %rdi,%rbx
    450c:	48 83 ec 08          	sub    $0x8,%rsp
    4510:	e8 ab e1 ff ff       	callq  26c0 <__errno_location@plt>
    4515:	48 89 df             	mov    %rbx,%rdi
    4518:	44 8b 28             	mov    (%rax),%r13d
    451b:	49 89 c4             	mov    %rax,%r12
    451e:	e8 5d ff ff ff       	callq  4480 <bfd_seek@plt+0x1850>
    4523:	48 8b 05 86 cc 00 00 	mov    0xcc86(%rip),%rax        # 111b0 <stderr@@GLIBC_2.2.5+0x50>
    452a:	48 89 2b             	mov    %rbp,(%rbx)
    452d:	c7 43 34 01 00 00 00 	movl   $0x1,0x34(%rbx)
    4534:	48 85 c0             	test   %rax,%rax
    4537:	74 0d                	je     4546 <bfd_seek@plt+0x1916>
    4539:	48 8b 15 80 cc 00 00 	mov    0xcc80(%rip),%rdx        # 111c0 <stderr@@GLIBC_2.2.5+0x60>
    4540:	48 3b 1c d0          	cmp    (%rax,%rdx,8),%rbx
    4544:	74 08                	je     454e <bfd_seek@plt+0x191e>
    4546:	48 c7 43 2c 01 00 00 	movq   $0x1,0x2c(%rbx)
    454d:	00 
    454e:	31 c0                	xor    %eax,%eax
    4550:	48 85 ed             	test   %rbp,%rbp
    4553:	74 17                	je     456c <bfd_seek@plt+0x193c>
    4555:	48 89 ef             	mov    %rbp,%rdi
    4558:	e8 83 e4 ff ff       	callq  29e0 <fileno@plt>
    455d:	89 c7                	mov    %eax,%edi
    455f:	e8 bc e1 ff ff       	callq  2720 <isatty@plt>
    4564:	85 c0                	test   %eax,%eax
    4566:	0f 9f c0             	setg   %al
    4569:	0f b6 c0             	movzbl %al,%eax
    456c:	89 43 24             	mov    %eax,0x24(%rbx)
    456f:	45 89 2c 24          	mov    %r13d,(%r12)
    4573:	48 83 c4 08          	add    $0x8,%rsp
    4577:	5b                   	pop    %rbx
    4578:	5d                   	pop    %rbp
    4579:	41 5c                	pop    %r12
    457b:	41 5d                	pop    %r13
    457d:	c3                   	retq   
    457e:	66 90                	xchg   %ax,%ax
    4580:	f3 0f 1e fa          	endbr64 
    4584:	41 54                	push   %r12
    4586:	55                   	push   %rbp
    4587:	48 89 fd             	mov    %rdi,%rbp
    458a:	bf 40 00 00 00       	mov    $0x40,%edi
    458f:	53                   	push   %rbx
    4590:	89 f3                	mov    %esi,%ebx
    4592:	e8 89 e4 ff ff       	callq  2a20 <malloc@plt>
    4597:	48 85 c0             	test   %rax,%rax
    459a:	74 37                	je     45d3 <bfd_seek@plt+0x19a3>
    459c:	89 58 18             	mov    %ebx,0x18(%rax)
    459f:	8d 7b 02             	lea    0x2(%rbx),%edi
    45a2:	49 89 c4             	mov    %rax,%r12
    45a5:	48 63 ff             	movslq %edi,%rdi
    45a8:	e8 73 e4 ff ff       	callq  2a20 <malloc@plt>
    45ad:	49 89 44 24 08       	mov    %rax,0x8(%r12)
    45b2:	48 85 c0             	test   %rax,%rax
    45b5:	74 1c                	je     45d3 <bfd_seek@plt+0x19a3>
    45b7:	41 c7 44 24 20 01 00 	movl   $0x1,0x20(%r12)
    45be:	00 00 
    45c0:	48 89 ee             	mov    %rbp,%rsi
    45c3:	4c 89 e7             	mov    %r12,%rdi
    45c6:	e8 35 ff ff ff       	callq  4500 <bfd_seek@plt+0x18d0>
    45cb:	4c 89 e0             	mov    %r12,%rax
    45ce:	5b                   	pop    %rbx
    45cf:	5d                   	pop    %rbp
    45d0:	41 5c                	pop    %r12
    45d2:	c3                   	retq   
    45d3:	48 8d 3d 6e 6e 00 00 	lea    0x6e6e(%rip),%rdi        # b448 <bfd_seek@plt+0x8818>
    45da:	e8 91 fc ff ff       	callq  4270 <bfd_seek@plt+0x1640>
    45df:	90                   	nop
    45e0:	f3 0f 1e fa          	endbr64 
    45e4:	48 8b 05 c5 cb 00 00 	mov    0xcbc5(%rip),%rax        # 111b0 <stderr@@GLIBC_2.2.5+0x50>
    45eb:	41 54                	push   %r12
    45ed:	49 89 fc             	mov    %rdi,%r12
    45f0:	55                   	push   %rbp
    45f1:	53                   	push   %rbx
    45f2:	48 85 c0             	test   %rax,%rax
    45f5:	74 59                	je     4650 <bfd_seek@plt+0x1a20>
    45f7:	48 8b 15 c2 cb 00 00 	mov    0xcbc2(%rip),%rdx        # 111c0 <stderr@@GLIBC_2.2.5+0x60>
    45fe:	48 8d 1c d0          	lea    (%rax,%rdx,8),%rbx
    4602:	48 8b 2b             	mov    (%rbx),%rbp
    4605:	48 85 ed             	test   %rbp,%rbp
    4608:	74 46                	je     4650 <bfd_seek@plt+0x1a20>
    460a:	4c 89 e6             	mov    %r12,%rsi
    460d:	48 89 ef             	mov    %rbp,%rdi
    4610:	e8 eb fe ff ff       	callq  4500 <bfd_seek@plt+0x18d0>
    4615:	48 8b 13             	mov    (%rbx),%rdx
    4618:	5b                   	pop    %rbx
    4619:	5d                   	pop    %rbp
    461a:	41 5c                	pop    %r12
    461c:	8b 42 1c             	mov    0x1c(%rdx),%eax
    461f:	89 05 83 cb 00 00    	mov    %eax,0xcb83(%rip)        # 111a8 <stderr@@GLIBC_2.2.5+0x48>
    4625:	48 8b 42 10          	mov    0x10(%rdx),%rax
    4629:	48 8b 12             	mov    (%rdx),%rdx
    462c:	48 89 05 6d cb 00 00 	mov    %rax,0xcb6d(%rip)        # 111a0 <stderr@@GLIBC_2.2.5+0x40>
    4633:	48 89 05 66 cd 00 00 	mov    %rax,0xcd66(%rip)        # 113a0 <stderr@@GLIBC_2.2.5+0x240>
    463a:	48 89 15 3f cb 00 00 	mov    %rdx,0xcb3f(%rip)        # 11180 <stderr@@GLIBC_2.2.5+0x20>
    4641:	0f b6 00             	movzbl (%rax),%eax
    4644:	88 05 62 cb 00 00    	mov    %al,0xcb62(%rip)        # 111ac <stderr@@GLIBC_2.2.5+0x4c>
    464a:	c3                   	retq   
    464b:	0f 1f 44 00 00       	nopl   0x0(%rax,%rax,1)
    4650:	e8 4b fc ff ff       	callq  42a0 <bfd_seek@plt+0x1670>
    4655:	48 8b 2d 54 cb 00 00 	mov    0xcb54(%rip),%rbp        # 111b0 <stderr@@GLIBC_2.2.5+0x50>
    465c:	be 00 40 00 00       	mov    $0x4000,%esi
    4661:	48 8b 05 58 cb 00 00 	mov    0xcb58(%rip),%rax        # 111c0 <stderr@@GLIBC_2.2.5+0x60>
    4668:	48 8b 3d 11 cb 00 00 	mov    0xcb11(%rip),%rdi        # 11180 <stderr@@GLIBC_2.2.5+0x20>
    466f:	48 8d 5c c5 00       	lea    0x0(%rbp,%rax,8),%rbx
    4674:	e8 07 ff ff ff       	callq  4580 <bfd_seek@plt+0x1950>
    4679:	48 85 ed             	test   %rbp,%rbp
    467c:	48 89 03             	mov    %rax,(%rbx)
    467f:	48 0f 45 e8          	cmovne %rax,%rbp
    4683:	eb 85                	jmp    460a <bfd_seek@plt+0x19da>
    4685:	66 66 2e 0f 1f 84 00 	data16 nopw %cs:0x0(%rax,%rax,1)
    468c:	00 00 00 00 
    4690:	f3 0f 1e fa          	endbr64 
    4694:	41 57                	push   %r15
    4696:	41 56                	push   %r14
    4698:	41 55                	push   %r13
    469a:	41 54                	push   %r12
    469c:	55                   	push   %rbp
    469d:	53                   	push   %rbx
    469e:	48 83 ec 58          	sub    $0x58,%rsp
    46a2:	44 8b 2d ef ca 00 00 	mov    0xcaef(%rip),%r13d        # 11198 <stderr@@GLIBC_2.2.5+0x38>
    46a9:	44 8b 25 e4 ca 00 00 	mov    0xcae4(%rip),%r12d        # 11194 <stderr@@GLIBC_2.2.5+0x34>
    46b0:	45 85 ed             	test   %r13d,%r13d
    46b3:	0f 84 a0 01 00 00    	je     4859 <bfd_seek@plt+0x1c29>
    46b9:	49 63 c4             	movslq %r12d,%rax
    46bc:	4c 8d 0d fd 77 00 00 	lea    0x77fd(%rip),%r9        # bec0 <bfd_seek@plt+0x9290>
    46c3:	48 8d 1d 36 75 00 00 	lea    0x7536(%rip),%rbx        # bc00 <bfd_seek@plt+0x8fd0>
    46ca:	0f b6 15 db ca 00 00 	movzbl 0xcadb(%rip),%edx        # 111ac <stderr@@GLIBC_2.2.5+0x4c>
    46d1:	4c 8b 15 c8 ca 00 00 	mov    0xcac8(%rip),%r10        # 111a0 <stderr@@GLIBC_2.2.5+0x40>
    46d8:	45 0f b7 2c 41       	movzwl (%r9,%rax,2),%r13d
    46dd:	0f b7 2c 43          	movzwl (%rbx,%rax,2),%ebp
    46e1:	4c 89 4c 24 18       	mov    %r9,0x18(%rsp)
    46e6:	4c 8d 05 93 6f 00 00 	lea    0x6f93(%rip),%r8        # b680 <bfd_seek@plt+0x8a50>
    46ed:	49 89 d9             	mov    %rbx,%r9
    46f0:	4c 89 d3             	mov    %r10,%rbx
    46f3:	4c 8d 3d 86 73 00 00 	lea    0x7386(%rip),%r15        # ba80 <bfd_seek@plt+0x8e50>
    46fa:	4c 8d 35 7f 76 00 00 	lea    0x767f(%rip),%r14        # bd80 <bfd_seek@plt+0x9150>
    4701:	44 89 64 24 08       	mov    %r12d,0x8(%rsp)
    4706:	4c 89 cf             	mov    %r9,%rdi
    4709:	4c 8b 54 24 18       	mov    0x18(%rsp),%r10
    470e:	49 89 d9             	mov    %rbx,%r9
    4711:	88 13                	mov    %dl,(%rbx)
    4713:	0f bf c5             	movswl %bp,%eax
    4716:	89 d6                	mov    %edx,%esi
    4718:	48 89 5c 24 10       	mov    %rbx,0x10(%rsp)
    471d:	48 89 fb             	mov    %rdi,%rbx
    4720:	44 8b 1d 69 ca 00 00 	mov    0xca69(%rip),%r11d        # 11190 <stderr@@GLIBC_2.2.5+0x30>
    4727:	48 8b 2d 5a ca 00 00 	mov    0xca5a(%rip),%rbp        # 11188 <stderr@@GLIBC_2.2.5+0x28>
    472e:	31 ff                	xor    %edi,%edi
    4730:	41 bc 01 00 00 00    	mov    $0x1,%r12d
    4736:	66 2e 0f 1f 84 00 00 	nopw   %cs:0x0(%rax,%rax,1)
    473d:	00 00 00 
    4740:	40 0f b6 ce          	movzbl %sil,%ecx
    4744:	48 8d 35 75 76 00 00 	lea    0x7675(%rip),%rsi        # bdc0 <bfd_seek@plt+0x9190>
    474b:	8b 54 24 08          	mov    0x8(%rsp),%edx
    474f:	66 45 85 ed          	test   %r13w,%r13w
    4753:	0f b6 34 0e          	movzbl (%rsi,%rcx,1),%esi
    4757:	49 0f 45 e9          	cmovne %r9,%rbp
    475b:	41 0f 45 fc          	cmovne %r12d,%edi
    475f:	44 0f 45 da          	cmovne %edx,%r11d
    4763:	01 f0                	add    %esi,%eax
    4765:	48 98                	cltq   
    4767:	41 0f bf 0c 40       	movswl (%r8,%rax,2),%ecx
    476c:	39 ca                	cmp    %ecx,%edx
    476e:	74 2d                	je     479d <bfd_seek@plt+0x1b6d>
    4770:	48 63 ca             	movslq %edx,%rcx
    4773:	0f 1f 44 00 00       	nopl   0x0(%rax,%rax,1)
    4778:	41 0f bf 0c 4f       	movswl (%r15,%rcx,2),%ecx
    477d:	89 ca                	mov    %ecx,%edx
    477f:	66 81 f9 b0 00       	cmp    $0xb0,%cx
    4784:	7e 05                	jle    478b <bfd_seek@plt+0x1b5b>
    4786:	41 0f b6 34 36       	movzbl (%r14,%rsi,1),%esi
    478b:	48 63 c9             	movslq %ecx,%rcx
    478e:	0f bf 04 4b          	movswl (%rbx,%rcx,2),%eax
    4792:	01 f0                	add    %esi,%eax
    4794:	48 98                	cltq   
    4796:	66 41 3b 14 40       	cmp    (%r8,%rax,2),%dx
    479b:	75 db                	jne    4778 <bfd_seek@plt+0x1b48>
    479d:	48 8d 35 dc 70 00 00 	lea    0x70dc(%rip),%rsi        # b880 <bfd_seek@plt+0x8c50>
    47a4:	49 83 c1 01          	add    $0x1,%r9
    47a8:	48 0f bf 0c 46       	movswq (%rsi,%rax,2),%rcx
    47ad:	0f bf 04 4b          	movswl (%rbx,%rcx,2),%eax
    47b1:	89 4c 24 08          	mov    %ecx,0x8(%rsp)
    47b5:	66 3d c2 00          	cmp    $0xc2,%ax
    47b9:	74 15                	je     47d0 <bfd_seek@plt+0x1ba0>
    47bb:	41 0f b6 31          	movzbl (%r9),%esi
    47bf:	45 0f b7 2c 4a       	movzwl (%r10,%rcx,2),%r13d
    47c4:	e9 77 ff ff ff       	jmpq   4740 <bfd_seek@plt+0x1b10>
    47c9:	0f 1f 80 00 00 00 00 	nopl   0x0(%rax)
    47d0:	40 84 ff             	test   %dil,%dil
    47d3:	74 0e                	je     47e3 <bfd_seek@plt+0x1bb3>
    47d5:	48 89 2d ac c9 00 00 	mov    %rbp,0xc9ac(%rip)        # 11188 <stderr@@GLIBC_2.2.5+0x28>
    47dc:	44 89 1d ad c9 00 00 	mov    %r11d,0xc9ad(%rip)        # 11190 <stderr@@GLIBC_2.2.5+0x30>
    47e3:	48 89 5c 24 08       	mov    %rbx,0x8(%rsp)
    47e8:	4c 8d 2d d1 6d 00 00 	lea    0x6dd1(%rip),%r13        # b5c0 <bfd_seek@plt+0x8990>
    47ef:	4d 89 cc             	mov    %r9,%r12
    47f2:	41 0f bf 04 4a       	movswl (%r10,%rcx,2),%eax
    47f7:	85 c0                	test   %eax,%eax
    47f9:	75 13                	jne    480e <bfd_seek@plt+0x1bde>
    47fb:	48 63 05 8e c9 00 00 	movslq 0xc98e(%rip),%rax        # 11190 <stderr@@GLIBC_2.2.5+0x30>
    4802:	4c 8b 25 7f c9 00 00 	mov    0xc97f(%rip),%r12        # 11188 <stderr@@GLIBC_2.2.5+0x28>
    4809:	41 0f bf 04 42       	movswl (%r10,%rax,2),%eax
    480e:	48 8b 7c 24 10       	mov    0x10(%rsp),%rdi
    4813:	4c 89 e2             	mov    %r12,%rdx
    4816:	4c 89 64 24 20       	mov    %r12,0x20(%rsp)
    481b:	4c 89 25 7e c9 00 00 	mov    %r12,0xc97e(%rip)        # 111a0 <stderr@@GLIBC_2.2.5+0x40>
    4822:	48 29 fa             	sub    %rdi,%rdx
    4825:	48 89 3d 74 cb 00 00 	mov    %rdi,0xcb74(%rip)        # 113a0 <stderr@@GLIBC_2.2.5+0x240>
    482c:	89 15 7a cb 00 00    	mov    %edx,0xcb7a(%rip)        # 113ac <stderr@@GLIBC_2.2.5+0x24c>
    4832:	41 0f b6 14 24       	movzbl (%r12),%edx
    4837:	41 c6 04 24 00       	movb   $0x0,(%r12)
    483c:	4d 89 d4             	mov    %r10,%r12
    483f:	88 15 67 c9 00 00    	mov    %dl,0xc967(%rip)        # 111ac <stderr@@GLIBC_2.2.5+0x4c>
    4845:	83 f8 2a             	cmp    $0x2a,%eax
    4848:	0f 87 3d 08 00 00    	ja     508b <bfd_seek@plt+0x245b>
    484e:	49 63 44 85 00       	movslq 0x0(%r13,%rax,4),%rax
    4853:	4c 01 e8             	add    %r13,%rax
    4856:	3e ff e0             	notrack jmpq *%rax
    4859:	c7 05 35 c9 00 00 01 	movl   $0x1,0xc935(%rip)        # 11198 <stderr@@GLIBC_2.2.5+0x38>
    4860:	00 00 00 
    4863:	45 85 e4             	test   %r12d,%r12d
    4866:	0f 84 8e 00 00 00    	je     48fa <bfd_seek@plt+0x1cca>
    486c:	49 63 c4             	movslq %r12d,%rax
    486f:	4c 8d 0d 4a 76 00 00 	lea    0x764a(%rip),%r9        # bec0 <bfd_seek@plt+0x9290>
    4876:	48 8d 1d 83 73 00 00 	lea    0x7383(%rip),%rbx        # bc00 <bfd_seek@plt+0x8fd0>
    487d:	48 83 3d fb c8 00 00 	cmpq   $0x0,0xc8fb(%rip)        # 11180 <stderr@@GLIBC_2.2.5+0x20>
    4884:	00 
    4885:	45 0f b7 2c 41       	movzwl (%r9,%rax,2),%r13d
    488a:	0f b7 2c 43          	movzwl (%rbx,%rax,2),%ebp
    488e:	0f 84 97 00 00 00    	je     492b <bfd_seek@plt+0x1cfb>
    4894:	48 83 3d dc c8 00 00 	cmpq   $0x0,0xc8dc(%rip)        # 11178 <stderr@@GLIBC_2.2.5+0x18>
    489b:	00 
    489c:	0f 84 a5 00 00 00    	je     4947 <bfd_seek@plt+0x1d17>
    48a2:	48 8b 05 07 c9 00 00 	mov    0xc907(%rip),%rax        # 111b0 <stderr@@GLIBC_2.2.5+0x50>
    48a9:	48 85 c0             	test   %rax,%rax
    48ac:	0f 84 a8 00 00 00    	je     495a <bfd_seek@plt+0x1d2a>
    48b2:	48 8b 15 07 c9 00 00 	mov    0xc907(%rip),%rdx        # 111c0 <stderr@@GLIBC_2.2.5+0x60>
    48b9:	48 8b 04 d0          	mov    (%rax,%rdx,8),%rax
    48bd:	48 85 c0             	test   %rax,%rax
    48c0:	0f 84 94 00 00 00    	je     495a <bfd_seek@plt+0x1d2a>
    48c6:	4c 8b 50 10          	mov    0x10(%rax),%r10
    48ca:	8b 50 1c             	mov    0x1c(%rax),%edx
    48cd:	48 8b 00             	mov    (%rax),%rax
    48d0:	89 15 d2 c8 00 00    	mov    %edx,0xc8d2(%rip)        # 111a8 <stderr@@GLIBC_2.2.5+0x48>
    48d6:	4c 89 15 c3 ca 00 00 	mov    %r10,0xcac3(%rip)        # 113a0 <stderr@@GLIBC_2.2.5+0x240>
    48dd:	48 89 05 9c c8 00 00 	mov    %rax,0xc89c(%rip)        # 11180 <stderr@@GLIBC_2.2.5+0x20>
    48e4:	41 0f b6 12          	movzbl (%r10),%edx
    48e8:	4c 89 15 b1 c8 00 00 	mov    %r10,0xc8b1(%rip)        # 111a0 <stderr@@GLIBC_2.2.5+0x40>
    48ef:	88 15 b7 c8 00 00    	mov    %dl,0xc8b7(%rip)        # 111ac <stderr@@GLIBC_2.2.5+0x4c>
    48f5:	e9 e7 fd ff ff       	jmpq   46e1 <bfd_seek@plt+0x1ab1>
    48fa:	31 ed                	xor    %ebp,%ebp
    48fc:	45 31 ed             	xor    %r13d,%r13d
    48ff:	48 83 3d 79 c8 00 00 	cmpq   $0x0,0xc879(%rip)        # 11180 <stderr@@GLIBC_2.2.5+0x20>
    4906:	00 
    4907:	c7 05 83 c8 00 00 01 	movl   $0x1,0xc883(%rip)        # 11194 <stderr@@GLIBC_2.2.5+0x34>
    490e:	00 00 00 
    4911:	41 bc 01 00 00 00    	mov    $0x1,%r12d
    4917:	4c 8d 0d a2 75 00 00 	lea    0x75a2(%rip),%r9        # bec0 <bfd_seek@plt+0x9290>
    491e:	48 8d 1d db 72 00 00 	lea    0x72db(%rip),%rbx        # bc00 <bfd_seek@plt+0x8fd0>
    4925:	0f 85 69 ff ff ff    	jne    4894 <bfd_seek@plt+0x1c64>
    492b:	48 8b 05 fe c7 00 00 	mov    0xc7fe(%rip),%rax        # 11130 <stdin@@GLIBC_2.2.5>
    4932:	48 83 3d 3e c8 00 00 	cmpq   $0x0,0xc83e(%rip)        # 11178 <stderr@@GLIBC_2.2.5+0x18>
    4939:	00 
    493a:	48 89 05 3f c8 00 00 	mov    %rax,0xc83f(%rip)        # 11180 <stderr@@GLIBC_2.2.5+0x20>
    4941:	0f 85 5b ff ff ff    	jne    48a2 <bfd_seek@plt+0x1c72>
    4947:	48 8b 05 d2 c7 00 00 	mov    0xc7d2(%rip),%rax        # 11120 <stdout@@GLIBC_2.2.5>
    494e:	48 89 05 23 c8 00 00 	mov    %rax,0xc823(%rip)        # 11178 <stderr@@GLIBC_2.2.5+0x18>
    4955:	e9 48 ff ff ff       	jmpq   48a2 <bfd_seek@plt+0x1c72>
    495a:	4c 89 4c 24 08       	mov    %r9,0x8(%rsp)
    495f:	e8 3c f9 ff ff       	callq  42a0 <bfd_seek@plt+0x1670>
    4964:	48 8b 15 55 c8 00 00 	mov    0xc855(%rip),%rdx        # 111c0 <stderr@@GLIBC_2.2.5+0x60>
    496b:	be 00 40 00 00       	mov    $0x4000,%esi
    4970:	48 8b 05 39 c8 00 00 	mov    0xc839(%rip),%rax        # 111b0 <stderr@@GLIBC_2.2.5+0x50>
    4977:	48 8b 3d 02 c8 00 00 	mov    0xc802(%rip),%rdi        # 11180 <stderr@@GLIBC_2.2.5+0x20>
    497e:	4c 8d 34 d0          	lea    (%rax,%rdx,8),%r14
    4982:	e8 f9 fb ff ff       	callq  4580 <bfd_seek@plt+0x1950>
    4987:	4c 8b 4c 24 08       	mov    0x8(%rsp),%r9
    498c:	49 89 06             	mov    %rax,(%r14)
    498f:	e9 32 ff ff ff       	jmpq   48c6 <bfd_seek@plt+0x1c96>
    4994:	b8 07 01 00 00       	mov    $0x107,%eax
    4999:	48 83 c4 58          	add    $0x58,%rsp
    499d:	5b                   	pop    %rbx
    499e:	5d                   	pop    %rbp
    499f:	41 5c                	pop    %r12
    49a1:	41 5d                	pop    %r13
    49a3:	41 5e                	pop    %r14
    49a5:	41 5f                	pop    %r15
    49a7:	c3                   	retq   
    49a8:	b8 08 01 00 00       	mov    $0x108,%eax
    49ad:	eb ea                	jmp    4999 <bfd_seek@plt+0x1d69>
    49af:	b8 12 01 00 00       	mov    $0x112,%eax
    49b4:	eb e3                	jmp    4999 <bfd_seek@plt+0x1d69>
    49b6:	b8 13 01 00 00       	mov    $0x113,%eax
    49bb:	eb dc                	jmp    4999 <bfd_seek@plt+0x1d69>
    49bd:	b8 0f 01 00 00       	mov    $0x10f,%eax
    49c2:	eb d5                	jmp    4999 <bfd_seek@plt+0x1d69>
    49c4:	b8 06 01 00 00       	mov    $0x106,%eax
    49c9:	eb ce                	jmp    4999 <bfd_seek@plt+0x1d69>
    49cb:	b8 03 01 00 00       	mov    $0x103,%eax
    49d0:	eb c7                	jmp    4999 <bfd_seek@plt+0x1d69>
    49d2:	b8 11 01 00 00       	mov    $0x111,%eax
    49d7:	eb c0                	jmp    4999 <bfd_seek@plt+0x1d69>
    49d9:	b8 09 01 00 00       	mov    $0x109,%eax
    49de:	eb b9                	jmp    4999 <bfd_seek@plt+0x1d69>
    49e0:	b8 0a 01 00 00       	mov    $0x10a,%eax
    49e5:	eb b2                	jmp    4999 <bfd_seek@plt+0x1d69>
    49e7:	b8 0b 01 00 00       	mov    $0x10b,%eax
    49ec:	eb ab                	jmp    4999 <bfd_seek@plt+0x1d69>
    49ee:	b8 0c 01 00 00       	mov    $0x10c,%eax
    49f3:	eb a4                	jmp    4999 <bfd_seek@plt+0x1d69>
    49f5:	b8 0d 01 00 00       	mov    $0x10d,%eax
    49fa:	eb 9d                	jmp    4999 <bfd_seek@plt+0x1d69>
    49fc:	b8 0e 01 00 00       	mov    $0x10e,%eax
    4a01:	eb 96                	jmp    4999 <bfd_seek@plt+0x1d69>
    4a03:	4c 8b 4c 24 08       	mov    0x8(%rsp),%r9
    4a08:	48 63 05 85 c7 00 00 	movslq 0xc785(%rip),%rax        # 11194 <stderr@@GLIBC_2.2.5+0x34>
    4a0f:	48 8b 7c 24 18       	mov    0x18(%rsp),%rdi
    4a14:	0f b6 15 91 c7 00 00 	movzbl 0xc791(%rip),%edx        # 111ac <stderr@@GLIBC_2.2.5+0x4c>
    4a1b:	48 8b 1d 7e c7 00 00 	mov    0xc77e(%rip),%rbx        # 111a0 <stderr@@GLIBC_2.2.5+0x40>
    4a22:	44 0f b7 2c 47       	movzwl (%rdi,%rax,2),%r13d
    4a27:	41 0f b7 2c 41       	movzwl (%r9,%rax,2),%ebp
    4a2c:	49 89 c4             	mov    %rax,%r12
    4a2f:	e9 cd fc ff ff       	jmpq   4701 <bfd_seek@plt+0x1ad1>
    4a34:	b8 05 01 00 00       	mov    $0x105,%eax
    4a39:	e9 5b ff ff ff       	jmpq   4999 <bfd_seek@plt+0x1d69>
    4a3e:	83 05 63 c9 00 00 01 	addl   $0x1,0xc963(%rip)        # 113a8 <stderr@@GLIBC_2.2.5+0x248>
    4a45:	b8 02 01 00 00       	mov    $0x102,%eax
    4a4a:	e9 4a ff ff ff       	jmpq   4999 <bfd_seek@plt+0x1d69>
    4a4f:	48 63 35 56 c9 00 00 	movslq 0xc956(%rip),%rsi        # 113ac <stderr@@GLIBC_2.2.5+0x24c>
    4a56:	48 8b 0d 1b c7 00 00 	mov    0xc71b(%rip),%rcx        # 11178 <stderr@@GLIBC_2.2.5+0x18>
    4a5d:	ba 01 00 00 00       	mov    $0x1,%edx
    4a62:	48 8b 3d 37 c9 00 00 	mov    0xc937(%rip),%rdi        # 113a0 <stderr@@GLIBC_2.2.5+0x240>
    4a69:	e8 42 e1 ff ff       	callq  2bb0 <fwrite@plt>
    4a6e:	4c 8b 4c 24 08       	mov    0x8(%rsp),%r9
    4a73:	4c 8d 05 06 6c 00 00 	lea    0x6c06(%rip),%r8        # b680 <bfd_seek@plt+0x8a50>
    4a7a:	eb 8c                	jmp    4a08 <bfd_seek@plt+0x1dd8>
    4a7c:	48 8b 7c 24 20       	mov    0x20(%rsp),%rdi
    4a81:	48 8b 1d 38 c7 00 00 	mov    0xc738(%rip),%rbx        # 111c0 <stderr@@GLIBC_2.2.5+0x60>
    4a88:	4c 8b 0d 21 c7 00 00 	mov    0xc721(%rip),%r9        # 111b0 <stderr@@GLIBC_2.2.5+0x50>
    4a8f:	48 89 f8             	mov    %rdi,%rax
    4a92:	48 2b 05 07 c9 00 00 	sub    0xc907(%rip),%rax        # 113a0 <stderr@@GLIBC_2.2.5+0x240>
    4a99:	83 e8 01             	sub    $0x1,%eax
    4a9c:	4d 8d 1c d9          	lea    (%r9,%rbx,8),%r11
    4aa0:	89 44 24 3c          	mov    %eax,0x3c(%rsp)
    4aa4:	0f b6 05 01 c7 00 00 	movzbl 0xc701(%rip),%eax        # 111ac <stderr@@GLIBC_2.2.5+0x4c>
    4aab:	88 07                	mov    %al,(%rdi)
    4aad:	49 8b 13             	mov    (%r11),%rdx
    4ab0:	8b 05 f2 c6 00 00    	mov    0xc6f2(%rip),%eax        # 111a8 <stderr@@GLIBC_2.2.5+0x48>
    4ab6:	8b 6a 38             	mov    0x38(%rdx),%ebp
    4ab9:	85 ed                	test   %ebp,%ebp
    4abb:	75 1a                	jne    4ad7 <bfd_seek@plt+0x1ea7>
    4abd:	8b 42 1c             	mov    0x1c(%rdx),%eax
    4ac0:	48 8b 0d b9 c6 00 00 	mov    0xc6b9(%rip),%rcx        # 11180 <stderr@@GLIBC_2.2.5+0x20>
    4ac7:	c7 42 38 01 00 00 00 	movl   $0x1,0x38(%rdx)
    4ace:	89 05 d4 c6 00 00    	mov    %eax,0xc6d4(%rip)        # 111a8 <stderr@@GLIBC_2.2.5+0x48>
    4ad4:	48 89 0a             	mov    %rcx,(%rdx)
    4ad7:	48 8b 72 08          	mov    0x8(%rdx),%rsi
    4adb:	48 63 f8             	movslq %eax,%rdi
    4ade:	48 8b 05 bb c6 00 00 	mov    0xc6bb(%rip),%rax        # 111a0 <stderr@@GLIBC_2.2.5+0x40>
    4ae5:	48 8b 0d b4 c8 00 00 	mov    0xc8b4(%rip),%rcx        # 113a0 <stderr@@GLIBC_2.2.5+0x240>
    4aec:	48 8d 2c 3e          	lea    (%rsi,%rdi,1),%rbp
    4af0:	48 39 e8             	cmp    %rbp,%rax
    4af3:	0f 86 db 04 00 00    	jbe    4fd4 <bfd_seek@plt+0x23a4>
    4af9:	48 8d 7c 3e 01       	lea    0x1(%rsi,%rdi,1),%rdi
    4afe:	48 39 f8             	cmp    %rdi,%rax
    4b01:	0f 87 c1 04 00 00    	ja     4fc8 <bfd_seek@plt+0x2398>
    4b07:	44 8b 52 34          	mov    0x34(%rdx),%r10d
    4b0b:	48 89 c7             	mov    %rax,%rdi
    4b0e:	48 29 cf             	sub    %rcx,%rdi
    4b11:	45 85 d2             	test   %r10d,%r10d
    4b14:	0f 85 a4 00 00 00    	jne    4bbe <bfd_seek@plt+0x1f8e>
    4b1a:	48 83 ff 01          	cmp    $0x1,%rdi
    4b1e:	0f 85 13 04 00 00    	jne    4f37 <bfd_seek@plt+0x2307>
    4b24:	8b 05 6a c6 00 00    	mov    0xc66a(%rip),%eax        # 11194 <stderr@@GLIBC_2.2.5+0x34>
    4b2a:	48 89 0d 6f c6 00 00 	mov    %rcx,0xc66f(%rip)        # 111a0 <stderr@@GLIBC_2.2.5+0x40>
    4b31:	8d 50 ff             	lea    -0x1(%rax),%edx
    4b34:	89 d0                	mov    %edx,%eax
    4b36:	c1 e8 1f             	shr    $0x1f,%eax
    4b39:	01 d0                	add    %edx,%eax
    4b3b:	d1 f8                	sar    %eax
    4b3d:	83 c0 2a             	add    $0x2a,%eax
    4b40:	e9 00 fd ff ff       	jmpq   4845 <bfd_seek@plt+0x1c15>
    4b45:	b8 2c 00 00 00       	mov    $0x2c,%eax
    4b4a:	e9 4a fe ff ff       	jmpq   4999 <bfd_seek@plt+0x1d69>
    4b4f:	48 8b 3d 4a c8 00 00 	mov    0xc84a(%rip),%rdi        # 113a0 <stderr@@GLIBC_2.2.5+0x240>
    4b56:	e8 85 dd ff ff       	callq  28e0 <xstrdup@plt>
    4b5b:	48 89 05 36 c8 00 00 	mov    %rax,0xc836(%rip)        # 11398 <stderr@@GLIBC_2.2.5+0x238>
    4b62:	b8 04 01 00 00       	mov    $0x104,%eax
    4b67:	e9 2d fe ff ff       	jmpq   4999 <bfd_seek@plt+0x1d69>
    4b6c:	83 05 35 c8 00 00 01 	addl   $0x1,0xc835(%rip)        # 113a8 <stderr@@GLIBC_2.2.5+0x248>
    4b73:	4c 8b 4c 24 08       	mov    0x8(%rsp),%r9
    4b78:	e9 8b fe ff ff       	jmpq   4a08 <bfd_seek@plt+0x1dd8>
    4b7d:	0f b6 05 28 c6 00 00 	movzbl 0xc628(%rip),%eax        # 111ac <stderr@@GLIBC_2.2.5+0x4c>
    4b84:	4d 89 e2             	mov    %r12,%r10
    4b87:	4c 8b 64 24 20       	mov    0x20(%rsp),%r12
    4b8c:	48 63 0d fd c5 00 00 	movslq 0xc5fd(%rip),%rcx        # 11190 <stderr@@GLIBC_2.2.5+0x30>
    4b93:	41 88 04 24          	mov    %al,(%r12)
    4b97:	4c 8b 25 ea c5 00 00 	mov    0xc5ea(%rip),%r12        # 11188 <stderr@@GLIBC_2.2.5+0x28>
    4b9e:	e9 4f fc ff ff       	jmpq   47f2 <bfd_seek@plt+0x1bc2>
    4ba3:	31 c0                	xor    %eax,%eax
    4ba5:	e9 ef fd ff ff       	jmpq   4999 <bfd_seek@plt+0x1d69>
    4baa:	b8 28 00 00 00       	mov    $0x28,%eax
    4baf:	e9 e5 fd ff ff       	jmpq   4999 <bfd_seek@plt+0x1d69>
    4bb4:	b8 29 00 00 00       	mov    $0x29,%eax
    4bb9:	e9 db fd ff ff       	jmpq   4999 <bfd_seek@plt+0x1d69>
    4bbe:	8d 6f ff             	lea    -0x1(%rdi),%ebp
    4bc1:	85 ed                	test   %ebp,%ebp
    4bc3:	7e 1d                	jle    4be2 <bfd_seek@plt+0x1fb2>
    4bc5:	44 8d 57 fe          	lea    -0x2(%rdi),%r10d
    4bc9:	31 d2                	xor    %edx,%edx
    4bcb:	0f b6 3c 11          	movzbl (%rcx,%rdx,1),%edi
    4bcf:	40 88 3c 16          	mov    %dil,(%rsi,%rdx,1)
    4bd3:	48 89 d7             	mov    %rdx,%rdi
    4bd6:	48 83 c2 01          	add    $0x1,%rdx
    4bda:	49 39 fa             	cmp    %rdi,%r10
    4bdd:	75 ec                	jne    4bcb <bfd_seek@plt+0x1f9b>
    4bdf:	49 8b 13             	mov    (%r11),%rdx
    4be2:	83 7a 38 02          	cmpl   $0x2,0x38(%rdx)
    4be6:	0f 84 5b 01 00 00    	je     4d47 <bfd_seek@plt+0x2117>
    4bec:	41 89 e9             	mov    %ebp,%r9d
    4bef:	41 f7 d1             	not    %r9d
    4bf2:	44 03 4a 18          	add    0x18(%rdx),%r9d
    4bf6:	45 85 c9             	test   %r9d,%r9d
    4bf9:	0f 8f 9a 00 00 00    	jg     4c99 <bfd_seek@plt+0x2069>
    4bff:	89 ef                	mov    %ebp,%edi
    4c01:	4c 89 64 24 28       	mov    %r12,0x28(%rsp)
    4c06:	48 89 d5             	mov    %rdx,%rbp
    4c09:	4d 89 dc             	mov    %r11,%r12
    4c0c:	89 fa                	mov    %edi,%edx
    4c0e:	eb 48                	jmp    4c58 <bfd_seek@plt+0x2028>
    4c10:	8b 45 18             	mov    0x18(%rbp),%eax
    4c13:	85 c0                	test   %eax,%eax
    4c15:	7e 69                	jle    4c80 <bfd_seek@plt+0x2050>
    4c17:	01 c0                	add    %eax,%eax
    4c19:	89 45 18             	mov    %eax,0x18(%rbp)
    4c1c:	83 c0 02             	add    $0x2,%eax
    4c1f:	48 63 f0             	movslq %eax,%rsi
    4c22:	89 54 24 30          	mov    %edx,0x30(%rsp)
    4c26:	e8 65 de ff ff       	callq  2a90 <realloc@plt>
    4c2b:	8b 54 24 30          	mov    0x30(%rsp),%edx
    4c2f:	48 85 c0             	test   %rax,%rax
    4c32:	48 89 45 08          	mov    %rax,0x8(%rbp)
    4c36:	74 39                	je     4c71 <bfd_seek@plt+0x2041>
    4c38:	49 8b 2c 24          	mov    (%r12),%rbp
    4c3c:	48 63 db             	movslq %ebx,%rbx
    4c3f:	41 89 d1             	mov    %edx,%r9d
    4c42:	48 01 d8             	add    %rbx,%rax
    4c45:	41 f7 d1             	not    %r9d
    4c48:	44 03 4d 18          	add    0x18(%rbp),%r9d
    4c4c:	48 89 05 4d c5 00 00 	mov    %rax,0xc54d(%rip)        # 111a0 <stderr@@GLIBC_2.2.5+0x40>
    4c53:	45 85 c9             	test   %r9d,%r9d
    4c56:	7f 35                	jg     4c8d <bfd_seek@plt+0x205d>
    4c58:	48 8b 7d 08          	mov    0x8(%rbp),%rdi
    4c5c:	48 29 f8             	sub    %rdi,%rax
    4c5f:	48 89 c3             	mov    %rax,%rbx
    4c62:	8b 45 20             	mov    0x20(%rbp),%eax
    4c65:	85 c0                	test   %eax,%eax
    4c67:	75 a7                	jne    4c10 <bfd_seek@plt+0x1fe0>
    4c69:	48 c7 45 08 00 00 00 	movq   $0x0,0x8(%rbp)
    4c70:	00 
    4c71:	48 8d 3d 38 68 00 00 	lea    0x6838(%rip),%rdi        # b4b0 <bfd_seek@plt+0x8880>
    4c78:	e8 f3 f5 ff ff       	callq  4270 <bfd_seek@plt+0x1640>
    4c7d:	0f 1f 00             	nopl   (%rax)
    4c80:	8d 70 07             	lea    0x7(%rax),%esi
    4c83:	0f 49 f0             	cmovns %eax,%esi
    4c86:	c1 fe 03             	sar    $0x3,%esi
    4c89:	01 f0                	add    %esi,%eax
    4c8b:	eb 8c                	jmp    4c19 <bfd_seek@plt+0x1fe9>
    4c8d:	89 d0                	mov    %edx,%eax
    4c8f:	4c 8b 64 24 28       	mov    0x28(%rsp),%r12
    4c94:	48 89 ea             	mov    %rbp,%rdx
    4c97:	89 c5                	mov    %eax,%ebp
    4c99:	b8 00 20 00 00       	mov    $0x2000,%eax
    4c9e:	41 81 f9 00 20 00 00 	cmp    $0x2000,%r9d
    4ca5:	44 0f 4f c8          	cmovg  %eax,%r9d
    4ca9:	8b 42 24             	mov    0x24(%rdx),%eax
    4cac:	89 44 24 28          	mov    %eax,0x28(%rsp)
    4cb0:	85 c0                	test   %eax,%eax
    4cb2:	0f 84 b5 01 00 00    	je     4e6d <bfd_seek@plt+0x223d>
    4cb8:	48 63 dd             	movslq %ebp,%rbx
    4cbb:	31 f6                	xor    %esi,%esi
    4cbd:	89 6c 24 28          	mov    %ebp,0x28(%rsp)
    4cc1:	4c 89 64 24 30       	mov    %r12,0x30(%rsp)
    4cc6:	48 89 dd             	mov    %rbx,%rbp
    4cc9:	45 89 cc             	mov    %r9d,%r12d
    4ccc:	89 f3                	mov    %esi,%ebx
    4cce:	48 8b 3d ab c4 00 00 	mov    0xc4ab(%rip),%rdi        # 11180 <stderr@@GLIBC_2.2.5+0x20>
    4cd5:	e8 36 df ff ff       	callq  2c10 <getc@plt>
    4cda:	4c 8d 05 9f 69 00 00 	lea    0x699f(%rip),%r8        # b680 <bfd_seek@plt+0x8a50>
    4ce1:	83 f8 ff             	cmp    $0xffffffff,%eax
    4ce4:	0f 84 dc 03 00 00    	je     50c6 <bfd_seek@plt+0x2496>
    4cea:	48 8b 0d cf c4 00 00 	mov    0xc4cf(%rip),%rcx        # 111c0 <stderr@@GLIBC_2.2.5+0x60>
    4cf1:	48 8b 15 b8 c4 00 00 	mov    0xc4b8(%rip),%rdx        # 111b0 <stderr@@GLIBC_2.2.5+0x50>
    4cf8:	83 c3 01             	add    $0x1,%ebx
    4cfb:	48 8d 14 ca          	lea    (%rdx,%rcx,8),%rdx
    4cff:	48 8b 0a             	mov    (%rdx),%rcx
    4d02:	48 8b 79 08          	mov    0x8(%rcx),%rdi
    4d06:	48 01 ef             	add    %rbp,%rdi
    4d09:	48 89 f9             	mov    %rdi,%rcx
    4d0c:	83 f8 0a             	cmp    $0xa,%eax
    4d0f:	0f 84 13 04 00 00    	je     5128 <bfd_seek@plt+0x24f8>
    4d15:	88 01                	mov    %al,(%rcx)
    4d17:	48 83 c5 01          	add    $0x1,%rbp
    4d1b:	41 39 dc             	cmp    %ebx,%r12d
    4d1e:	75 ae                	jne    4cce <bfd_seek@plt+0x209e>
    4d20:	45 89 e1             	mov    %r12d,%r9d
    4d23:	8b 6c 24 28          	mov    0x28(%rsp),%ebp
    4d27:	4c 8b 64 24 30       	mov    0x30(%rsp),%r12
    4d2c:	48 8b 0a             	mov    (%rdx),%rcx
    4d2f:	44 89 0d 72 c4 00 00 	mov    %r9d,0xc472(%rip)        # 111a8 <stderr@@GLIBC_2.2.5+0x48>
    4d36:	44 89 ce             	mov    %r9d,%esi
    4d39:	44 89 49 1c          	mov    %r9d,0x1c(%rcx)
    4d3d:	c7 44 24 28 00 00 00 	movl   $0x0,0x28(%rsp)
    4d44:	00 
    4d45:	eb 35                	jmp    4d7c <bfd_seek@plt+0x214c>
    4d47:	c7 05 57 c4 00 00 00 	movl   $0x0,0xc457(%rip)        # 111a8 <stderr@@GLIBC_2.2.5+0x48>
    4d4e:	00 00 00 
    4d51:	c7 42 1c 00 00 00 00 	movl   $0x0,0x1c(%rdx)
    4d58:	85 ed                	test   %ebp,%ebp
    4d5a:	0f 84 2d 02 00 00    	je     4f8d <bfd_seek@plt+0x235d>
    4d60:	49 8d 14 d9          	lea    (%r9,%rbx,8),%rdx
    4d64:	c7 44 24 28 02 00 00 	movl   $0x2,0x28(%rsp)
    4d6b:	00 
    4d6c:	8b 35 36 c4 00 00    	mov    0xc436(%rip),%esi        # 111a8 <stderr@@GLIBC_2.2.5+0x48>
    4d72:	48 8b 0a             	mov    (%rdx),%rcx
    4d75:	c7 41 38 02 00 00 00 	movl   $0x2,0x38(%rcx)
    4d7c:	48 8b 79 08          	mov    0x8(%rcx),%rdi
    4d80:	01 f5                	add    %esi,%ebp
    4d82:	3b 69 18             	cmp    0x18(%rcx),%ebp
    4d85:	0f 8f 9b 00 00 00    	jg     4e26 <bfd_seek@plt+0x21f6>
    4d8b:	89 2d 17 c4 00 00    	mov    %ebp,0xc417(%rip)        # 111a8 <stderr@@GLIBC_2.2.5+0x48>
    4d91:	48 63 ed             	movslq %ebp,%rbp
    4d94:	c6 04 2f 00          	movb   $0x0,(%rdi,%rbp,1)
    4d98:	48 8b 02             	mov    (%rdx),%rax
    4d9b:	48 8b 40 08          	mov    0x8(%rax),%rax
    4d9f:	c6 44 28 01 00       	movb   $0x0,0x1(%rax,%rbp,1)
    4da4:	48 8b 02             	mov    (%rdx),%rax
    4da7:	48 8b 48 08          	mov    0x8(%rax),%rcx
    4dab:	8b 44 24 28          	mov    0x28(%rsp),%eax
    4daf:	48 89 0d ea c5 00 00 	mov    %rcx,0xc5ea(%rip)        # 113a0 <stderr@@GLIBC_2.2.5+0x240>
    4db6:	83 f8 01             	cmp    $0x1,%eax
    4db9:	0f 84 65 fd ff ff    	je     4b24 <bfd_seek@plt+0x1ef4>
    4dbf:	4d 89 e2             	mov    %r12,%r10
    4dc2:	83 f8 02             	cmp    $0x2,%eax
    4dc5:	0f 84 b2 01 00 00    	je     4f7d <bfd_seek@plt+0x234d>
    4dcb:	4c 63 4c 24 3c       	movslq 0x3c(%rsp),%r9
    4dd0:	48 8b 5c 24 08       	mov    0x8(%rsp),%rbx
    4dd5:	4c 89 64 24 20       	mov    %r12,0x20(%rsp)
    4dda:	49 01 c9             	add    %rcx,%r9
    4ddd:	4c 89 0d bc c3 00 00 	mov    %r9,0xc3bc(%rip)        # 111a0 <stderr@@GLIBC_2.2.5+0x40>
    4de4:	4c 89 4c 24 08       	mov    %r9,0x8(%rsp)
    4de9:	e8 52 f3 ff ff       	callq  4140 <bfd_seek@plt+0x1510>
    4dee:	4c 8b 4c 24 08       	mov    0x8(%rsp),%r9
    4df3:	4c 8b 54 24 20       	mov    0x20(%rsp),%r10
    4df8:	4c 8d 05 81 68 00 00 	lea    0x6881(%rip),%r8        # b680 <bfd_seek@plt+0x8a50>
    4dff:	89 c2                	mov    %eax,%edx
    4e01:	48 8b 05 98 c5 00 00 	mov    0xc598(%rip),%rax        # 113a0 <stderr@@GLIBC_2.2.5+0x240>
    4e08:	48 89 44 24 10       	mov    %rax,0x10(%rsp)
    4e0d:	48 63 c2             	movslq %edx,%rax
    4e10:	89 54 24 08          	mov    %edx,0x8(%rsp)
    4e14:	41 0f b6 31          	movzbl (%r9),%esi
    4e18:	45 0f b7 2c 42       	movzwl (%r10,%rax,2),%r13d
    4e1d:	0f bf 04 43          	movswl (%rbx,%rax,2),%eax
    4e21:	e9 fa f8 ff ff       	jmpq   4720 <bfd_seek@plt+0x1af0>
    4e26:	d1 fe                	sar    %esi
    4e28:	48 89 4c 24 40       	mov    %rcx,0x40(%rsp)
    4e2d:	8d 1c 2e             	lea    (%rsi,%rbp,1),%ebx
    4e30:	48 89 54 24 30       	mov    %rdx,0x30(%rsp)
    4e35:	48 63 f3             	movslq %ebx,%rsi
    4e38:	e8 53 dc ff ff       	callq  2a90 <realloc@plt>
    4e3d:	48 8b 4c 24 40       	mov    0x40(%rsp),%rcx
    4e42:	48 8b 54 24 30       	mov    0x30(%rsp),%rdx
    4e47:	4c 8d 05 32 68 00 00 	lea    0x6832(%rip),%r8        # b680 <bfd_seek@plt+0x8a50>
    4e4e:	48 89 41 08          	mov    %rax,0x8(%rcx)
    4e52:	48 8b 02             	mov    (%rdx),%rax
    4e55:	48 8b 78 08          	mov    0x8(%rax),%rdi
    4e59:	48 85 ff             	test   %rdi,%rdi
    4e5c:	0f 84 b7 02 00 00    	je     5119 <bfd_seek@plt+0x24e9>
    4e62:	83 eb 02             	sub    $0x2,%ebx
    4e65:	89 58 18             	mov    %ebx,0x18(%rax)
    4e68:	e9 1e ff ff ff       	jmpq   4d8b <bfd_seek@plt+0x215b>
    4e6d:	48 89 54 24 48       	mov    %rdx,0x48(%rsp)
    4e72:	44 89 4c 24 30       	mov    %r9d,0x30(%rsp)
    4e77:	e8 44 d8 ff ff       	callq  26c0 <__errno_location@plt>
    4e7c:	48 8b 54 24 48       	mov    0x48(%rsp),%rdx
    4e81:	c7 00 00 00 00 00    	movl   $0x0,(%rax)
    4e87:	48 89 c3             	mov    %rax,%rbx
    4e8a:	48 63 44 24 30       	movslq 0x30(%rsp),%rax
    4e8f:	48 89 44 24 30       	mov    %rax,0x30(%rsp)
    4e94:	48 63 c5             	movslq %ebp,%rax
    4e97:	48 89 44 24 40       	mov    %rax,0x40(%rsp)
    4e9c:	eb 4a                	jmp    4ee8 <bfd_seek@plt+0x22b8>
    4e9e:	66 90                	xchg   %ax,%ax
    4ea0:	48 8b 3d d9 c2 00 00 	mov    0xc2d9(%rip),%rdi        # 11180 <stderr@@GLIBC_2.2.5+0x20>
    4ea7:	e8 54 d8 ff ff       	callq  2700 <ferror@plt>
    4eac:	4c 8d 05 cd 67 00 00 	lea    0x67cd(%rip),%r8        # b680 <bfd_seek@plt+0x8a50>
    4eb3:	85 c0                	test   %eax,%eax
    4eb5:	0f 84 ed 01 00 00    	je     50a8 <bfd_seek@plt+0x2478>
    4ebb:	83 3b 04             	cmpl   $0x4,(%rbx)
    4ebe:	0f 85 d3 01 00 00    	jne    5097 <bfd_seek@plt+0x2467>
    4ec4:	c7 03 00 00 00 00    	movl   $0x0,(%rbx)
    4eca:	48 8b 3d af c2 00 00 	mov    0xc2af(%rip),%rdi        # 11180 <stderr@@GLIBC_2.2.5+0x20>
    4ed1:	e8 da da ff ff       	callq  29b0 <clearerr@plt>
    4ed6:	48 8b 15 e3 c2 00 00 	mov    0xc2e3(%rip),%rdx        # 111c0 <stderr@@GLIBC_2.2.5+0x60>
    4edd:	48 8b 05 cc c2 00 00 	mov    0xc2cc(%rip),%rax        # 111b0 <stderr@@GLIBC_2.2.5+0x50>
    4ee4:	48 8b 14 d0          	mov    (%rax,%rdx,8),%rdx
    4ee8:	48 8b 7c 24 40       	mov    0x40(%rsp),%rdi
    4eed:	48 03 7a 08          	add    0x8(%rdx),%rdi
    4ef1:	be 01 00 00 00       	mov    $0x1,%esi
    4ef6:	48 8b 0d 83 c2 00 00 	mov    0xc283(%rip),%rcx        # 11180 <stderr@@GLIBC_2.2.5+0x20>
    4efd:	48 8b 54 24 30       	mov    0x30(%rsp),%rdx
    4f02:	e8 39 d8 ff ff       	callq  2740 <fread@plt>
    4f07:	4c 8d 05 72 67 00 00 	lea    0x6772(%rip),%r8        # b680 <bfd_seek@plt+0x8a50>
    4f0e:	85 c0                	test   %eax,%eax
    4f10:	89 05 92 c2 00 00    	mov    %eax,0xc292(%rip)        # 111a8 <stderr@@GLIBC_2.2.5+0x48>
    4f16:	89 c6                	mov    %eax,%esi
    4f18:	74 86                	je     4ea0 <bfd_seek@plt+0x2270>
    4f1a:	48 8b 1d 9f c2 00 00 	mov    0xc29f(%rip),%rbx        # 111c0 <stderr@@GLIBC_2.2.5+0x60>
    4f21:	4c 8b 0d 88 c2 00 00 	mov    0xc288(%rip),%r9        # 111b0 <stderr@@GLIBC_2.2.5+0x50>
    4f28:	49 8d 14 d9          	lea    (%r9,%rbx,8),%rdx
    4f2c:	48 8b 0a             	mov    (%rdx),%rcx
    4f2f:	89 41 1c             	mov    %eax,0x1c(%rcx)
    4f32:	e9 45 fe ff ff       	jmpq   4d7c <bfd_seek@plt+0x214c>
    4f37:	4d 89 e2             	mov    %r12,%r10
    4f3a:	49 8b 04 d9          	mov    (%r9,%rbx,8),%rax
    4f3e:	4c 63 0d 63 c2 00 00 	movslq 0xc263(%rip),%r9        # 111a8 <stderr@@GLIBC_2.2.5+0x48>
    4f45:	4c 89 54 24 20       	mov    %r10,0x20(%rsp)
    4f4a:	4c 03 48 08          	add    0x8(%rax),%r9
    4f4e:	4c 89 0d 4b c2 00 00 	mov    %r9,0xc24b(%rip)        # 111a0 <stderr@@GLIBC_2.2.5+0x40>
    4f55:	4d 89 cc             	mov    %r9,%r12
    4f58:	e8 e3 f1 ff ff       	callq  4140 <bfd_seek@plt+0x1510>
    4f5d:	48 8b 3d 3c c4 00 00 	mov    0xc43c(%rip),%rdi        # 113a0 <stderr@@GLIBC_2.2.5+0x240>
    4f64:	4c 8b 54 24 20       	mov    0x20(%rsp),%r10
    4f69:	4c 8d 05 10 67 00 00 	lea    0x6710(%rip),%r8        # b680 <bfd_seek@plt+0x8a50>
    4f70:	48 63 c8             	movslq %eax,%rcx
    4f73:	48 89 7c 24 10       	mov    %rdi,0x10(%rsp)
    4f78:	e9 75 f8 ff ff       	jmpq   47f2 <bfd_seek@plt+0x1bc2>
    4f7d:	4c 8b 0d 2c c2 00 00 	mov    0xc22c(%rip),%r9        # 111b0 <stderr@@GLIBC_2.2.5+0x50>
    4f84:	48 8b 1d 35 c2 00 00 	mov    0xc235(%rip),%rbx        # 111c0 <stderr@@GLIBC_2.2.5+0x60>
    4f8b:	eb ad                	jmp    4f3a <bfd_seek@plt+0x230a>
    4f8d:	48 8b 3d ec c1 00 00 	mov    0xc1ec(%rip),%rdi        # 11180 <stderr@@GLIBC_2.2.5+0x20>
    4f94:	e8 47 f6 ff ff       	callq  45e0 <bfd_seek@plt+0x19b0>
    4f99:	48 8b 1d 20 c2 00 00 	mov    0xc220(%rip),%rbx        # 111c0 <stderr@@GLIBC_2.2.5+0x60>
    4fa0:	4c 8b 0d 09 c2 00 00 	mov    0xc209(%rip),%r9        # 111b0 <stderr@@GLIBC_2.2.5+0x50>
    4fa7:	c7 44 24 28 01 00 00 	movl   $0x1,0x28(%rsp)
    4fae:	00 
    4faf:	8b 35 f3 c1 00 00    	mov    0xc1f3(%rip),%esi        # 111a8 <stderr@@GLIBC_2.2.5+0x48>
    4fb5:	4c 8d 05 c4 66 00 00 	lea    0x66c4(%rip),%r8        # b680 <bfd_seek@plt+0x8a50>
    4fbc:	49 8d 14 d9          	lea    (%r9,%rbx,8),%rdx
    4fc0:	48 8b 0a             	mov    (%rdx),%rcx
    4fc3:	e9 b4 fd ff ff       	jmpq   4d7c <bfd_seek@plt+0x214c>
    4fc8:	48 8d 3d a9 64 00 00 	lea    0x64a9(%rip),%rdi        # b478 <bfd_seek@plt+0x8848>
    4fcf:	e8 9c f2 ff ff       	callq  4270 <bfd_seek@plt+0x1640>
    4fd4:	4c 63 4c 24 3c       	movslq 0x3c(%rsp),%r9
    4fd9:	4c 89 64 24 10       	mov    %r12,0x10(%rsp)
    4fde:	4e 8d 24 09          	lea    (%rcx,%r9,1),%r12
    4fe2:	4c 89 25 b7 c1 00 00 	mov    %r12,0xc1b7(%rip)        # 111a0 <stderr@@GLIBC_2.2.5+0x40>
    4fe9:	e8 52 f1 ff ff       	callq  4140 <bfd_seek@plt+0x1510>
    4fee:	4c 8b 54 24 10       	mov    0x10(%rsp),%r10
    4ff3:	4c 8d 05 86 66 00 00 	lea    0x6686(%rip),%r8        # b680 <bfd_seek@plt+0x8a50>
    4ffa:	48 63 c8             	movslq %eax,%rcx
    4ffd:	66 41 83 3c 4a 00    	cmpw   $0x0,(%r10,%rcx,2)
    5003:	48 89 ca             	mov    %rcx,%rdx
    5006:	74 0d                	je     5015 <bfd_seek@plt+0x23e5>
    5008:	89 0d 82 c1 00 00    	mov    %ecx,0xc182(%rip)        # 11190 <stderr@@GLIBC_2.2.5+0x30>
    500e:	4c 89 25 73 c1 00 00 	mov    %r12,0xc173(%rip)        # 11188 <stderr@@GLIBC_2.2.5+0x28>
    5015:	48 8b 44 24 08       	mov    0x8(%rsp),%rax
    501a:	0f bf 04 48          	movswl (%rax,%rcx,2),%eax
    501e:	83 c0 01             	add    $0x1,%eax
    5021:	48 98                	cltq   
    5023:	41 0f bf 34 40       	movswl (%r8,%rax,2),%esi
    5028:	39 f2                	cmp    %esi,%edx
    502a:	74 1c                	je     5048 <bfd_seek@plt+0x2418>
    502c:	49 0f bf 14 57       	movswq (%r15,%rdx,2),%rdx
    5031:	48 8b 44 24 08       	mov    0x8(%rsp),%rax
    5036:	0f bf 04 50          	movswl (%rax,%rdx,2),%eax
    503a:	83 c0 01             	add    $0x1,%eax
    503d:	48 98                	cltq   
    503f:	41 0f bf 3c 40       	movswl (%r8,%rax,2),%edi
    5044:	39 fa                	cmp    %edi,%edx
    5046:	75 e4                	jne    502c <bfd_seek@plt+0x23fc>
    5048:	48 8d 3d 31 68 00 00 	lea    0x6831(%rip),%rdi        # b880 <bfd_seek@plt+0x8c50>
    504f:	0f bf 14 47          	movswl (%rdi,%rax,2),%edx
    5053:	48 8b 05 46 c3 00 00 	mov    0xc346(%rip),%rax        # 113a0 <stderr@@GLIBC_2.2.5+0x240>
    505a:	48 89 44 24 10       	mov    %rax,0x10(%rsp)
    505f:	81 fa b0 00 00 00    	cmp    $0xb0,%edx
    5065:	0f 84 87 f7 ff ff    	je     47f2 <bfd_seek@plt+0x1bc2>
    506b:	85 d2                	test   %edx,%edx
    506d:	0f 84 7f f7 ff ff    	je     47f2 <bfd_seek@plt+0x1bc2>
    5073:	4d 89 e1             	mov    %r12,%r9
    5076:	48 8b 5c 24 08       	mov    0x8(%rsp),%rbx
    507b:	49 83 c1 01          	add    $0x1,%r9
    507f:	4c 89 0d 1a c1 00 00 	mov    %r9,0xc11a(%rip)        # 111a0 <stderr@@GLIBC_2.2.5+0x40>
    5086:	e9 82 fd ff ff       	jmpq   4e0d <bfd_seek@plt+0x21dd>
    508b:	48 8d 3d 7e 64 00 00 	lea    0x647e(%rip),%rdi        # b510 <bfd_seek@plt+0x88e0>
    5092:	e8 d9 f1 ff ff       	callq  4270 <bfd_seek@plt+0x1640>
    5097:	48 8d 3d 36 63 00 00 	lea    0x6336(%rip),%rdi        # b3d4 <bfd_seek@plt+0x87a4>
    509e:	e8 cd f1 ff ff       	callq  4270 <bfd_seek@plt+0x1640>
    50a3:	0f 1f 44 00 00       	nopl   0x0(%rax,%rax,1)
    50a8:	48 8b 1d 11 c1 00 00 	mov    0xc111(%rip),%rbx        # 111c0 <stderr@@GLIBC_2.2.5+0x60>
    50af:	4c 8b 0d fa c0 00 00 	mov    0xc0fa(%rip),%r9        # 111b0 <stderr@@GLIBC_2.2.5+0x50>
    50b6:	49 8b 04 d9          	mov    (%r9,%rbx,8),%rax
    50ba:	c7 40 1c 00 00 00 00 	movl   $0x0,0x1c(%rax)
    50c1:	e9 92 fc ff ff       	jmpq   4d58 <bfd_seek@plt+0x2128>
    50c6:	48 8b 3d b3 c0 00 00 	mov    0xc0b3(%rip),%rdi        # 11180 <stderr@@GLIBC_2.2.5+0x20>
    50cd:	8b 6c 24 28          	mov    0x28(%rsp),%ebp
    50d1:	89 5c 24 28          	mov    %ebx,0x28(%rsp)
    50d5:	4c 8b 64 24 30       	mov    0x30(%rsp),%r12
    50da:	e8 21 d6 ff ff       	callq  2700 <ferror@plt>
    50df:	85 c0                	test   %eax,%eax
    50e1:	75 b4                	jne    5097 <bfd_seek@plt+0x2467>
    50e3:	48 8b 1d d6 c0 00 00 	mov    0xc0d6(%rip),%rbx        # 111c0 <stderr@@GLIBC_2.2.5+0x60>
    50ea:	4c 8b 0d bf c0 00 00 	mov    0xc0bf(%rip),%r9        # 111b0 <stderr@@GLIBC_2.2.5+0x50>
    50f1:	4c 8d 05 88 65 00 00 	lea    0x6588(%rip),%r8        # b680 <bfd_seek@plt+0x8a50>
    50f8:	8b 74 24 28          	mov    0x28(%rsp),%esi
    50fc:	49 8d 14 d9          	lea    (%r9,%rbx,8),%rdx
    5100:	48 8b 0a             	mov    (%rdx),%rcx
    5103:	85 f6                	test   %esi,%esi
    5105:	89 35 9d c0 00 00    	mov    %esi,0xc09d(%rip)        # 111a8 <stderr@@GLIBC_2.2.5+0x48>
    510b:	89 71 1c             	mov    %esi,0x1c(%rcx)
    510e:	0f 85 29 fc ff ff    	jne    4d3d <bfd_seek@plt+0x210d>
    5114:	e9 3f fc ff ff       	jmpq   4d58 <bfd_seek@plt+0x2128>
    5119:	48 8d 3d c0 63 00 00 	lea    0x63c0(%rip),%rdi        # b4e0 <bfd_seek@plt+0x88b0>
    5120:	e8 4b f1 ff ff       	callq  4270 <bfd_seek@plt+0x1640>
    5125:	0f 1f 00             	nopl   (%rax)
    5128:	8b 6c 24 28          	mov    0x28(%rsp),%ebp
    512c:	4c 8b 64 24 30       	mov    0x30(%rsp),%r12
    5131:	c6 07 0a             	movb   $0xa,(%rdi)
    5134:	41 89 d9             	mov    %ebx,%r9d
    5137:	e9 f0 fb ff ff       	jmpq   4d2c <bfd_seek@plt+0x20fc>
    513c:	0f 1f 40 00          	nopl   0x0(%rax)
    5140:	f3 0f 1e fa          	endbr64 
    5144:	48 85 ff             	test   %rdi,%rdi
    5147:	0f 84 a3 00 00 00    	je     51f0 <bfd_seek@plt+0x25c0>
    514d:	53                   	push   %rbx
    514e:	48 89 fb             	mov    %rdi,%rbx
    5151:	e8 4a f1 ff ff       	callq  42a0 <bfd_seek@plt+0x1670>
    5156:	48 8b 05 63 c0 00 00 	mov    0xc063(%rip),%rax        # 111c0 <stderr@@GLIBC_2.2.5+0x60>
    515d:	48 8b 15 4c c0 00 00 	mov    0xc04c(%rip),%rdx        # 111b0 <stderr@@GLIBC_2.2.5+0x50>
    5164:	48 c1 e0 03          	shl    $0x3,%rax
    5168:	48 85 d2             	test   %rdx,%rdx
    516b:	74 4b                	je     51b8 <bfd_seek@plt+0x2588>
    516d:	48 8b 0d 4c c0 00 00 	mov    0xc04c(%rip),%rcx        # 111c0 <stderr@@GLIBC_2.2.5+0x60>
    5174:	48 8d 34 cd 00 00 00 	lea    0x0(,%rcx,8),%rsi
    517b:	00 
    517c:	48 8d 04 32          	lea    (%rdx,%rsi,1),%rax
    5180:	48 83 38 00          	cmpq   $0x0,(%rax)
    5184:	74 32                	je     51b8 <bfd_seek@plt+0x2588>
    5186:	48 8b 3d 13 c0 00 00 	mov    0xc013(%rip),%rdi        # 111a0 <stderr@@GLIBC_2.2.5+0x40>
    518d:	44 0f b6 05 17 c0 00 	movzbl 0xc017(%rip),%r8d        # 111ac <stderr@@GLIBC_2.2.5+0x4c>
    5194:	00 
    5195:	48 83 c1 01          	add    $0x1,%rcx
    5199:	48 89 0d 20 c0 00 00 	mov    %rcx,0xc020(%rip)        # 111c0 <stderr@@GLIBC_2.2.5+0x60>
    51a0:	44 88 07             	mov    %r8b,(%rdi)
    51a3:	48 8b 00             	mov    (%rax),%rax
    51a6:	48 89 78 10          	mov    %rdi,0x10(%rax)
    51aa:	8b 3d f8 bf 00 00    	mov    0xbff8(%rip),%edi        # 111a8 <stderr@@GLIBC_2.2.5+0x48>
    51b0:	89 78 1c             	mov    %edi,0x1c(%rax)
    51b3:	48 8d 44 32 08       	lea    0x8(%rdx,%rsi,1),%rax
    51b8:	48 89 18             	mov    %rbx,(%rax)
    51bb:	8b 43 1c             	mov    0x1c(%rbx),%eax
    51be:	48 8b 13             	mov    (%rbx),%rdx
    51c1:	89 05 e1 bf 00 00    	mov    %eax,0xbfe1(%rip)        # 111a8 <stderr@@GLIBC_2.2.5+0x48>
    51c7:	48 8b 43 10          	mov    0x10(%rbx),%rax
    51cb:	48 89 15 ae bf 00 00 	mov    %rdx,0xbfae(%rip)        # 11180 <stderr@@GLIBC_2.2.5+0x20>
    51d2:	5b                   	pop    %rbx
    51d3:	48 89 05 c6 bf 00 00 	mov    %rax,0xbfc6(%rip)        # 111a0 <stderr@@GLIBC_2.2.5+0x40>
    51da:	48 89 05 bf c1 00 00 	mov    %rax,0xc1bf(%rip)        # 113a0 <stderr@@GLIBC_2.2.5+0x240>
    51e1:	0f b6 00             	movzbl (%rax),%eax
    51e4:	88 05 c2 bf 00 00    	mov    %al,0xbfc2(%rip)        # 111ac <stderr@@GLIBC_2.2.5+0x4c>
    51ea:	c3                   	retq   
    51eb:	0f 1f 44 00 00       	nopl   0x0(%rax,%rax,1)
    51f0:	c3                   	retq   
    51f1:	66 66 2e 0f 1f 84 00 	data16 nopw %cs:0x0(%rax,%rax,1)
    51f8:	00 00 00 00 
    51fc:	0f 1f 40 00          	nopl   0x0(%rax)
    5200:	f3 0f 1e fa          	endbr64 
    5204:	41 54                	push   %r12
    5206:	55                   	push   %rbp
    5207:	48 8b 2d a2 bf 00 00 	mov    0xbfa2(%rip),%rbp        # 111b0 <stderr@@GLIBC_2.2.5+0x50>
    520e:	53                   	push   %rbx
    520f:	48 85 ed             	test   %rbp,%rbp
    5212:	74 6a                	je     527e <bfd_seek@plt+0x264e>
    5214:	48 8b 1d a5 bf 00 00 	mov    0xbfa5(%rip),%rbx        # 111c0 <stderr@@GLIBC_2.2.5+0x60>
    521b:	4c 8d 64 dd 00       	lea    0x0(%rbp,%rbx,8),%r12
    5220:	49 8b 3c 24          	mov    (%r12),%rdi
    5224:	48 85 ff             	test   %rdi,%rdi
    5227:	74 55                	je     527e <bfd_seek@plt+0x264e>
    5229:	e8 e2 f1 ff ff       	callq  4410 <bfd_seek@plt+0x17e0>
    522e:	49 c7 04 24 00 00 00 	movq   $0x0,(%r12)
    5235:	00 
    5236:	48 85 db             	test   %rbx,%rbx
    5239:	74 43                	je     527e <bfd_seek@plt+0x264e>
    523b:	48 83 eb 01          	sub    $0x1,%rbx
    523f:	48 8b 44 dd 00       	mov    0x0(%rbp,%rbx,8),%rax
    5244:	48 89 1d 75 bf 00 00 	mov    %rbx,0xbf75(%rip)        # 111c0 <stderr@@GLIBC_2.2.5+0x60>
    524b:	48 85 c0             	test   %rax,%rax
    524e:	74 2e                	je     527e <bfd_seek@plt+0x264e>
    5250:	8b 50 1c             	mov    0x1c(%rax),%edx
    5253:	89 15 4f bf 00 00    	mov    %edx,0xbf4f(%rip)        # 111a8 <stderr@@GLIBC_2.2.5+0x48>
    5259:	48 8b 50 10          	mov    0x10(%rax),%rdx
    525d:	48 8b 00             	mov    (%rax),%rax
    5260:	48 89 15 39 c1 00 00 	mov    %rdx,0xc139(%rip)        # 113a0 <stderr@@GLIBC_2.2.5+0x240>
    5267:	48 89 05 12 bf 00 00 	mov    %rax,0xbf12(%rip)        # 11180 <stderr@@GLIBC_2.2.5+0x20>
    526e:	0f b6 02             	movzbl (%rdx),%eax
    5271:	48 89 15 28 bf 00 00 	mov    %rdx,0xbf28(%rip)        # 111a0 <stderr@@GLIBC_2.2.5+0x40>
    5278:	88 05 2e bf 00 00    	mov    %al,0xbf2e(%rip)        # 111ac <stderr@@GLIBC_2.2.5+0x4c>
    527e:	5b                   	pop    %rbx
    527f:	5d                   	pop    %rbp
    5280:	41 5c                	pop    %r12
    5282:	c3                   	retq   
    5283:	66 66 2e 0f 1f 84 00 	data16 nopw %cs:0x0(%rax,%rax,1)
    528a:	00 00 00 00 
    528e:	66 90                	xchg   %ax,%ax
    5290:	f3 0f 1e fa          	endbr64 
    5294:	41 54                	push   %r12
    5296:	55                   	push   %rbp
    5297:	53                   	push   %rbx
    5298:	48 83 fe 01          	cmp    $0x1,%rsi
    529c:	76 6a                	jbe    5308 <bfd_seek@plt+0x26d8>
    529e:	80 7c 37 fe 00       	cmpb   $0x0,-0x2(%rdi,%rsi,1)
    52a3:	48 89 fd             	mov    %rdi,%rbp
    52a6:	48 89 f3             	mov    %rsi,%rbx
    52a9:	75 5d                	jne    5308 <bfd_seek@plt+0x26d8>
    52ab:	80 7c 37 ff 00       	cmpb   $0x0,-0x1(%rdi,%rsi,1)
    52b0:	75 56                	jne    5308 <bfd_seek@plt+0x26d8>
    52b2:	bf 40 00 00 00       	mov    $0x40,%edi
    52b7:	e8 64 d7 ff ff       	callq  2a20 <malloc@plt>
    52bc:	49 89 c4             	mov    %rax,%r12
    52bf:	48 85 c0             	test   %rax,%rax
    52c2:	74 4f                	je     5313 <bfd_seek@plt+0x26e3>
    52c4:	83 eb 02             	sub    $0x2,%ebx
    52c7:	48 89 68 08          	mov    %rbp,0x8(%rax)
    52cb:	48 89 c7             	mov    %rax,%rdi
    52ce:	89 58 18             	mov    %ebx,0x18(%rax)
    52d1:	48 89 68 10          	mov    %rbp,0x10(%rax)
    52d5:	89 58 1c             	mov    %ebx,0x1c(%rax)
    52d8:	48 c7 00 00 00 00 00 	movq   $0x0,(%rax)
    52df:	48 c7 40 20 00 00 00 	movq   $0x0,0x20(%rax)
    52e6:	00 
    52e7:	c7 40 28 01 00 00 00 	movl   $0x1,0x28(%rax)
    52ee:	48 c7 40 34 00 00 00 	movq   $0x0,0x34(%rax)
    52f5:	00 
    52f6:	e8 75 f0 ff ff       	callq  4370 <bfd_seek@plt+0x1740>
    52fb:	4c 89 e0             	mov    %r12,%rax
    52fe:	5b                   	pop    %rbx
    52ff:	5d                   	pop    %rbp
    5300:	41 5c                	pop    %r12
    5302:	c3                   	retq   
    5303:	0f 1f 44 00 00       	nopl   0x0(%rax,%rax,1)
    5308:	45 31 e4             	xor    %r12d,%r12d
    530b:	5b                   	pop    %rbx
    530c:	5d                   	pop    %rbp
    530d:	4c 89 e0             	mov    %r12,%rax
    5310:	41 5c                	pop    %r12
    5312:	c3                   	retq   
    5313:	48 8d 3d 2e 62 00 00 	lea    0x622e(%rip),%rdi        # b548 <bfd_seek@plt+0x8918>
    531a:	e8 51 ef ff ff       	callq  4270 <bfd_seek@plt+0x1640>
    531f:	90                   	nop
    5320:	f3 0f 1e fa          	endbr64 
    5324:	41 54                	push   %r12
    5326:	55                   	push   %rbp
    5327:	48 63 ee             	movslq %esi,%rbp
    532a:	53                   	push   %rbx
    532b:	44 8d 65 02          	lea    0x2(%rbp),%r12d
    532f:	48 89 fb             	mov    %rdi,%rbx
    5332:	4d 63 e4             	movslq %r12d,%r12
    5335:	4c 89 e7             	mov    %r12,%rdi
    5338:	e8 e3 d6 ff ff       	callq  2a20 <malloc@plt>
    533d:	48 85 c0             	test   %rax,%rax
    5340:	74 43                	je     5385 <bfd_seek@plt+0x2755>
    5342:	48 89 c7             	mov    %rax,%rdi
    5345:	31 d2                	xor    %edx,%edx
    5347:	8d 45 ff             	lea    -0x1(%rbp),%eax
    534a:	85 ed                	test   %ebp,%ebp
    534c:	7e 15                	jle    5363 <bfd_seek@plt+0x2733>
    534e:	66 90                	xchg   %ax,%ax
    5350:	0f b6 0c 13          	movzbl (%rbx,%rdx,1),%ecx
    5354:	88 0c 17             	mov    %cl,(%rdi,%rdx,1)
    5357:	48 89 d1             	mov    %rdx,%rcx
    535a:	48 83 c2 01          	add    $0x1,%rdx
    535e:	48 39 c8             	cmp    %rcx,%rax
    5361:	75 ed                	jne    5350 <bfd_seek@plt+0x2720>
    5363:	c6 44 2f 01 00       	movb   $0x0,0x1(%rdi,%rbp,1)
    5368:	4c 89 e6             	mov    %r12,%rsi
    536b:	c6 04 2f 00          	movb   $0x0,(%rdi,%rbp,1)
    536f:	e8 1c ff ff ff       	callq  5290 <bfd_seek@plt+0x2660>
    5374:	48 85 c0             	test   %rax,%rax
    5377:	74 18                	je     5391 <bfd_seek@plt+0x2761>
    5379:	c7 40 20 01 00 00 00 	movl   $0x1,0x20(%rax)
    5380:	5b                   	pop    %rbx
    5381:	5d                   	pop    %rbp
    5382:	41 5c                	pop    %r12
    5384:	c3                   	retq   
    5385:	48 8d 3d ec 61 00 00 	lea    0x61ec(%rip),%rdi        # b578 <bfd_seek@plt+0x8948>
    538c:	e8 df ee ff ff       	callq  4270 <bfd_seek@plt+0x1640>
    5391:	48 8d 3d 59 60 00 00 	lea    0x6059(%rip),%rdi        # b3f1 <bfd_seek@plt+0x87c1>
    5398:	e8 d3 ee ff ff       	callq  4270 <bfd_seek@plt+0x1640>
    539d:	0f 1f 00             	nopl   (%rax)
    53a0:	f3 0f 1e fa          	endbr64 
    53a4:	55                   	push   %rbp
    53a5:	48 89 fd             	mov    %rdi,%rbp
    53a8:	e8 33 d4 ff ff       	callq  27e0 <strlen@plt>
    53ad:	48 89 ef             	mov    %rbp,%rdi
    53b0:	5d                   	pop    %rbp
    53b1:	48 89 c6             	mov    %rax,%rsi
    53b4:	e9 67 ff ff ff       	jmpq   5320 <bfd_seek@plt+0x26f0>
    53b9:	0f 1f 80 00 00 00 00 	nopl   0x0(%rax)
    53c0:	f3 0f 1e fa          	endbr64 
    53c4:	8b 05 46 bc 00 00    	mov    0xbc46(%rip),%eax        # 11010 <bfd_seek@plt+0xe3e0>
    53ca:	c3                   	retq   
    53cb:	0f 1f 44 00 00       	nopl   0x0(%rax,%rax,1)
    53d0:	f3 0f 1e fa          	endbr64 
    53d4:	48 8b 05 a5 bd 00 00 	mov    0xbda5(%rip),%rax        # 11180 <stderr@@GLIBC_2.2.5+0x20>
    53db:	c3                   	retq   
    53dc:	0f 1f 40 00          	nopl   0x0(%rax)
    53e0:	f3 0f 1e fa          	endbr64 
    53e4:	48 8b 05 8d bd 00 00 	mov    0xbd8d(%rip),%rax        # 11178 <stderr@@GLIBC_2.2.5+0x18>
    53eb:	c3                   	retq   
    53ec:	0f 1f 40 00          	nopl   0x0(%rax)
    53f0:	f3 0f 1e fa          	endbr64 
    53f4:	8b 05 b2 bf 00 00    	mov    0xbfb2(%rip),%eax        # 113ac <stderr@@GLIBC_2.2.5+0x24c>
    53fa:	c3                   	retq   
    53fb:	0f 1f 44 00 00       	nopl   0x0(%rax,%rax,1)
    5400:	f3 0f 1e fa          	endbr64 
    5404:	48 8b 05 95 bf 00 00 	mov    0xbf95(%rip),%rax        # 113a0 <stderr@@GLIBC_2.2.5+0x240>
    540b:	c3                   	retq   
    540c:	0f 1f 40 00          	nopl   0x0(%rax)
    5410:	f3 0f 1e fa          	endbr64 
    5414:	89 3d f6 bb 00 00    	mov    %edi,0xbbf6(%rip)        # 11010 <bfd_seek@plt+0xe3e0>
    541a:	c3                   	retq   
    541b:	0f 1f 44 00 00       	nopl   0x0(%rax,%rax,1)
    5420:	f3 0f 1e fa          	endbr64 
    5424:	48 89 3d 55 bd 00 00 	mov    %rdi,0xbd55(%rip)        # 11180 <stderr@@GLIBC_2.2.5+0x20>
    542b:	c3                   	retq   
    542c:	0f 1f 40 00          	nopl   0x0(%rax)
    5430:	f3 0f 1e fa          	endbr64 
    5434:	48 89 3d 3d bd 00 00 	mov    %rdi,0xbd3d(%rip)        # 11178 <stderr@@GLIBC_2.2.5+0x18>
    543b:	c3                   	retq   
    543c:	0f 1f 40 00          	nopl   0x0(%rax)
    5440:	f3 0f 1e fa          	endbr64 
    5444:	8b 05 26 bd 00 00    	mov    0xbd26(%rip),%eax        # 11170 <stderr@@GLIBC_2.2.5+0x10>
    544a:	c3                   	retq   
    544b:	0f 1f 44 00 00       	nopl   0x0(%rax,%rax,1)
    5450:	f3 0f 1e fa          	endbr64 
    5454:	89 3d 16 bd 00 00    	mov    %edi,0xbd16(%rip)        # 11170 <stderr@@GLIBC_2.2.5+0x10>
    545a:	c3                   	retq   
    545b:	0f 1f 44 00 00       	nopl   0x0(%rax,%rax,1)
    5460:	f3 0f 1e fa          	endbr64 
    5464:	55                   	push   %rbp
    5465:	53                   	push   %rbx
    5466:	48 83 ec 08          	sub    $0x8,%rsp
    546a:	48 8b 2d 3f bd 00 00 	mov    0xbd3f(%rip),%rbp        # 111b0 <stderr@@GLIBC_2.2.5+0x50>
    5471:	48 85 ed             	test   %rbp,%rbp
    5474:	75 1b                	jne    5491 <bfd_seek@plt+0x2861>
    5476:	eb 2d                	jmp    54a5 <bfd_seek@plt+0x2875>
    5478:	0f 1f 84 00 00 00 00 	nopl   0x0(%rax,%rax,1)
    547f:	00 
    5480:	e8 8b ef ff ff       	callq  4410 <bfd_seek@plt+0x17e0>
    5485:	48 c7 03 00 00 00 00 	movq   $0x0,(%rbx)
    548c:	e8 6f fd ff ff       	callq  5200 <bfd_seek@plt+0x25d0>
    5491:	48 8b 05 28 bd 00 00 	mov    0xbd28(%rip),%rax        # 111c0 <stderr@@GLIBC_2.2.5+0x60>
    5498:	48 8d 5c c5 00       	lea    0x0(%rbp,%rax,8),%rbx
    549d:	48 8b 3b             	mov    (%rbx),%rdi
    54a0:	48 85 ff             	test   %rdi,%rdi
    54a3:	75 db                	jne    5480 <bfd_seek@plt+0x2850>
    54a5:	48 89 ef             	mov    %rbp,%rdi
    54a8:	e8 c3 d1 ff ff       	callq  2670 <free@plt>
    54ad:	31 c0                	xor    %eax,%eax
    54af:	48 c7 05 f6 bc 00 00 	movq   $0x0,0xbcf6(%rip)        # 111b0 <stderr@@GLIBC_2.2.5+0x50>
    54b6:	00 00 00 00 
    54ba:	48 c7 05 fb bc 00 00 	movq   $0x0,0xbcfb(%rip)        # 111c0 <stderr@@GLIBC_2.2.5+0x60>
    54c1:	00 00 00 00 
    54c5:	48 c7 05 e8 bc 00 00 	movq   $0x0,0xbce8(%rip)        # 111b8 <stderr@@GLIBC_2.2.5+0x58>
    54cc:	00 00 00 00 
    54d0:	48 c7 05 c5 bc 00 00 	movq   $0x0,0xbcc5(%rip)        # 111a0 <stderr@@GLIBC_2.2.5+0x40>
    54d7:	00 00 00 00 
    54db:	c7 05 b3 bc 00 00 00 	movl   $0x0,0xbcb3(%rip)        # 11198 <stderr@@GLIBC_2.2.5+0x38>
    54e2:	00 00 00 
    54e5:	c7 05 a5 bc 00 00 00 	movl   $0x0,0xbca5(%rip)        # 11194 <stderr@@GLIBC_2.2.5+0x34>
    54ec:	00 00 00 
    54ef:	48 c7 05 86 bc 00 00 	movq   $0x0,0xbc86(%rip)        # 11180 <stderr@@GLIBC_2.2.5+0x20>
    54f6:	00 00 00 00 
    54fa:	48 c7 05 73 bc 00 00 	movq   $0x0,0xbc73(%rip)        # 11178 <stderr@@GLIBC_2.2.5+0x18>
    5501:	00 00 00 00 
    5505:	48 83 c4 08          	add    $0x8,%rsp
    5509:	5b                   	pop    %rbx
    550a:	5d                   	pop    %rbp
    550b:	c3                   	retq   
    550c:	0f 1f 40 00          	nopl   0x0(%rax)
    5510:	f3 0f 1e fa          	endbr64 
    5514:	e9 07 d5 ff ff       	jmpq   2a20 <malloc@plt>
    5519:	0f 1f 80 00 00 00 00 	nopl   0x0(%rax)
    5520:	f3 0f 1e fa          	endbr64 
    5524:	e9 67 d5 ff ff       	jmpq   2a90 <realloc@plt>
    5529:	0f 1f 80 00 00 00 00 	nopl   0x0(%rax)
    5530:	f3 0f 1e fa          	endbr64 
    5534:	e9 37 d1 ff ff       	jmpq   2670 <free@plt>
    5539:	0f 1f 80 00 00 00 00 	nopl   0x0(%rax)
    5540:	8b 05 8e bc 00 00    	mov    0xbc8e(%rip),%eax        # 111d4 <stderr@@GLIBC_2.2.5+0x74>
    5546:	41 54                	push   %r12
    5548:	55                   	push   %rbp
    5549:	53                   	push   %rbx
    554a:	48 89 fb             	mov    %rdi,%rbx
    554d:	85 c0                	test   %eax,%eax
    554f:	74 47                	je     5598 <bfd_seek@plt+0x2968>
    5551:	89 c5                	mov    %eax,%ebp
    5553:	4c 8b 25 7e bc 00 00 	mov    0xbc7e(%rip),%r12        # 111d8 <stderr@@GLIBC_2.2.5+0x78>
    555a:	48 8b 03             	mov    (%rbx),%rax
    555d:	83 fd 03             	cmp    $0x3,%ebp
    5560:	75 26                	jne    5588 <bfd_seek@plt+0x2958>
    5562:	eb 41                	jmp    55a5 <bfd_seek@plt+0x2975>
    5564:	0f 1f 40 00          	nopl   0x0(%rax)
    5568:	48 8b 38             	mov    (%rax),%rdi
    556b:	4c 89 e6             	mov    %r12,%rsi
    556e:	e8 ed d1 ff ff       	callq  2760 <filename_cmp@plt>
    5573:	85 c0                	test   %eax,%eax
    5575:	74 59                	je     55d0 <bfd_seek@plt+0x29a0>
    5577:	48 8b 03             	mov    (%rbx),%rax
    557a:	48 8d 98 d8 00 00 00 	lea    0xd8(%rax),%rbx
    5581:	48 8b 80 d8 00 00 00 	mov    0xd8(%rax),%rax
    5588:	48 85 c0             	test   %rax,%rax
    558b:	75 db                	jne    5568 <bfd_seek@plt+0x2938>
    558d:	48 89 d8             	mov    %rbx,%rax
    5590:	5b                   	pop    %rbx
    5591:	5d                   	pop    %rbp
    5592:	41 5c                	pop    %r12
    5594:	c3                   	retq   
    5595:	0f 1f 00             	nopl   (%rax)
    5598:	89 f5                	mov    %esi,%ebp
    559a:	48 8b 03             	mov    (%rbx),%rax
    559d:	49 89 d4             	mov    %rdx,%r12
    55a0:	83 fd 03             	cmp    $0x3,%ebp
    55a3:	75 e3                	jne    5588 <bfd_seek@plt+0x2958>
    55a5:	48 85 c0             	test   %rax,%rax
    55a8:	74 e3                	je     558d <bfd_seek@plt+0x295d>
    55aa:	66 0f 1f 44 00 00    	nopw   0x0(%rax,%rax,1)
    55b0:	48 89 c3             	mov    %rax,%rbx
    55b3:	48 8b 80 d8 00 00 00 	mov    0xd8(%rax),%rax
    55ba:	48 85 c0             	test   %rax,%rax
    55bd:	75 f1                	jne    55b0 <bfd_seek@plt+0x2980>
    55bf:	48 8d 83 d8 00 00 00 	lea    0xd8(%rbx),%rax
    55c6:	5b                   	pop    %rbx
    55c7:	5d                   	pop    %rbp
    55c8:	41 5c                	pop    %r12
    55ca:	c3                   	retq   
    55cb:	0f 1f 44 00 00       	nopl   0x0(%rax,%rax,1)
    55d0:	48 89 d8             	mov    %rbx,%rax
    55d3:	83 fd 02             	cmp    $0x2,%ebp
    55d6:	75 b8                	jne    5590 <bfd_seek@plt+0x2960>
    55d8:	48 8b 1b             	mov    (%rbx),%rbx
    55db:	48 8d 83 d8 00 00 00 	lea    0xd8(%rbx),%rax
    55e2:	eb e2                	jmp    55c6 <bfd_seek@plt+0x2996>
    55e4:	66 66 2e 0f 1f 84 00 	data16 nopw %cs:0x0(%rax,%rax,1)
    55eb:	00 00 00 00 
    55ef:	90                   	nop
    55f0:	f3 0f 1e fa          	endbr64 
    55f4:	41 57                	push   %r15
    55f6:	41 56                	push   %r14
    55f8:	49 89 fe             	mov    %rdi,%r14
    55fb:	bf 00 20 00 00       	mov    $0x2000,%edi
    5600:	41 55                	push   %r13
    5602:	41 54                	push   %r12
    5604:	55                   	push   %rbp
    5605:	53                   	push   %rbx
    5606:	48 81 ec a8 00 00 00 	sub    $0xa8,%rsp
    560d:	64 48 8b 04 25 28 00 	mov    %fs:0x28,%rax
    5614:	00 00 
    5616:	48 89 84 24 98 00 00 	mov    %rax,0x98(%rsp)
    561d:	00 
    561e:	31 c0                	xor    %eax,%eax
    5620:	e8 7b d2 ff ff       	callq  28a0 <xmalloc@plt>
    5625:	48 89 e6             	mov    %rsp,%rsi
    5628:	4c 89 f7             	mov    %r14,%rdi
    562b:	49 89 c4             	mov    %rax,%r12
    562e:	49 8b 46 08          	mov    0x8(%r14),%rax
    5632:	ff 90 e0 01 00 00    	callq  *0x1e0(%rax)
    5638:	85 c0                	test   %eax,%eax
    563a:	0f 85 1a 01 00 00    	jne    575a <bfd_seek@plt+0x2b2a>
    5640:	8b 05 aa bb 00 00    	mov    0xbbaa(%rip),%eax        # 111f0 <stderr@@GLIBC_2.2.5+0x90>
    5646:	85 c0                	test   %eax,%eax
    5648:	0f 85 aa 00 00 00    	jne    56f8 <bfd_seek@plt+0x2ac8>
    564e:	31 d2                	xor    %edx,%edx
    5650:	31 f6                	xor    %esi,%esi
    5652:	4c 89 f7             	mov    %r14,%rdi
    5655:	e8 d6 d5 ff ff       	callq  2c30 <bfd_seek@plt>
    565a:	4c 8b 6c 24 30       	mov    0x30(%rsp),%r13
    565f:	4d 85 ed             	test   %r13,%r13
    5662:	74 61                	je     56c5 <bfd_seek@plt+0x2a95>
    5664:	31 ed                	xor    %ebp,%ebp
    5666:	66 2e 0f 1f 84 00 00 	nopw   %cs:0x0(%rax,%rax,1)
    566d:	00 00 00 
    5670:	4c 89 e9             	mov    %r13,%rcx
    5673:	41 bf 00 20 00 00    	mov    $0x2000,%r15d
    5679:	4c 89 f2             	mov    %r14,%rdx
    567c:	4c 89 e7             	mov    %r12,%rdi
    567f:	48 29 e9             	sub    %rbp,%rcx
    5682:	48 81 f9 00 20 00 00 	cmp    $0x2000,%rcx
    5689:	4c 0f 46 f9          	cmovbe %rcx,%r15
    568d:	4c 89 fe             	mov    %r15,%rsi
    5690:	e8 5b d5 ff ff       	callq  2bf0 <bfd_bread@plt>
    5695:	48 89 c3             	mov    %rax,%rbx
    5698:	4c 39 f8             	cmp    %r15,%rax
    569b:	0f 85 8f 00 00 00    	jne    5730 <bfd_seek@plt+0x2b00>
    56a1:	48 8b 0d 78 ba 00 00 	mov    0xba78(%rip),%rcx        # 11120 <stdout@@GLIBC_2.2.5>
    56a8:	48 89 c2             	mov    %rax,%rdx
    56ab:	be 01 00 00 00       	mov    $0x1,%esi
    56b0:	4c 89 e7             	mov    %r12,%rdi
    56b3:	e8 f8 d4 ff ff       	callq  2bb0 <fwrite@plt>
    56b8:	48 39 d8             	cmp    %rbx,%rax
    56bb:	75 56                	jne    5713 <bfd_seek@plt+0x2ae3>
    56bd:	48 01 c5             	add    %rax,%rbp
    56c0:	49 39 ed             	cmp    %rbp,%r13
    56c3:	77 ab                	ja     5670 <bfd_seek@plt+0x2a40>
    56c5:	48 8b 84 24 98 00 00 	mov    0x98(%rsp),%rax
    56cc:	00 
    56cd:	64 48 33 04 25 28 00 	xor    %fs:0x28,%rax
    56d4:	00 00 
    56d6:	0f 85 8f 00 00 00    	jne    576b <bfd_seek@plt+0x2b3b>
    56dc:	48 81 c4 a8 00 00 00 	add    $0xa8,%rsp
    56e3:	4c 89 e7             	mov    %r12,%rdi
    56e6:	5b                   	pop    %rbx
    56e7:	5d                   	pop    %rbp
    56e8:	41 5c                	pop    %r12
    56ea:	41 5d                	pop    %r13
    56ec:	41 5e                	pop    %r14
    56ee:	41 5f                	pop    %r15
    56f0:	e9 7b cf ff ff       	jmpq   2670 <free@plt>
    56f5:	0f 1f 00             	nopl   (%rax)
    56f8:	49 8b 16             	mov    (%r14),%rdx
    56fb:	48 8d 35 3a 69 00 00 	lea    0x693a(%rip),%rsi        # c03c <bfd_seek@plt+0x940c>
    5702:	bf 01 00 00 00       	mov    $0x1,%edi
    5707:	31 c0                	xor    %eax,%eax
    5709:	e8 c2 d3 ff ff       	callq  2ad0 <__printf_chk@plt>
    570e:	e9 3b ff ff ff       	jmpq   564e <bfd_seek@plt+0x2a1e>
    5713:	e8 a8 cf ff ff       	callq  26c0 <__errno_location@plt>
    5718:	8b 38                	mov    (%rax),%edi
    571a:	e8 e1 d4 ff ff       	callq  2c00 <strerror@plt>
    571f:	48 8d 3d 38 69 00 00 	lea    0x6938(%rip),%rdi        # c05e <bfd_seek@plt+0x942e>
    5726:	48 89 c6             	mov    %rax,%rsi
    5729:	31 c0                	xor    %eax,%eax
    572b:	e8 00 2d 00 00       	callq  8430 <bfd_seek@plt+0x5800>
    5730:	49 8b 86 d0 00 00 00 	mov    0xd0(%r14),%rax
    5737:	ba 05 00 00 00       	mov    $0x5,%edx
    573c:	48 8d 35 01 69 00 00 	lea    0x6901(%rip),%rsi        # c044 <bfd_seek@plt+0x9414>
    5743:	48 8b 28             	mov    (%rax),%rbp
    5746:	31 ff                	xor    %edi,%edi
    5748:	e8 83 d0 ff ff       	callq  27d0 <dcgettext@plt>
    574d:	48 89 ee             	mov    %rbp,%rsi
    5750:	48 89 c7             	mov    %rax,%rdi
    5753:	31 c0                	xor    %eax,%eax
    5755:	e8 d6 2c 00 00       	callq  8430 <bfd_seek@plt+0x5800>
    575a:	49 8b 2e             	mov    (%r14),%rbp
    575d:	ba 05 00 00 00       	mov    $0x5,%edx
    5762:	48 8d 35 b9 68 00 00 	lea    0x68b9(%rip),%rsi        # c022 <bfd_seek@plt+0x93f2>
    5769:	eb db                	jmp    5746 <bfd_seek@plt+0x2b16>
    576b:	e8 90 d0 ff ff       	callq  2800 <__stack_chk_fail@plt>
    5770:	f3 0f 1e fa          	endbr64 
    5774:	48 89 fe             	mov    %rdi,%rsi
    5777:	8b 0d 6f ba 00 00    	mov    0xba6f(%rip),%ecx        # 111ec <stderr@@GLIBC_2.2.5+0x8c>
    577d:	8b 15 6d ba 00 00    	mov    0xba6d(%rip),%edx        # 111f0 <stderr@@GLIBC_2.2.5+0x90>
    5783:	48 8b 3d 96 b9 00 00 	mov    0xb996(%rip),%rdi        # 11120 <stdout@@GLIBC_2.2.5>
    578a:	e9 51 34 00 00       	jmpq   8be0 <bfd_seek@plt+0x5fb0>
    578f:	90                   	nop
    5790:	f3 0f 1e fa          	endbr64 
    5794:	48 83 3d 6c ba 00 00 	cmpq   $0x0,0xba6c(%rip)        # 11208 <stderr@@GLIBC_2.2.5+0xa8>
    579b:	00 
    579c:	74 3a                	je     57d8 <bfd_seek@plt+0x2ba8>
    579e:	48 83 ec 08          	sub    $0x8,%rsp
    57a2:	48 8b 3d 4f ba 00 00 	mov    0xba4f(%rip),%rdi        # 111f8 <stderr@@GLIBC_2.2.5+0x98>
    57a9:	48 85 ff             	test   %rdi,%rdi
    57ac:	74 05                	je     57b3 <bfd_seek@plt+0x2b83>
    57ae:	e8 dd ce ff ff       	callq  2690 <bfd_cache_close@plt>
    57b3:	48 8b 3d 46 ba 00 00 	mov    0xba46(%rip),%rdi        # 11200 <stderr@@GLIBC_2.2.5+0xa0>
    57ba:	48 85 ff             	test   %rdi,%rdi
    57bd:	74 05                	je     57c4 <bfd_seek@plt+0x2b94>
    57bf:	e8 dc cf ff ff       	callq  27a0 <fclose@plt>
    57c4:	48 8b 3d 3d ba 00 00 	mov    0xba3d(%rip),%rdi        # 11208 <stderr@@GLIBC_2.2.5+0xa8>
    57cb:	48 83 c4 08          	add    $0x8,%rsp
    57cf:	e9 6c d2 ff ff       	jmpq   2a40 <unlink_if_ordinary@plt>
    57d4:	0f 1f 40 00          	nopl   0x0(%rax)
    57d8:	c3                   	retq   
    57d9:	0f 1f 80 00 00 00 00 	nopl   0x0(%rax)
    57e0:	41 54                	push   %r12
    57e2:	4c 8b 25 c7 bb 00 00 	mov    0xbbc7(%rip),%r12        # 113b0 <stderr@@GLIBC_2.2.5+0x250>
    57e9:	55                   	push   %rbp
    57ea:	53                   	push   %rbx
    57eb:	89 fb                	mov    %edi,%ebx
    57ed:	85 ff                	test   %edi,%edi
    57ef:	0f 84 2d 01 00 00    	je     5922 <bfd_seek@plt+0x2cf2>
    57f5:	48 8b 2d 24 b9 00 00 	mov    0xb924(%rip),%rbp        # 11120 <stdout@@GLIBC_2.2.5>
    57fc:	ba 05 00 00 00       	mov    $0x5,%edx
    5801:	48 8d 35 61 68 00 00 	lea    0x6861(%rip),%rsi        # c069 <bfd_seek@plt+0x9439>
    5808:	31 ff                	xor    %edi,%edi
    580a:	e8 c1 cf ff ff       	callq  27d0 <dcgettext@plt>
    580f:	4c 89 e1             	mov    %r12,%rcx
    5812:	be 01 00 00 00       	mov    $0x1,%esi
    5817:	48 89 c2             	mov    %rax,%rdx
    581a:	48 89 ef             	mov    %rbp,%rdi
    581d:	31 c0                	xor    %eax,%eax
    581f:	e8 9c d3 ff ff       	callq  2bc0 <__fprintf_chk@plt>
    5824:	ba 05 00 00 00       	mov    $0x5,%edx
    5829:	48 8d 35 40 6a 00 00 	lea    0x6a40(%rip),%rsi        # c270 <bfd_seek@plt+0x9640>
    5830:	31 ff                	xor    %edi,%edi
    5832:	e8 99 cf ff ff       	callq  27d0 <dcgettext@plt>
    5837:	be 01 00 00 00       	mov    $0x1,%esi
    583c:	48 89 ef             	mov    %rbp,%rdi
    583f:	48 89 c2             	mov    %rax,%rdx
    5842:	31 c0                	xor    %eax,%eax
    5844:	e8 77 d3 ff ff       	callq  2bc0 <__fprintf_chk@plt>
    5849:	ba 05 00 00 00       	mov    $0x5,%edx
    584e:	48 8d 35 4b 6a 00 00 	lea    0x6a4b(%rip),%rsi        # c2a0 <bfd_seek@plt+0x9670>
    5855:	31 ff                	xor    %edi,%edi
    5857:	e8 74 cf ff ff       	callq  27d0 <dcgettext@plt>
    585c:	be 01 00 00 00       	mov    $0x1,%esi
    5861:	48 89 ef             	mov    %rbp,%rdi
    5864:	48 89 c2             	mov    %rax,%rdx
    5867:	31 c0                	xor    %eax,%eax
    5869:	e8 52 d3 ff ff       	callq  2bc0 <__fprintf_chk@plt>
    586e:	ba 05 00 00 00       	mov    $0x5,%edx
    5873:	48 8d 35 76 6a 00 00 	lea    0x6a76(%rip),%rsi        # c2f0 <bfd_seek@plt+0x96c0>
    587a:	31 ff                	xor    %edi,%edi
    587c:	e8 4f cf ff ff       	callq  27d0 <dcgettext@plt>
    5881:	be 01 00 00 00       	mov    $0x1,%esi
    5886:	48 89 ef             	mov    %rbp,%rdi
    5889:	48 89 c2             	mov    %rax,%rdx
    588c:	31 c0                	xor    %eax,%eax
    588e:	e8 2d d3 ff ff       	callq  2bc0 <__fprintf_chk@plt>
    5893:	ba 05 00 00 00       	mov    $0x5,%edx
    5898:	48 8d 35 91 6a 00 00 	lea    0x6a91(%rip),%rsi        # c330 <bfd_seek@plt+0x9700>
    589f:	31 ff                	xor    %edi,%edi
    58a1:	e8 2a cf ff ff       	callq  27d0 <dcgettext@plt>
    58a6:	be 01 00 00 00       	mov    $0x1,%esi
    58ab:	48 89 ef             	mov    %rbp,%rdi
    58ae:	48 89 c2             	mov    %rax,%rdx
    58b1:	31 c0                	xor    %eax,%eax
    58b3:	e8 08 d3 ff ff       	callq  2bc0 <__fprintf_chk@plt>
    58b8:	ba 05 00 00 00       	mov    $0x5,%edx
    58bd:	48 8d 35 fc 6a 00 00 	lea    0x6afc(%rip),%rsi        # c3c0 <bfd_seek@plt+0x9790>
    58c4:	31 ff                	xor    %edi,%edi
    58c6:	e8 05 cf ff ff       	callq  27d0 <dcgettext@plt>
    58cb:	be 01 00 00 00       	mov    $0x1,%esi
    58d0:	48 89 ef             	mov    %rbp,%rdi
    58d3:	48 89 c2             	mov    %rax,%rdx
    58d6:	31 c0                	xor    %eax,%eax
    58d8:	e8 e3 d2 ff ff       	callq  2bc0 <__fprintf_chk@plt>
    58dd:	48 8b 3d cc ba 00 00 	mov    0xbacc(%rip),%rdi        # 113b0 <stderr@@GLIBC_2.2.5+0x250>
    58e4:	48 89 ee             	mov    %rbp,%rsi
    58e7:	e8 a4 2d 00 00       	callq  8690 <bfd_seek@plt+0x5a60>
    58ec:	ba 05 00 00 00       	mov    $0x5,%edx
    58f1:	48 8d 35 8e 67 00 00 	lea    0x678e(%rip),%rsi        # c086 <bfd_seek@plt+0x9456>
    58f8:	31 ff                	xor    %edi,%edi
    58fa:	e8 d1 ce ff ff       	callq  27d0 <dcgettext@plt>
    58ff:	48 8d 0d 7a 6b 00 00 	lea    0x6b7a(%rip),%rcx        # c480 <bfd_seek@plt+0x9850>
    5906:	be 01 00 00 00       	mov    $0x1,%esi
    590b:	48 89 ef             	mov    %rbp,%rdi
    590e:	48 89 c2             	mov    %rax,%rdx
    5911:	31 c0                	xor    %eax,%eax
    5913:	e8 a8 d2 ff ff       	callq  2bc0 <__fprintf_chk@plt>
    5918:	83 f3 01             	xor    $0x1,%ebx
    591b:	89 df                	mov    %ebx,%edi
    591d:	e8 1e d2 ff ff       	callq  2b40 <xexit@plt>
    5922:	48 8b 2d 37 b8 00 00 	mov    0xb837(%rip),%rbp        # 11160 <stderr@@GLIBC_2.2.5>
    5929:	31 ff                	xor    %edi,%edi
    592b:	ba 05 00 00 00       	mov    $0x5,%edx
    5930:	48 8d 35 32 67 00 00 	lea    0x6732(%rip),%rsi        # c069 <bfd_seek@plt+0x9439>
    5937:	e8 94 ce ff ff       	callq  27d0 <dcgettext@plt>
    593c:	4c 89 e1             	mov    %r12,%rcx
    593f:	be 01 00 00 00       	mov    $0x1,%esi
    5944:	48 89 c2             	mov    %rax,%rdx
    5947:	48 89 ef             	mov    %rbp,%rdi
    594a:	31 c0                	xor    %eax,%eax
    594c:	e8 6f d2 ff ff       	callq  2bc0 <__fprintf_chk@plt>
    5951:	31 ff                	xor    %edi,%edi
    5953:	ba 05 00 00 00       	mov    $0x5,%edx
    5958:	48 8d 35 11 69 00 00 	lea    0x6911(%rip),%rsi        # c270 <bfd_seek@plt+0x9640>
    595f:	e8 6c ce ff ff       	callq  27d0 <dcgettext@plt>
    5964:	48 89 ef             	mov    %rbp,%rdi
    5967:	be 01 00 00 00       	mov    $0x1,%esi
    596c:	48 89 c2             	mov    %rax,%rdx
    596f:	31 c0                	xor    %eax,%eax
    5971:	e8 4a d2 ff ff       	callq  2bc0 <__fprintf_chk@plt>
    5976:	31 ff                	xor    %edi,%edi
    5978:	ba 05 00 00 00       	mov    $0x5,%edx
    597d:	48 8d 35 1c 69 00 00 	lea    0x691c(%rip),%rsi        # c2a0 <bfd_seek@plt+0x9670>
    5984:	e8 47 ce ff ff       	callq  27d0 <dcgettext@plt>
    5989:	48 89 ef             	mov    %rbp,%rdi
    598c:	be 01 00 00 00       	mov    $0x1,%esi
    5991:	48 89 c2             	mov    %rax,%rdx
    5994:	31 c0                	xor    %eax,%eax
    5996:	e8 25 d2 ff ff       	callq  2bc0 <__fprintf_chk@plt>
    599b:	31 ff                	xor    %edi,%edi
    599d:	ba 05 00 00 00       	mov    $0x5,%edx
    59a2:	48 8d 35 47 69 00 00 	lea    0x6947(%rip),%rsi        # c2f0 <bfd_seek@plt+0x96c0>
    59a9:	e8 22 ce ff ff       	callq  27d0 <dcgettext@plt>
    59ae:	48 89 ef             	mov    %rbp,%rdi
    59b1:	be 01 00 00 00       	mov    $0x1,%esi
    59b6:	48 89 c2             	mov    %rax,%rdx
    59b9:	31 c0                	xor    %eax,%eax
    59bb:	e8 00 d2 ff ff       	callq  2bc0 <__fprintf_chk@plt>
    59c0:	31 ff                	xor    %edi,%edi
    59c2:	ba 05 00 00 00       	mov    $0x5,%edx
    59c7:	48 8d 35 62 69 00 00 	lea    0x6962(%rip),%rsi        # c330 <bfd_seek@plt+0x9700>
    59ce:	e8 fd cd ff ff       	callq  27d0 <dcgettext@plt>
    59d3:	48 89 ef             	mov    %rbp,%rdi
    59d6:	be 01 00 00 00       	mov    $0x1,%esi
    59db:	48 89 c2             	mov    %rax,%rdx
    59de:	31 c0                	xor    %eax,%eax
    59e0:	e8 db d1 ff ff       	callq  2bc0 <__fprintf_chk@plt>
    59e5:	31 ff                	xor    %edi,%edi
    59e7:	ba 05 00 00 00       	mov    $0x5,%edx
    59ec:	48 8d 35 cd 69 00 00 	lea    0x69cd(%rip),%rsi        # c3c0 <bfd_seek@plt+0x9790>
    59f3:	e8 d8 cd ff ff       	callq  27d0 <dcgettext@plt>
    59f8:	48 89 ef             	mov    %rbp,%rdi
    59fb:	be 01 00 00 00       	mov    $0x1,%esi
    5a00:	48 89 c2             	mov    %rax,%rdx
    5a03:	31 c0                	xor    %eax,%eax
    5a05:	e8 b6 d1 ff ff       	callq  2bc0 <__fprintf_chk@plt>
    5a0a:	48 8b 3d 9f b9 00 00 	mov    0xb99f(%rip),%rdi        # 113b0 <stderr@@GLIBC_2.2.5+0x250>
    5a11:	48 89 ee             	mov    %rbp,%rsi
    5a14:	e8 77 2c 00 00       	callq  8690 <bfd_seek@plt+0x5a60>
    5a19:	e9 fa fe ff ff       	jmpq   5918 <bfd_seek@plt+0x2ce8>
    5a1e:	66 90                	xchg   %ax,%ax
    5a20:	41 57                	push   %r15
    5a22:	41 56                	push   %r14
    5a24:	41 55                	push   %r13
    5a26:	41 54                	push   %r12
    5a28:	49 89 fc             	mov    %rdi,%r12
    5a2b:	55                   	push   %rbp
    5a2c:	4c 8b bf d8 00 00 00 	mov    0xd8(%rdi),%r15
    5a33:	48 8b 3f             	mov    (%rdi),%rdi
    5a36:	e8 a5 cd ff ff       	callq  27e0 <strlen@plt>
    5a3b:	48 8d 78 01          	lea    0x1(%rax),%rdi
    5a3f:	e8 5c ce ff ff       	callq  28a0 <xmalloc@plt>
    5a44:	49 8b 34 24          	mov    (%r12),%rsi
    5a48:	49 89 c6             	mov    %rax,%r14
    5a4b:	48 89 c7             	mov    %rax,%rdi
    5a4e:	e8 8d cc ff ff       	callq  26e0 <strcpy@plt>
    5a53:	4c 89 f7             	mov    %r14,%rdi
    5a56:	e8 35 33 00 00       	callq  8d90 <bfd_seek@plt+0x6160>
    5a5b:	48 85 c0             	test   %rax,%rax
    5a5e:	0f 84 0e 01 00 00    	je     5b72 <bfd_seek@plt+0x2f42>
    5a64:	48 89 05 9d b7 00 00 	mov    %rax,0xb79d(%rip)        # 11208 <stderr@@GLIBC_2.2.5+0xa8>
    5a6b:	49 89 c5             	mov    %rax,%r13
    5a6e:	49 8b 44 24 08       	mov    0x8(%r12),%rax
    5a73:	4c 89 ef             	mov    %r13,%rdi
    5a76:	48 8b 30             	mov    (%rax),%rsi
    5a79:	e8 42 d0 ff ff       	callq  2ac0 <bfd_openw@plt>
    5a7e:	48 89 c5             	mov    %rax,%rbp
    5a81:	48 85 c0             	test   %rax,%rax
    5a84:	0f 84 e0 00 00 00    	je     5b6a <bfd_seek@plt+0x2f3a>
    5a8a:	be 02 00 00 00       	mov    $0x2,%esi
    5a8f:	48 89 c7             	mov    %rax,%rdi
    5a92:	48 89 05 5f b7 00 00 	mov    %rax,0xb75f(%rip)        # 111f8 <stderr@@GLIBC_2.2.5+0x98>
    5a99:	e8 f2 ce ff ff       	callq  2990 <bfd_set_format@plt>
    5a9e:	8b 05 3c b7 00 00    	mov    0xb73c(%rip),%eax        # 111e0 <stderr@@GLIBC_2.2.5+0x80>
    5aa4:	0f b6 55 4c          	movzbl 0x4c(%rbp),%edx
    5aa8:	8b 35 82 b7 00 00    	mov    0xb782(%rip),%esi        # 11230 <stderr@@GLIBC_2.2.5+0xd0>
    5aae:	f7 d0                	not    %eax
    5ab0:	83 e2 bf             	and    $0xffffffbf,%edx
    5ab3:	c1 e8 1f             	shr    $0x1f,%eax
    5ab6:	c1 e0 06             	shl    $0x6,%eax
    5ab9:	09 d0                	or     %edx,%eax
    5abb:	88 45 4c             	mov    %al,0x4c(%rbp)
    5abe:	85 f6                	test   %esi,%esi
    5ac0:	74 07                	je     5ac9 <bfd_seek@plt+0x2e99>
    5ac2:	81 4d 48 00 04 00 00 	orl    $0x400,0x48(%rbp)
    5ac9:	8b 0d 45 b5 00 00    	mov    0xb545(%rip),%ecx        # 11014 <bfd_seek@plt+0xe3e4>
    5acf:	85 c9                	test   %ecx,%ecx
    5ad1:	74 07                	je     5ada <bfd_seek@plt+0x2eaa>
    5ad3:	81 4d 48 00 20 00 00 	orl    $0x2000,0x48(%rbp)
    5ada:	8b 15 4c b7 00 00    	mov    0xb74c(%rip),%edx        # 1122c <stderr@@GLIBC_2.2.5+0xcc>
    5ae0:	85 d2                	test   %edx,%edx
    5ae2:	74 07                	je     5aeb <bfd_seek@plt+0x2ebb>
    5ae4:	81 4d 48 00 00 10 00 	orl    $0x100000,0x48(%rbp)
    5aeb:	8b 05 37 b7 00 00    	mov    0xb737(%rip),%eax        # 11228 <stderr@@GLIBC_2.2.5+0xc8>
    5af1:	85 c0                	test   %eax,%eax
    5af3:	74 6b                	je     5b60 <bfd_seek@plt+0x2f30>
    5af5:	80 4d 4c 80          	orb    $0x80,0x4c(%rbp)
    5af9:	4c 89 fe             	mov    %r15,%rsi
    5afc:	48 89 ef             	mov    %rbp,%rdi
    5aff:	e8 4c cc ff ff       	callq  2750 <bfd_set_archive_head@plt>
    5b04:	85 c0                	test   %eax,%eax
    5b06:	74 62                	je     5b6a <bfd_seek@plt+0x2f3a>
    5b08:	48 89 ef             	mov    %rbp,%rdi
    5b0b:	e8 40 d0 ff ff       	callq  2b50 <bfd_close@plt>
    5b10:	85 c0                	test   %eax,%eax
    5b12:	74 56                	je     5b6a <bfd_seek@plt+0x2f3a>
    5b14:	48 c7 05 d9 b6 00 00 	movq   $0x0,0xb6d9(%rip)        # 111f8 <stderr@@GLIBC_2.2.5+0x98>
    5b1b:	00 00 00 00 
    5b1f:	4c 89 e7             	mov    %r12,%rdi
    5b22:	48 c7 05 db b6 00 00 	movq   $0x0,0xb6db(%rip)        # 11208 <stderr@@GLIBC_2.2.5+0xa8>
    5b29:	00 00 00 00 
    5b2d:	e8 1e d0 ff ff       	callq  2b50 <bfd_close@plt>
    5b32:	31 d2                	xor    %edx,%edx
    5b34:	4c 89 f6             	mov    %r14,%rsi
    5b37:	4c 89 ef             	mov    %r13,%rdi
    5b3a:	e8 a1 20 00 00       	callq  7be0 <bfd_seek@plt+0x4fb0>
    5b3f:	85 c0                	test   %eax,%eax
    5b41:	75 4a                	jne    5b8d <bfd_seek@plt+0x2f5d>
    5b43:	4c 89 f7             	mov    %r14,%rdi
    5b46:	e8 25 cb ff ff       	callq  2670 <free@plt>
    5b4b:	5d                   	pop    %rbp
    5b4c:	4c 89 ef             	mov    %r13,%rdi
    5b4f:	41 5c                	pop    %r12
    5b51:	41 5d                	pop    %r13
    5b53:	41 5e                	pop    %r14
    5b55:	41 5f                	pop    %r15
    5b57:	e9 14 cb ff ff       	jmpq   2670 <free@plt>
    5b5c:	0f 1f 40 00          	nopl   0x0(%rax)
    5b60:	41 80 7c 24 4c 00    	cmpb   $0x0,0x4c(%r12)
    5b66:	79 91                	jns    5af9 <bfd_seek@plt+0x2ec9>
    5b68:	eb 8b                	jmp    5af5 <bfd_seek@plt+0x2ec5>
    5b6a:	4c 89 f7             	mov    %r14,%rdi
    5b6d:	e8 2e 28 00 00       	callq  83a0 <bfd_seek@plt+0x5770>
    5b72:	31 ff                	xor    %edi,%edi
    5b74:	ba 05 00 00 00       	mov    $0x5,%edx
    5b79:	48 8d 35 28 69 00 00 	lea    0x6928(%rip),%rsi        # c4a8 <bfd_seek@plt+0x9878>
    5b80:	e8 4b cc ff ff       	callq  27d0 <dcgettext@plt>
    5b85:	48 89 c7             	mov    %rax,%rdi
    5b88:	e8 13 28 00 00       	callq  83a0 <bfd_seek@plt+0x5770>
    5b8d:	bf 01 00 00 00       	mov    $0x1,%edi
    5b92:	e8 a9 cf ff ff       	callq  2b40 <xexit@plt>
    5b97:	66 0f 1f 84 00 00 00 	nopw   0x0(%rax,%rax,1)
    5b9e:	00 00 
    5ba0:	41 54                	push   %r12
    5ba2:	ba 05 00 00 00       	mov    $0x5,%edx
    5ba7:	48 8d 35 32 69 00 00 	lea    0x6932(%rip),%rsi        # c4e0 <bfd_seek@plt+0x98b0>
    5bae:	55                   	push   %rbp
    5baf:	53                   	push   %rbx
    5bb0:	89 fb                	mov    %edi,%ebx
    5bb2:	31 ff                	xor    %edi,%edi
    5bb4:	e8 17 cc ff ff       	callq  27d0 <dcgettext@plt>
    5bb9:	85 db                	test   %ebx,%ebx
    5bbb:	be 01 00 00 00       	mov    $0x1,%esi
    5bc0:	48 8b 2d 59 b5 00 00 	mov    0xb559(%rip),%rbp        # 11120 <stdout@@GLIBC_2.2.5>
    5bc7:	48 0f 44 2d 91 b5 00 	cmove  0xb591(%rip),%rbp        # 11160 <stderr@@GLIBC_2.2.5>
    5bce:	00 
    5bcf:	48 8b 0d da b7 00 00 	mov    0xb7da(%rip),%rcx        # 113b0 <stderr@@GLIBC_2.2.5+0x250>
    5bd6:	48 89 c2             	mov    %rax,%rdx
    5bd9:	31 c0                	xor    %eax,%eax
    5bdb:	48 89 ef             	mov    %rbp,%rdi
    5bde:	e8 dd cf ff ff       	callq  2bc0 <__fprintf_chk@plt>
    5be3:	31 ff                	xor    %edi,%edi
    5be5:	4c 8b 25 c4 b7 00 00 	mov    0xb7c4(%rip),%r12        # 113b0 <stderr@@GLIBC_2.2.5+0x250>
    5bec:	ba 05 00 00 00       	mov    $0x5,%edx
    5bf1:	48 8d 35 a1 64 00 00 	lea    0x64a1(%rip),%rsi        # c099 <bfd_seek@plt+0x9469>
    5bf8:	e8 d3 cb ff ff       	callq  27d0 <dcgettext@plt>
    5bfd:	4c 89 e1             	mov    %r12,%rcx
    5c00:	be 01 00 00 00       	mov    $0x1,%esi
    5c05:	48 89 ef             	mov    %rbp,%rdi
    5c08:	48 89 c2             	mov    %rax,%rdx
    5c0b:	31 c0                	xor    %eax,%eax
    5c0d:	e8 ae cf ff ff       	callq  2bc0 <__fprintf_chk@plt>
    5c12:	31 ff                	xor    %edi,%edi
    5c14:	ba 05 00 00 00       	mov    $0x5,%edx
    5c19:	48 8d 35 95 64 00 00 	lea    0x6495(%rip),%rsi        # c0b5 <bfd_seek@plt+0x9485>
    5c20:	e8 ab cb ff ff       	callq  27d0 <dcgettext@plt>
    5c25:	be 01 00 00 00       	mov    $0x1,%esi
    5c2a:	48 89 ef             	mov    %rbp,%rdi
    5c2d:	48 89 c2             	mov    %rax,%rdx
    5c30:	31 c0                	xor    %eax,%eax
    5c32:	e8 89 cf ff ff       	callq  2bc0 <__fprintf_chk@plt>
    5c37:	31 ff                	xor    %edi,%edi
    5c39:	ba 05 00 00 00       	mov    $0x5,%edx
    5c3e:	48 8d 35 1b 69 00 00 	lea    0x691b(%rip),%rsi        # c560 <bfd_seek@plt+0x9930>
    5c45:	e8 86 cb ff ff       	callq  27d0 <dcgettext@plt>
    5c4a:	be 01 00 00 00       	mov    $0x1,%esi
    5c4f:	48 89 ef             	mov    %rbp,%rdi
    5c52:	48 89 c2             	mov    %rax,%rdx
    5c55:	31 c0                	xor    %eax,%eax
    5c57:	e8 64 cf ff ff       	callq  2bc0 <__fprintf_chk@plt>
    5c5c:	31 ff                	xor    %edi,%edi
    5c5e:	ba 05 00 00 00       	mov    $0x5,%edx
    5c63:	48 8d 35 2e 69 00 00 	lea    0x692e(%rip),%rsi        # c598 <bfd_seek@plt+0x9968>
    5c6a:	e8 61 cb ff ff       	callq  27d0 <dcgettext@plt>
    5c6f:	be 01 00 00 00       	mov    $0x1,%esi
    5c74:	48 89 ef             	mov    %rbp,%rdi
    5c77:	48 89 c2             	mov    %rax,%rdx
    5c7a:	31 c0                	xor    %eax,%eax
    5c7c:	e8 3f cf ff ff       	callq  2bc0 <__fprintf_chk@plt>
    5c81:	31 ff                	xor    %edi,%edi
    5c83:	ba 05 00 00 00       	mov    $0x5,%edx
    5c88:	48 8d 35 39 69 00 00 	lea    0x6939(%rip),%rsi        # c5c8 <bfd_seek@plt+0x9998>
    5c8f:	e8 3c cb ff ff       	callq  27d0 <dcgettext@plt>
    5c94:	be 01 00 00 00       	mov    $0x1,%esi
    5c99:	48 89 ef             	mov    %rbp,%rdi
    5c9c:	48 89 c2             	mov    %rax,%rdx
    5c9f:	31 c0                	xor    %eax,%eax
    5ca1:	e8 1a cf ff ff       	callq  2bc0 <__fprintf_chk@plt>
    5ca6:	31 ff                	xor    %edi,%edi
    5ca8:	ba 05 00 00 00       	mov    $0x5,%edx
    5cad:	48 8d 35 4c 69 00 00 	lea    0x694c(%rip),%rsi        # c600 <bfd_seek@plt+0x99d0>
    5cb4:	e8 17 cb ff ff       	callq  27d0 <dcgettext@plt>
    5cb9:	be 01 00 00 00       	mov    $0x1,%esi
    5cbe:	48 89 ef             	mov    %rbp,%rdi
    5cc1:	48 89 c2             	mov    %rax,%rdx
    5cc4:	31 c0                	xor    %eax,%eax
    5cc6:	e8 f5 ce ff ff       	callq  2bc0 <__fprintf_chk@plt>
    5ccb:	31 ff                	xor    %edi,%edi
    5ccd:	ba 05 00 00 00       	mov    $0x5,%edx
    5cd2:	48 8d 35 5f 69 00 00 	lea    0x695f(%rip),%rsi        # c638 <bfd_seek@plt+0x9a08>
    5cd9:	e8 f2 ca ff ff       	callq  27d0 <dcgettext@plt>
    5cde:	be 01 00 00 00       	mov    $0x1,%esi
    5ce3:	48 89 ef             	mov    %rbp,%rdi
    5ce6:	48 89 c2             	mov    %rax,%rdx
    5ce9:	31 c0                	xor    %eax,%eax
    5ceb:	e8 d0 ce ff ff       	callq  2bc0 <__fprintf_chk@plt>
    5cf0:	31 ff                	xor    %edi,%edi
    5cf2:	ba 05 00 00 00       	mov    $0x5,%edx
    5cf7:	48 8d 35 8a 69 00 00 	lea    0x698a(%rip),%rsi        # c688 <bfd_seek@plt+0x9a58>
    5cfe:	e8 cd ca ff ff       	callq  27d0 <dcgettext@plt>
    5d03:	be 01 00 00 00       	mov    $0x1,%esi
    5d08:	48 89 ef             	mov    %rbp,%rdi
    5d0b:	48 89 c2             	mov    %rax,%rdx
    5d0e:	31 c0                	xor    %eax,%eax
    5d10:	e8 ab ce ff ff       	callq  2bc0 <__fprintf_chk@plt>
    5d15:	31 ff                	xor    %edi,%edi
    5d17:	ba 05 00 00 00       	mov    $0x5,%edx
    5d1c:	48 8d 35 85 69 00 00 	lea    0x6985(%rip),%rsi        # c6a8 <bfd_seek@plt+0x9a78>
    5d23:	e8 a8 ca ff ff       	callq  27d0 <dcgettext@plt>
    5d28:	be 01 00 00 00       	mov    $0x1,%esi
    5d2d:	48 89 ef             	mov    %rbp,%rdi
    5d30:	48 89 c2             	mov    %rax,%rdx
    5d33:	31 c0                	xor    %eax,%eax
    5d35:	e8 86 ce ff ff       	callq  2bc0 <__fprintf_chk@plt>
    5d3a:	31 ff                	xor    %edi,%edi
    5d3c:	ba 05 00 00 00       	mov    $0x5,%edx
    5d41:	48 8d 35 98 69 00 00 	lea    0x6998(%rip),%rsi        # c6e0 <bfd_seek@plt+0x9ab0>
    5d48:	e8 83 ca ff ff       	callq  27d0 <dcgettext@plt>
    5d4d:	be 01 00 00 00       	mov    $0x1,%esi
    5d52:	48 89 ef             	mov    %rbp,%rdi
    5d55:	48 89 c2             	mov    %rax,%rdx
    5d58:	31 c0                	xor    %eax,%eax
    5d5a:	e8 61 ce ff ff       	callq  2bc0 <__fprintf_chk@plt>
    5d5f:	31 ff                	xor    %edi,%edi
    5d61:	ba 05 00 00 00       	mov    $0x5,%edx
    5d66:	48 8d 35 54 63 00 00 	lea    0x6354(%rip),%rsi        # c0c1 <bfd_seek@plt+0x9491>
    5d6d:	e8 5e ca ff ff       	callq  27d0 <dcgettext@plt>
    5d72:	be 01 00 00 00       	mov    $0x1,%esi
    5d77:	48 89 ef             	mov    %rbp,%rdi
    5d7a:	48 89 c2             	mov    %rax,%rdx
    5d7d:	31 c0                	xor    %eax,%eax
    5d7f:	e8 3c ce ff ff       	callq  2bc0 <__fprintf_chk@plt>
    5d84:	31 ff                	xor    %edi,%edi
    5d86:	ba 05 00 00 00       	mov    $0x5,%edx
    5d8b:	48 8d 35 86 69 00 00 	lea    0x6986(%rip),%rsi        # c718 <bfd_seek@plt+0x9ae8>
    5d92:	e8 39 ca ff ff       	callq  27d0 <dcgettext@plt>
    5d97:	be 01 00 00 00       	mov    $0x1,%esi
    5d9c:	48 89 ef             	mov    %rbp,%rdi
    5d9f:	48 89 c2             	mov    %rax,%rdx
    5da2:	31 c0                	xor    %eax,%eax
    5da4:	e8 17 ce ff ff       	callq  2bc0 <__fprintf_chk@plt>
    5da9:	31 ff                	xor    %edi,%edi
    5dab:	ba 05 00 00 00       	mov    $0x5,%edx
    5db0:	48 8d 35 99 69 00 00 	lea    0x6999(%rip),%rsi        # c750 <bfd_seek@plt+0x9b20>
    5db7:	e8 14 ca ff ff       	callq  27d0 <dcgettext@plt>
    5dbc:	be 01 00 00 00       	mov    $0x1,%esi
    5dc1:	48 89 ef             	mov    %rbp,%rdi
    5dc4:	48 89 c2             	mov    %rax,%rdx
    5dc7:	31 c0                	xor    %eax,%eax
    5dc9:	e8 f2 cd ff ff       	callq  2bc0 <__fprintf_chk@plt>
    5dce:	31 ff                	xor    %edi,%edi
    5dd0:	ba 05 00 00 00       	mov    $0x5,%edx
    5dd5:	48 8d 35 bc 69 00 00 	lea    0x69bc(%rip),%rsi        # c798 <bfd_seek@plt+0x9b68>
    5ddc:	e8 ef c9 ff ff       	callq  27d0 <dcgettext@plt>
    5de1:	be 01 00 00 00       	mov    $0x1,%esi
    5de6:	48 89 ef             	mov    %rbp,%rdi
    5de9:	48 89 c2             	mov    %rax,%rdx
    5dec:	31 c0                	xor    %eax,%eax
    5dee:	e8 cd cd ff ff       	callq  2bc0 <__fprintf_chk@plt>
    5df3:	31 ff                	xor    %edi,%edi
    5df5:	ba 05 00 00 00       	mov    $0x5,%edx
    5dfa:	48 8d 35 df 69 00 00 	lea    0x69df(%rip),%rsi        # c7e0 <bfd_seek@plt+0x9bb0>
    5e01:	e8 ca c9 ff ff       	callq  27d0 <dcgettext@plt>
    5e06:	be 01 00 00 00       	mov    $0x1,%esi
    5e0b:	48 89 ef             	mov    %rbp,%rdi
    5e0e:	48 89 c2             	mov    %rax,%rdx
    5e11:	31 c0                	xor    %eax,%eax
    5e13:	e8 a8 cd ff ff       	callq  2bc0 <__fprintf_chk@plt>
    5e18:	31 ff                	xor    %edi,%edi
    5e1a:	ba 05 00 00 00       	mov    $0x5,%edx
    5e1f:	48 8d 35 f2 69 00 00 	lea    0x69f2(%rip),%rsi        # c818 <bfd_seek@plt+0x9be8>
    5e26:	e8 a5 c9 ff ff       	callq  27d0 <dcgettext@plt>
    5e2b:	be 01 00 00 00       	mov    $0x1,%esi
    5e30:	48 89 ef             	mov    %rbp,%rdi
    5e33:	48 89 c2             	mov    %rax,%rdx
    5e36:	31 c0                	xor    %eax,%eax
    5e38:	e8 83 cd ff ff       	callq  2bc0 <__fprintf_chk@plt>
    5e3d:	31 ff                	xor    %edi,%edi
    5e3f:	ba 05 00 00 00       	mov    $0x5,%edx
    5e44:	48 8d 35 fd 69 00 00 	lea    0x69fd(%rip),%rsi        # c848 <bfd_seek@plt+0x9c18>
    5e4b:	e8 80 c9 ff ff       	callq  27d0 <dcgettext@plt>
    5e50:	be 01 00 00 00       	mov    $0x1,%esi
    5e55:	48 89 ef             	mov    %rbp,%rdi
    5e58:	48 89 c2             	mov    %rax,%rdx
    5e5b:	31 c0                	xor    %eax,%eax
    5e5d:	e8 5e cd ff ff       	callq  2bc0 <__fprintf_chk@plt>
    5e62:	31 ff                	xor    %edi,%edi
    5e64:	ba 05 00 00 00       	mov    $0x5,%edx
    5e69:	48 8d 35 08 6a 00 00 	lea    0x6a08(%rip),%rsi        # c878 <bfd_seek@plt+0x9c48>
    5e70:	e8 5b c9 ff ff       	callq  27d0 <dcgettext@plt>
    5e75:	be 01 00 00 00       	mov    $0x1,%esi
    5e7a:	48 89 ef             	mov    %rbp,%rdi
    5e7d:	48 89 c2             	mov    %rax,%rdx
    5e80:	31 c0                	xor    %eax,%eax
    5e82:	e8 39 cd ff ff       	callq  2bc0 <__fprintf_chk@plt>
    5e87:	31 ff                	xor    %edi,%edi
    5e89:	ba 05 00 00 00       	mov    $0x5,%edx
    5e8e:	48 8d 35 1b 6a 00 00 	lea    0x6a1b(%rip),%rsi        # c8b0 <bfd_seek@plt+0x9c80>
    5e95:	e8 36 c9 ff ff       	callq  27d0 <dcgettext@plt>
    5e9a:	be 01 00 00 00       	mov    $0x1,%esi
    5e9f:	48 89 ef             	mov    %rbp,%rdi
    5ea2:	48 89 c2             	mov    %rax,%rdx
    5ea5:	31 c0                	xor    %eax,%eax
    5ea7:	e8 14 cd ff ff       	callq  2bc0 <__fprintf_chk@plt>
    5eac:	31 ff                	xor    %edi,%edi
    5eae:	ba 05 00 00 00       	mov    $0x5,%edx
    5eb3:	48 8d 35 26 6a 00 00 	lea    0x6a26(%rip),%rsi        # c8e0 <bfd_seek@plt+0x9cb0>
    5eba:	e8 11 c9 ff ff       	callq  27d0 <dcgettext@plt>
    5ebf:	be 01 00 00 00       	mov    $0x1,%esi
    5ec4:	48 89 ef             	mov    %rbp,%rdi
    5ec7:	48 89 c2             	mov    %rax,%rdx
    5eca:	31 c0                	xor    %eax,%eax
    5ecc:	e8 ef cc ff ff       	callq  2bc0 <__fprintf_chk@plt>
    5ed1:	31 ff                	xor    %edi,%edi
    5ed3:	ba 05 00 00 00       	mov    $0x5,%edx
    5ed8:	48 8d 35 41 6a 00 00 	lea    0x6a41(%rip),%rsi        # c920 <bfd_seek@plt+0x9cf0>
    5edf:	e8 ec c8 ff ff       	callq  27d0 <dcgettext@plt>
    5ee4:	be 01 00 00 00       	mov    $0x1,%esi
    5ee9:	48 89 ef             	mov    %rbp,%rdi
    5eec:	48 89 c2             	mov    %rax,%rdx
    5eef:	31 c0                	xor    %eax,%eax
    5ef1:	e8 ca cc ff ff       	callq  2bc0 <__fprintf_chk@plt>
    5ef6:	31 ff                	xor    %edi,%edi
    5ef8:	ba 05 00 00 00       	mov    $0x5,%edx
    5efd:	48 8d 35 db 61 00 00 	lea    0x61db(%rip),%rsi        # c0df <bfd_seek@plt+0x94af>
    5f04:	e8 c7 c8 ff ff       	callq  27d0 <dcgettext@plt>
    5f09:	be 01 00 00 00       	mov    $0x1,%esi
    5f0e:	48 89 ef             	mov    %rbp,%rdi
    5f11:	48 89 c2             	mov    %rax,%rdx
    5f14:	31 c0                	xor    %eax,%eax
    5f16:	e8 a5 cc ff ff       	callq  2bc0 <__fprintf_chk@plt>
    5f1b:	31 ff                	xor    %edi,%edi
    5f1d:	ba 05 00 00 00       	mov    $0x5,%edx
    5f22:	48 8d 35 4f 6a 00 00 	lea    0x6a4f(%rip),%rsi        # c978 <bfd_seek@plt+0x9d48>
    5f29:	e8 a2 c8 ff ff       	callq  27d0 <dcgettext@plt>
    5f2e:	be 01 00 00 00       	mov    $0x1,%esi
    5f33:	48 89 ef             	mov    %rbp,%rdi
    5f36:	48 89 c2             	mov    %rax,%rdx
    5f39:	31 c0                	xor    %eax,%eax
    5f3b:	e8 80 cc ff ff       	callq  2bc0 <__fprintf_chk@plt>
    5f40:	31 ff                	xor    %edi,%edi
    5f42:	ba 05 00 00 00       	mov    $0x5,%edx
    5f47:	48 8d 35 6a 6a 00 00 	lea    0x6a6a(%rip),%rsi        # c9b8 <bfd_seek@plt+0x9d88>
    5f4e:	e8 7d c8 ff ff       	callq  27d0 <dcgettext@plt>
    5f53:	be 01 00 00 00       	mov    $0x1,%esi
    5f58:	48 89 ef             	mov    %rbp,%rdi
    5f5b:	48 89 c2             	mov    %rax,%rdx
    5f5e:	31 c0                	xor    %eax,%eax
    5f60:	e8 5b cc ff ff       	callq  2bc0 <__fprintf_chk@plt>
    5f65:	31 ff                	xor    %edi,%edi
    5f67:	ba 05 00 00 00       	mov    $0x5,%edx
    5f6c:	48 8d 35 7d 6a 00 00 	lea    0x6a7d(%rip),%rsi        # c9f0 <bfd_seek@plt+0x9dc0>
    5f73:	e8 58 c8 ff ff       	callq  27d0 <dcgettext@plt>
    5f78:	be 01 00 00 00       	mov    $0x1,%esi
    5f7d:	48 89 ef             	mov    %rbp,%rdi
    5f80:	48 89 c2             	mov    %rax,%rdx
    5f83:	31 c0                	xor    %eax,%eax
    5f85:	e8 36 cc ff ff       	callq  2bc0 <__fprintf_chk@plt>
    5f8a:	31 ff                	xor    %edi,%edi
    5f8c:	ba 05 00 00 00       	mov    $0x5,%edx
    5f91:	48 8d 35 88 6a 00 00 	lea    0x6a88(%rip),%rsi        # ca20 <bfd_seek@plt+0x9df0>
    5f98:	e8 33 c8 ff ff       	callq  27d0 <dcgettext@plt>
    5f9d:	be 01 00 00 00       	mov    $0x1,%esi
    5fa2:	48 89 ef             	mov    %rbp,%rdi
    5fa5:	48 89 c2             	mov    %rax,%rdx
    5fa8:	31 c0                	xor    %eax,%eax
    5faa:	e8 11 cc ff ff       	callq  2bc0 <__fprintf_chk@plt>
    5faf:	31 ff                	xor    %edi,%edi
    5fb1:	ba 05 00 00 00       	mov    $0x5,%edx
    5fb6:	48 8d 35 37 61 00 00 	lea    0x6137(%rip),%rsi        # c0f4 <bfd_seek@plt+0x94c4>
    5fbd:	e8 0e c8 ff ff       	callq  27d0 <dcgettext@plt>
    5fc2:	be 01 00 00 00       	mov    $0x1,%esi
    5fc7:	48 89 ef             	mov    %rbp,%rdi
    5fca:	48 89 c2             	mov    %rax,%rdx
    5fcd:	31 c0                	xor    %eax,%eax
    5fcf:	e8 ec cb ff ff       	callq  2bc0 <__fprintf_chk@plt>
    5fd4:	31 ff                	xor    %edi,%edi
    5fd6:	ba 05 00 00 00       	mov    $0x5,%edx
    5fdb:	48 8d 35 66 6a 00 00 	lea    0x6a66(%rip),%rsi        # ca48 <bfd_seek@plt+0x9e18>
    5fe2:	e8 e9 c7 ff ff       	callq  27d0 <dcgettext@plt>
    5fe7:	be 01 00 00 00       	mov    $0x1,%esi
    5fec:	48 89 ef             	mov    %rbp,%rdi
    5fef:	48 89 c2             	mov    %rax,%rdx
    5ff2:	31 c0                	xor    %eax,%eax
    5ff4:	e8 c7 cb ff ff       	callq  2bc0 <__fprintf_chk@plt>
    5ff9:	31 ff                	xor    %edi,%edi
    5ffb:	ba 05 00 00 00       	mov    $0x5,%edx
    6000:	48 8d 35 71 6a 00 00 	lea    0x6a71(%rip),%rsi        # ca78 <bfd_seek@plt+0x9e48>
    6007:	e8 c4 c7 ff ff       	callq  27d0 <dcgettext@plt>
    600c:	be 01 00 00 00       	mov    $0x1,%esi
    6011:	48 89 ef             	mov    %rbp,%rdi
    6014:	48 89 c2             	mov    %rax,%rdx
    6017:	31 c0                	xor    %eax,%eax
    6019:	e8 a2 cb ff ff       	callq  2bc0 <__fprintf_chk@plt>
    601e:	31 ff                	xor    %edi,%edi
    6020:	ba 05 00 00 00       	mov    $0x5,%edx
    6025:	48 8d 35 7c 6a 00 00 	lea    0x6a7c(%rip),%rsi        # caa8 <bfd_seek@plt+0x9e78>
    602c:	e8 9f c7 ff ff       	callq  27d0 <dcgettext@plt>
    6031:	be 01 00 00 00       	mov    $0x1,%esi
    6036:	48 89 ef             	mov    %rbp,%rdi
    6039:	48 89 c2             	mov    %rax,%rdx
    603c:	31 c0                	xor    %eax,%eax
    603e:	e8 7d cb ff ff       	callq  2bc0 <__fprintf_chk@plt>
    6043:	31 ff                	xor    %edi,%edi
    6045:	ba 05 00 00 00       	mov    $0x5,%edx
    604a:	48 8d 35 9f 6a 00 00 	lea    0x6a9f(%rip),%rsi        # caf0 <bfd_seek@plt+0x9ec0>
    6051:	e8 7a c7 ff ff       	callq  27d0 <dcgettext@plt>
    6056:	be 01 00 00 00       	mov    $0x1,%esi
    605b:	48 89 ef             	mov    %rbp,%rdi
    605e:	48 89 c2             	mov    %rax,%rdx
    6061:	31 c0                	xor    %eax,%eax
    6063:	e8 58 cb ff ff       	callq  2bc0 <__fprintf_chk@plt>
    6068:	31 ff                	xor    %edi,%edi
    606a:	ba 05 00 00 00       	mov    $0x5,%edx
    606f:	48 8d 35 9b 60 00 00 	lea    0x609b(%rip),%rsi        # c111 <bfd_seek@plt+0x94e1>
    6076:	e8 55 c7 ff ff       	callq  27d0 <dcgettext@plt>
    607b:	be 01 00 00 00       	mov    $0x1,%esi
    6080:	48 89 ef             	mov    %rbp,%rdi
    6083:	48 89 c2             	mov    %rax,%rdx
    6086:	31 c0                	xor    %eax,%eax
    6088:	e8 33 cb ff ff       	callq  2bc0 <__fprintf_chk@plt>
    608d:	31 ff                	xor    %edi,%edi
    608f:	ba 05 00 00 00       	mov    $0x5,%edx
    6094:	48 8d 35 a5 6a 00 00 	lea    0x6aa5(%rip),%rsi        # cb40 <bfd_seek@plt+0x9f10>
    609b:	e8 30 c7 ff ff       	callq  27d0 <dcgettext@plt>
    60a0:	be 01 00 00 00       	mov    $0x1,%esi
    60a5:	48 89 ef             	mov    %rbp,%rdi
    60a8:	48 89 c2             	mov    %rax,%rdx
    60ab:	31 c0                	xor    %eax,%eax
    60ad:	e8 0e cb ff ff       	callq  2bc0 <__fprintf_chk@plt>
    60b2:	48 89 ef             	mov    %rbp,%rdi
    60b5:	e8 f6 1c 00 00       	callq  7db0 <bfd_seek@plt+0x5180>
    60ba:	48 8b 3d ef b2 00 00 	mov    0xb2ef(%rip),%rdi        # 113b0 <stderr@@GLIBC_2.2.5+0x250>
    60c1:	48 89 ee             	mov    %rbp,%rsi
    60c4:	e8 c7 25 00 00       	callq  8690 <bfd_seek@plt+0x5a60>
    60c9:	85 db                	test   %ebx,%ebx
    60cb:	75 0a                	jne    60d7 <bfd_seek@plt+0x34a7>
    60cd:	83 f3 01             	xor    $0x1,%ebx
    60d0:	89 df                	mov    %ebx,%edi
    60d2:	e8 69 ca ff ff       	callq  2b40 <xexit@plt>
    60d7:	31 ff                	xor    %edi,%edi
    60d9:	ba 05 00 00 00       	mov    $0x5,%edx
    60de:	48 8d 35 a1 5f 00 00 	lea    0x5fa1(%rip),%rsi        # c086 <bfd_seek@plt+0x9456>
    60e5:	e8 e6 c6 ff ff       	callq  27d0 <dcgettext@plt>
    60ea:	48 8d 0d 8f 63 00 00 	lea    0x638f(%rip),%rcx        # c480 <bfd_seek@plt+0x9850>
    60f1:	be 01 00 00 00       	mov    $0x1,%esi
    60f6:	48 89 ef             	mov    %rbp,%rdi
    60f9:	48 89 c2             	mov    %rax,%rdx
    60fc:	31 c0                	xor    %eax,%eax
    60fe:	e8 bd ca ff ff       	callq  2bc0 <__fprintf_chk@plt>
    6103:	eb c8                	jmp    60cd <bfd_seek@plt+0x349d>
    6105:	66 66 2e 0f 1f 84 00 	data16 nopw %cs:0x0(%rax,%rax,1)
    610c:	00 00 00 00 
    6110:	41 54                	push   %r12
    6112:	55                   	push   %rbp
    6113:	48 83 ec 08          	sub    $0x8,%rsp
    6117:	48 8b 3f             	mov    (%rdi),%rdi
    611a:	48 89 3d e7 b0 00 00 	mov    %rdi,0xb0e7(%rip)        # 11208 <stderr@@GLIBC_2.2.5+0xa8>
    6121:	e8 9a 31 00 00       	callq  92c0 <bfd_seek@plt+0x6690>
    6126:	48 8b 2d db b0 00 00 	mov    0xb0db(%rip),%rbp        # 11208 <stderr@@GLIBC_2.2.5+0xa8>
    612d:	85 c0                	test   %eax,%eax
    612f:	0f 84 a3 00 00 00    	je     61d8 <bfd_seek@plt+0x35a8>
    6135:	4c 8b 25 d4 b0 00 00 	mov    0xb0d4(%rip),%r12        # 11210 <stderr@@GLIBC_2.2.5+0xb0>
    613c:	4d 85 e4             	test   %r12,%r12
    613f:	74 0d                	je     614e <bfd_seek@plt+0x351e>
    6141:	4c 89 e7             	mov    %r12,%rdi
    6144:	e8 97 c6 ff ff       	callq  27e0 <strlen@plt>
    6149:	48 85 c0             	test   %rax,%rax
    614c:	75 32                	jne    6180 <bfd_seek@plt+0x3550>
    614e:	8b 05 9c b0 00 00    	mov    0xb09c(%rip),%eax        # 111f0 <stderr@@GLIBC_2.2.5+0x90>
    6154:	85 c0                	test   %eax,%eax
    6156:	75 5e                	jne    61b6 <bfd_seek@plt+0x3586>
    6158:	48 8d 35 c8 5f 00 00 	lea    0x5fc8(%rip),%rsi        # c127 <bfd_seek@plt+0x94f7>
    615f:	48 89 ef             	mov    %rbp,%rdi
    6162:	e8 c9 c9 ff ff       	callq  2b30 <fopen@plt>
    6167:	48 85 c0             	test   %rax,%rax
    616a:	0f 84 ce 00 00 00    	je     623e <bfd_seek@plt+0x360e>
    6170:	48 83 c4 08          	add    $0x8,%rsp
    6174:	5d                   	pop    %rbp
    6175:	41 5c                	pop    %r12
    6177:	c3                   	retq   
    6178:	0f 1f 84 00 00 00 00 	nopl   0x0(%rax,%rax,1)
    617f:	00 
    6180:	41 80 7c 04 ff 2f    	cmpb   $0x2f,-0x1(%r12,%rax,1)
    6186:	0f 84 94 00 00 00    	je     6220 <bfd_seek@plt+0x35f0>
    618c:	48 89 ea             	mov    %rbp,%rdx
    618f:	31 c9                	xor    %ecx,%ecx
    6191:	48 8d 35 85 5f 00 00 	lea    0x5f85(%rip),%rsi        # c11d <bfd_seek@plt+0x94ed>
    6198:	4c 89 e7             	mov    %r12,%rdi
    619b:	31 c0                	xor    %eax,%eax
    619d:	e8 be c6 ff ff       	callq  2860 <concat@plt>
    61a2:	48 89 05 5f b0 00 00 	mov    %rax,0xb05f(%rip)        # 11208 <stderr@@GLIBC_2.2.5+0xa8>
    61a9:	48 89 c5             	mov    %rax,%rbp
    61ac:	8b 05 3e b0 00 00    	mov    0xb03e(%rip),%eax        # 111f0 <stderr@@GLIBC_2.2.5+0x90>
    61b2:	85 c0                	test   %eax,%eax
    61b4:	74 a2                	je     6158 <bfd_seek@plt+0x3528>
    61b6:	48 89 ea             	mov    %rbp,%rdx
    61b9:	48 8d 35 5f 5f 00 00 	lea    0x5f5f(%rip),%rsi        # c11f <bfd_seek@plt+0x94ef>
    61c0:	bf 01 00 00 00       	mov    $0x1,%edi
    61c5:	31 c0                	xor    %eax,%eax
    61c7:	e8 04 c9 ff ff       	callq  2ad0 <__printf_chk@plt>
    61cc:	48 8b 2d 35 b0 00 00 	mov    0xb035(%rip),%rbp        # 11208 <stderr@@GLIBC_2.2.5+0xa8>
    61d3:	eb 83                	jmp    6158 <bfd_seek@plt+0x3528>
    61d5:	0f 1f 00             	nopl   (%rax)
    61d8:	48 8b 3d 29 b0 00 00 	mov    0xb029(%rip),%rdi        # 11208 <stderr@@GLIBC_2.2.5+0xa8>
    61df:	e8 3c c7 ff ff       	callq  2920 <lbasename@plt>
    61e4:	4c 8b 25 1d b0 00 00 	mov    0xb01d(%rip),%r12        # 11208 <stderr@@GLIBC_2.2.5+0xa8>
    61eb:	ba 05 00 00 00       	mov    $0x5,%edx
    61f0:	31 ff                	xor    %edi,%edi
    61f2:	48 8d 35 77 69 00 00 	lea    0x6977(%rip),%rsi        # cb70 <bfd_seek@plt+0x9f40>
    61f9:	48 89 c5             	mov    %rax,%rbp
    61fc:	e8 cf c5 ff ff       	callq  27d0 <dcgettext@plt>
    6201:	48 89 ea             	mov    %rbp,%rdx
    6204:	4c 89 e6             	mov    %r12,%rsi
    6207:	48 89 c7             	mov    %rax,%rdi
    620a:	31 c0                	xor    %eax,%eax
    620c:	e8 cf 22 00 00       	callq  84e0 <bfd_seek@plt+0x58b0>
    6211:	48 89 2d f0 af 00 00 	mov    %rbp,0xaff0(%rip)        # 11208 <stderr@@GLIBC_2.2.5+0xa8>
    6218:	e9 18 ff ff ff       	jmpq   6135 <bfd_seek@plt+0x3505>
    621d:	0f 1f 00             	nopl   (%rax)
    6220:	48 89 ee             	mov    %rbp,%rsi
    6223:	31 d2                	xor    %edx,%edx
    6225:	4c 89 e7             	mov    %r12,%rdi
    6228:	31 c0                	xor    %eax,%eax
    622a:	e8 31 c6 ff ff       	callq  2860 <concat@plt>
    622f:	48 89 05 d2 af 00 00 	mov    %rax,0xafd2(%rip)        # 11208 <stderr@@GLIBC_2.2.5+0xa8>
    6236:	48 89 c5             	mov    %rax,%rbp
    6239:	e9 10 ff ff ff       	jmpq   614e <bfd_seek@plt+0x351e>
    623e:	48 8b 3d c3 af 00 00 	mov    0xafc3(%rip),%rdi        # 11208 <stderr@@GLIBC_2.2.5+0xa8>
    6245:	e8 16 c9 ff ff       	callq  2b60 <perror@plt>
    624a:	bf 01 00 00 00       	mov    $0x1,%edi
    624f:	e8 ec c8 ff ff       	callq  2b40 <xexit@plt>
    6254:	66 66 2e 0f 1f 84 00 	data16 nopw %cs:0x0(%rax,%rax,1)
    625b:	00 00 00 00 
    625f:	90                   	nop
    6260:	f3 0f 1e fa          	endbr64 
    6264:	41 57                	push   %r15
    6266:	41 56                	push   %r14
    6268:	41 55                	push   %r13
    626a:	49 89 fd             	mov    %rdi,%r13
    626d:	41 54                	push   %r12
    626f:	55                   	push   %rbp
    6270:	53                   	push   %rbx
    6271:	48 81 ec b8 00 00 00 	sub    $0xb8,%rsp
    6278:	64 48 8b 04 25 28 00 	mov    %fs:0x28,%rax
    627f:	00 00 
    6281:	48 89 84 24 a8 00 00 	mov    %rax,0xa8(%rsp)
    6288:	00 
    6289:	31 c0                	xor    %eax,%eax
    628b:	48 8b 47 08          	mov    0x8(%rdi),%rax
    628f:	48 8d 74 24 10       	lea    0x10(%rsp),%rsi
    6294:	48 89 74 24 08       	mov    %rsi,0x8(%rsp)
    6299:	ff 90 e0 01 00 00    	callq  *0x1e0(%rax)
    629f:	85 c0                	test   %eax,%eax
    62a1:	0f 85 b5 01 00 00    	jne    645c <bfd_seek@plt+0x382c>
    62a7:	4c 8b 64 24 40       	mov    0x40(%rsp),%r12
    62ac:	31 d2                	xor    %edx,%edx
    62ae:	31 f6                	xor    %esi,%esi
    62b0:	4c 89 ef             	mov    %r13,%rdi
    62b3:	e8 78 c9 ff ff       	callq  2c30 <bfd_seek@plt>
    62b8:	48 c7 05 3d af 00 00 	movq   $0x0,0xaf3d(%rip)        # 11200 <stderr@@GLIBC_2.2.5+0xa0>
    62bf:	00 00 00 00 
    62c3:	4d 85 e4             	test   %r12,%r12
    62c6:	0f 84 94 00 00 00    	je     6360 <bfd_seek@plt+0x3730>
    62cc:	bf 00 20 00 00       	mov    $0x2000,%edi
    62d1:	31 db                	xor    %ebx,%ebx
    62d3:	e8 c8 c5 ff ff       	callq  28a0 <xmalloc@plt>
    62d8:	48 89 c5             	mov    %rax,%rbp
    62db:	eb 28                	jmp    6305 <bfd_seek@plt+0x36d5>
    62dd:	0f 1f 00             	nopl   (%rax)
    62e0:	4c 89 fa             	mov    %r15,%rdx
    62e3:	be 01 00 00 00       	mov    $0x1,%esi
    62e8:	48 89 ef             	mov    %rbp,%rdi
    62eb:	e8 c0 c8 ff ff       	callq  2bb0 <fwrite@plt>
    62f0:	4c 39 f8             	cmp    %r15,%rax
    62f3:	0f 85 3a 01 00 00    	jne    6433 <bfd_seek@plt+0x3803>
    62f9:	4c 01 fb             	add    %r15,%rbx
    62fc:	49 39 dc             	cmp    %rbx,%r12
    62ff:	0f 86 d3 00 00 00    	jbe    63d8 <bfd_seek@plt+0x37a8>
    6305:	4c 89 e1             	mov    %r12,%rcx
    6308:	41 be 00 20 00 00    	mov    $0x2000,%r14d
    630e:	4c 89 ea             	mov    %r13,%rdx
    6311:	48 89 ef             	mov    %rbp,%rdi
    6314:	48 29 d9             	sub    %rbx,%rcx
    6317:	48 81 f9 00 20 00 00 	cmp    $0x2000,%rcx
    631e:	4c 0f 46 f1          	cmovbe %rcx,%r14
    6322:	4c 89 f6             	mov    %r14,%rsi
    6325:	e8 c6 c8 ff ff       	callq  2bf0 <bfd_bread@plt>
    632a:	49 89 c7             	mov    %rax,%r15
    632d:	49 39 c6             	cmp    %rax,%r14
    6330:	0f 85 d3 00 00 00    	jne    6409 <bfd_seek@plt+0x37d9>
    6336:	48 8b 0d c3 ae 00 00 	mov    0xaec3(%rip),%rcx        # 11200 <stderr@@GLIBC_2.2.5+0xa0>
    633d:	48 85 c9             	test   %rcx,%rcx
    6340:	75 9e                	jne    62e0 <bfd_seek@plt+0x36b0>
    6342:	4c 89 ef             	mov    %r13,%rdi
    6345:	e8 c6 fd ff ff       	callq  6110 <bfd_seek@plt+0x34e0>
    634a:	48 89 05 af ae 00 00 	mov    %rax,0xaeaf(%rip)        # 11200 <stderr@@GLIBC_2.2.5+0xa0>
    6351:	48 89 c1             	mov    %rax,%rcx
    6354:	eb 8a                	jmp    62e0 <bfd_seek@plt+0x36b0>
    6356:	66 2e 0f 1f 84 00 00 	nopw   %cs:0x0(%rax,%rax,1)
    635d:	00 00 00 
    6360:	4c 89 ef             	mov    %r13,%rdi
    6363:	e8 a8 fd ff ff       	callq  6110 <bfd_seek@plt+0x34e0>
    6368:	48 89 05 91 ae 00 00 	mov    %rax,0xae91(%rip)        # 11200 <stderr@@GLIBC_2.2.5+0xa0>
    636f:	48 89 c7             	mov    %rax,%rdi
    6372:	e8 29 c4 ff ff       	callq  27a0 <fclose@plt>
    6377:	48 8b 2d 8a ae 00 00 	mov    0xae8a(%rip),%rbp        # 11208 <stderr@@GLIBC_2.2.5+0xa8>
    637e:	8b 74 24 28          	mov    0x28(%rsp),%esi
    6382:	48 c7 05 73 ae 00 00 	movq   $0x0,0xae73(%rip)        # 11200 <stderr@@GLIBC_2.2.5+0xa0>
    6389:	00 00 00 00 
    638d:	48 89 ef             	mov    %rbp,%rdi
    6390:	e8 4b c7 ff ff       	callq  2ae0 <chmod@plt>
    6395:	8b 05 4d ae 00 00    	mov    0xae4d(%rip),%eax        # 111e8 <stderr@@GLIBC_2.2.5+0x88>
    639b:	85 c0                	test   %eax,%eax
    639d:	75 51                	jne    63f0 <bfd_seek@plt+0x37c0>
    639f:	48 c7 05 5e ae 00 00 	movq   $0x0,0xae5e(%rip)        # 11208 <stderr@@GLIBC_2.2.5+0xa8>
    63a6:	00 00 00 00 
    63aa:	48 8b 84 24 a8 00 00 	mov    0xa8(%rsp),%rax
    63b1:	00 
    63b2:	64 48 33 04 25 28 00 	xor    %fs:0x28,%rax
    63b9:	00 00 
    63bb:	0f 85 96 00 00 00    	jne    6457 <bfd_seek@plt+0x3827>
    63c1:	48 81 c4 b8 00 00 00 	add    $0xb8,%rsp
    63c8:	5b                   	pop    %rbx
    63c9:	5d                   	pop    %rbp
    63ca:	41 5c                	pop    %r12
    63cc:	41 5d                	pop    %r13
    63ce:	41 5e                	pop    %r14
    63d0:	41 5f                	pop    %r15
    63d2:	c3                   	retq   
    63d3:	0f 1f 44 00 00       	nopl   0x0(%rax,%rax,1)
    63d8:	48 89 ef             	mov    %rbp,%rdi
    63db:	e8 90 c2 ff ff       	callq  2670 <free@plt>
    63e0:	48 8b 3d 19 ae 00 00 	mov    0xae19(%rip),%rdi        # 11200 <stderr@@GLIBC_2.2.5+0xa0>
    63e7:	eb 89                	jmp    6372 <bfd_seek@plt+0x3742>
    63e9:	0f 1f 80 00 00 00 00 	nopl   0x0(%rax)
    63f0:	48 8b 44 24 68       	mov    0x68(%rsp),%rax
    63f5:	48 8b 74 24 08       	mov    0x8(%rsp),%rsi
    63fa:	48 89 ef             	mov    %rbp,%rdi
    63fd:	48 89 44 24 58       	mov    %rax,0x58(%rsp)
    6402:	e8 39 17 00 00       	callq  7b40 <bfd_seek@plt+0x4f10>
    6407:	eb 96                	jmp    639f <bfd_seek@plt+0x376f>
    6409:	49 8b 85 d0 00 00 00 	mov    0xd0(%r13),%rax
    6410:	ba 05 00 00 00       	mov    $0x5,%edx
    6415:	48 8d 35 28 5c 00 00 	lea    0x5c28(%rip),%rsi        # c044 <bfd_seek@plt+0x9414>
    641c:	48 8b 28             	mov    (%rax),%rbp
    641f:	31 ff                	xor    %edi,%edi
    6421:	e8 aa c3 ff ff       	callq  27d0 <dcgettext@plt>
    6426:	48 89 ee             	mov    %rbp,%rsi
    6429:	48 89 c7             	mov    %rax,%rdi
    642c:	31 c0                	xor    %eax,%eax
    642e:	e8 fd 1f 00 00       	callq  8430 <bfd_seek@plt+0x5800>
    6433:	e8 88 c2 ff ff       	callq  26c0 <__errno_location@plt>
    6438:	8b 38                	mov    (%rax),%edi
    643a:	e8 c1 c7 ff ff       	callq  2c00 <strerror@plt>
    643f:	48 8b 35 c2 ad 00 00 	mov    0xadc2(%rip),%rsi        # 11208 <stderr@@GLIBC_2.2.5+0xa8>
    6446:	48 8d 3d dc 5c 00 00 	lea    0x5cdc(%rip),%rdi        # c129 <bfd_seek@plt+0x94f9>
    644d:	48 89 c2             	mov    %rax,%rdx
    6450:	31 c0                	xor    %eax,%eax
    6452:	e8 d9 1f 00 00       	callq  8430 <bfd_seek@plt+0x5800>
    6457:	e8 a4 c3 ff ff       	callq  2800 <__stack_chk_fail@plt>
    645c:	49 8b 6d 00          	mov    0x0(%r13),%rbp
    6460:	ba 05 00 00 00       	mov    $0x5,%edx
    6465:	48 8d 35 b6 5b 00 00 	lea    0x5bb6(%rip),%rsi        # c022 <bfd_seek@plt+0x93f2>
    646c:	eb b1                	jmp    641f <bfd_seek@plt+0x37ef>
    646e:	66 90                	xchg   %ax,%ax
    6470:	41 54                	push   %r12
    6472:	53                   	push   %rbx
    6473:	48 89 f3             	mov    %rsi,%rbx
    6476:	48 83 ec 08          	sub    $0x8,%rsp
    647a:	e8 a1 c4 ff ff       	callq  2920 <lbasename@plt>
    647f:	49 89 c4             	mov    %rax,%r12
    6482:	8b 05 a8 ad 00 00    	mov    0xada8(%rip),%eax        # 11230 <stderr@@GLIBC_2.2.5+0xd0>
    6488:	85 c0                	test   %eax,%eax
    648a:	74 1d                	je     64a9 <bfd_seek@plt+0x3879>
    648c:	48 85 db             	test   %rbx,%rbx
    648f:	74 18                	je     64a9 <bfd_seek@plt+0x3879>
    6491:	4c 89 e7             	mov    %r12,%rdi
    6494:	e8 47 c3 ff ff       	callq  27e0 <strlen@plt>
    6499:	49 89 c0             	mov    %rax,%r8
    649c:	48 8b 43 08          	mov    0x8(%rbx),%rax
    64a0:	0f b6 50 1e          	movzbl 0x1e(%rax),%edx
    64a4:	49 39 d0             	cmp    %rdx,%r8
    64a7:	77 0f                	ja     64b8 <bfd_seek@plt+0x3888>
    64a9:	48 83 c4 08          	add    $0x8,%rsp
    64ad:	4c 89 e0             	mov    %r12,%rax
    64b0:	5b                   	pop    %rbx
    64b1:	41 5c                	pop    %r12
    64b3:	c3                   	retq   
    64b4:	0f 1f 40 00          	nopl   0x0(%rax)
    64b8:	48 8d 7a 01          	lea    0x1(%rdx),%rdi
    64bc:	e8 df c3 ff ff       	callq  28a0 <xmalloc@plt>
    64c1:	4c 8b 43 08          	mov    0x8(%rbx),%r8
    64c5:	41 0f b6 50 1e       	movzbl 0x1e(%r8),%edx
    64ca:	83 fa 08             	cmp    $0x8,%edx
    64cd:	73 41                	jae    6510 <bfd_seek@plt+0x38e0>
    64cf:	f6 c2 04             	test   $0x4,%dl
    64d2:	75 70                	jne    6544 <bfd_seek@plt+0x3914>
    64d4:	85 d2                	test   %edx,%edx
    64d6:	74 1c                	je     64f4 <bfd_seek@plt+0x38c4>
    64d8:	41 0f b6 0c 24       	movzbl (%r12),%ecx
    64dd:	88 08                	mov    %cl,(%rax)
    64df:	f6 c2 02             	test   $0x2,%dl
    64e2:	74 59                	je     653d <bfd_seek@plt+0x390d>
    64e4:	41 0f b7 4c 14 fe    	movzwl -0x2(%r12,%rdx,1),%ecx
    64ea:	66 89 4c 10 fe       	mov    %cx,-0x2(%rax,%rdx,1)
    64ef:	41 0f b6 50 1e       	movzbl 0x1e(%r8),%edx
    64f4:	c6 04 10 00          	movb   $0x0,(%rax,%rdx,1)
    64f8:	49 89 c4             	mov    %rax,%r12
    64fb:	48 83 c4 08          	add    $0x8,%rsp
    64ff:	4c 89 e0             	mov    %r12,%rax
    6502:	5b                   	pop    %rbx
    6503:	41 5c                	pop    %r12
    6505:	c3                   	retq   
    6506:	66 2e 0f 1f 84 00 00 	nopw   %cs:0x0(%rax,%rax,1)
    650d:	00 00 00 
    6510:	49 8b 0c 24          	mov    (%r12),%rcx
    6514:	48 8d 78 08          	lea    0x8(%rax),%rdi
    6518:	4c 89 e6             	mov    %r12,%rsi
    651b:	48 83 e7 f8          	and    $0xfffffffffffffff8,%rdi
    651f:	48 89 08             	mov    %rcx,(%rax)
    6522:	49 8b 4c 14 f8       	mov    -0x8(%r12,%rdx,1),%rcx
    6527:	48 89 4c 10 f8       	mov    %rcx,-0x8(%rax,%rdx,1)
    652c:	48 89 c1             	mov    %rax,%rcx
    652f:	48 29 f9             	sub    %rdi,%rcx
    6532:	48 29 ce             	sub    %rcx,%rsi
    6535:	01 d1                	add    %edx,%ecx
    6537:	c1 e9 03             	shr    $0x3,%ecx
    653a:	f3 48 a5             	rep movsq %ds:(%rsi),%es:(%rdi)
    653d:	41 0f b6 50 1e       	movzbl 0x1e(%r8),%edx
    6542:	eb b0                	jmp    64f4 <bfd_seek@plt+0x38c4>
    6544:	41 8b 0c 24          	mov    (%r12),%ecx
    6548:	89 08                	mov    %ecx,(%rax)
    654a:	41 8b 4c 14 fc       	mov    -0x4(%r12,%rdx,1),%ecx
    654f:	89 4c 10 fc          	mov    %ecx,-0x4(%rax,%rdx,1)
    6553:	41 0f b6 50 1e       	movzbl 0x1e(%r8),%edx
    6558:	eb 9a                	jmp    64f4 <bfd_seek@plt+0x38c4>
    655a:	66 0f 1f 44 00 00    	nopw   0x0(%rax,%rax,1)
    6560:	41 57                	push   %r15
    6562:	41 56                	push   %r14
    6564:	4c 8d b7 d8 00 00 00 	lea    0xd8(%rdi),%r14
    656b:	41 55                	push   %r13
    656d:	41 54                	push   %r12
    656f:	55                   	push   %rbp
    6570:	48 89 fd             	mov    %rdi,%rbp
    6573:	53                   	push   %rbx
    6574:	48 89 f3             	mov    %rsi,%rbx
    6577:	48 81 ec 48 01 00 00 	sub    $0x148,%rsp
    657e:	89 54 24 0c          	mov    %edx,0xc(%rsp)
    6582:	64 48 8b 04 25 28 00 	mov    %fs:0x28,%rax
    6589:	00 00 
    658b:	48 89 84 24 38 01 00 	mov    %rax,0x138(%rsp)
    6592:	00 
    6593:	31 c0                	xor    %eax,%eax
    6595:	c7 44 24 08 00 00 00 	movl   $0x0,0x8(%rsp)
    659c:	00 
    659d:	48 85 f6             	test   %rsi,%rsi
    65a0:	75 50                	jne    65f2 <bfd_seek@plt+0x39c2>
    65a2:	e9 9d 01 00 00       	jmpq   6744 <bfd_seek@plt+0x3b14>
    65a7:	66 0f 1f 84 00 00 00 	nopw   0x0(%rax,%rax,1)
    65ae:	00 00 
    65b0:	31 d2                	xor    %edx,%edx
    65b2:	be 03 00 00 00       	mov    $0x3,%esi
    65b7:	4c 89 f7             	mov    %r14,%rdi
    65ba:	e8 81 ef ff ff       	callq  5540 <bfd_seek@plt+0x2910>
    65bf:	44 8b 05 62 ac 00 00 	mov    0xac62(%rip),%r8d        # 11228 <stderr@@GLIBC_2.2.5+0xc8>
    65c6:	8b 0d 24 ac 00 00    	mov    0xac24(%rip),%ecx        # 111f0 <stderr@@GLIBC_2.2.5+0x90>
    65cc:	48 8b 15 45 ac 00 00 	mov    0xac45(%rip),%rdx        # 11218 <stderr@@GLIBC_2.2.5+0xb8>
    65d3:	48 8b 33             	mov    (%rbx),%rsi
    65d6:	48 89 c7             	mov    %rax,%rdi
    65d9:	e8 52 18 00 00       	callq  7e30 <bfd_seek@plt+0x5200>
    65de:	85 c0                	test   %eax,%eax
    65e0:	b8 01 00 00 00       	mov    $0x1,%eax
    65e5:	0f 44 44 24 08       	cmove  0x8(%rsp),%eax
    65ea:	89 44 24 08          	mov    %eax,0x8(%rsp)
    65ee:	48 83 c3 08          	add    $0x8,%rbx
    65f2:	48 83 3b 00          	cmpq   $0x0,(%rbx)
    65f6:	0f 84 40 01 00 00    	je     673c <bfd_seek@plt+0x3b0c>
    65fc:	8b 7c 24 0c          	mov    0xc(%rsp),%edi
    6600:	85 ff                	test   %edi,%edi
    6602:	75 ac                	jne    65b0 <bfd_seek@plt+0x3980>
    6604:	4c 8b bd d8 00 00 00 	mov    0xd8(%rbp),%r15
    660b:	4d 85 ff             	test   %r15,%r15
    660e:	74 a0                	je     65b0 <bfd_seek@plt+0x3980>
    6610:	4d 89 f4             	mov    %r14,%r12
    6613:	eb 56                	jmp    666b <bfd_seek@plt+0x3a3b>
    6615:	0f 1f 00             	nopl   (%rax)
    6618:	4c 89 ef             	mov    %r13,%rdi
    661b:	48 89 ee             	mov    %rbp,%rsi
    661e:	e8 4d fe ff ff       	callq  6470 <bfd_seek@plt+0x3840>
    6623:	8b 0d 03 ac 00 00    	mov    0xac03(%rip),%ecx        # 1122c <stderr@@GLIBC_2.2.5+0xcc>
    6629:	48 8b 3b             	mov    (%rbx),%rdi
    662c:	49 89 c5             	mov    %rax,%r13
    662f:	85 c9                	test   %ecx,%ecx
    6631:	75 0b                	jne    663e <bfd_seek@plt+0x3a0e>
    6633:	48 89 ee             	mov    %rbp,%rsi
    6636:	e8 35 fe ff ff       	callq  6470 <bfd_seek@plt+0x3840>
    663b:	48 89 c7             	mov    %rax,%rdi
    663e:	4c 89 ee             	mov    %r13,%rsi
    6641:	e8 1a c1 ff ff       	callq  2760 <filename_cmp@plt>
    6646:	85 c0                	test   %eax,%eax
    6648:	75 0a                	jne    6654 <bfd_seek@plt+0x3a24>
    664a:	49 83 bf c8 00 00 00 	cmpq   $0x0,0xc8(%r15)
    6651:	00 
    6652:	75 2c                	jne    6680 <bfd_seek@plt+0x3a50>
    6654:	4d 8d a7 d8 00 00 00 	lea    0xd8(%r15),%r12
    665b:	4d 8b bf d8 00 00 00 	mov    0xd8(%r15),%r15
    6662:	4d 85 ff             	test   %r15,%r15
    6665:	0f 84 45 ff ff ff    	je     65b0 <bfd_seek@plt+0x3980>
    666b:	8b 35 bb ab 00 00    	mov    0xabbb(%rip),%esi        # 1122c <stderr@@GLIBC_2.2.5+0xcc>
    6671:	4d 8b 2f             	mov    (%r15),%r13
    6674:	85 f6                	test   %esi,%esi
    6676:	74 a0                	je     6618 <bfd_seek@plt+0x39e8>
    6678:	48 8b 3b             	mov    (%rbx),%rdi
    667b:	eb c1                	jmp    663e <bfd_seek@plt+0x3a0e>
    667d:	0f 1f 00             	nopl   (%rax)
    6680:	8b 15 5e ab 00 00    	mov    0xab5e(%rip),%edx        # 111e4 <stderr@@GLIBC_2.2.5+0x84>
    6686:	85 d2                	test   %edx,%edx
    6688:	74 66                	je     66f0 <bfd_seek@plt+0x3ac0>
    668a:	48 8b 33             	mov    (%rbx),%rsi
    668d:	48 8d 54 24 10       	lea    0x10(%rsp),%rdx
    6692:	bf 01 00 00 00       	mov    $0x1,%edi
    6697:	e8 64 c3 ff ff       	callq  2a00 <__xstat@plt>
    669c:	85 c0                	test   %eax,%eax
    669e:	74 20                	je     66c0 <bfd_seek@plt+0x3a90>
    66a0:	e8 1b c0 ff ff       	callq  26c0 <__errno_location@plt>
    66a5:	83 38 02             	cmpl   $0x2,(%rax)
    66a8:	0f 84 40 ff ff ff    	je     65ee <bfd_seek@plt+0x39be>
    66ae:	48 8b 3b             	mov    (%rbx),%rdi
    66b1:	e8 ea 1c 00 00       	callq  83a0 <bfd_seek@plt+0x5770>
    66b6:	66 2e 0f 1f 84 00 00 	nopw   %cs:0x0(%rax,%rax,1)
    66bd:	00 00 00 
    66c0:	49 8b 47 08          	mov    0x8(%r15),%rax
    66c4:	48 8d b4 24 a0 00 00 	lea    0xa0(%rsp),%rsi
    66cb:	00 
    66cc:	4c 89 ff             	mov    %r15,%rdi
    66cf:	ff 90 e0 01 00 00    	callq  *0x1e0(%rax)
    66d5:	85 c0                	test   %eax,%eax
    66d7:	0f 85 a1 00 00 00    	jne    677e <bfd_seek@plt+0x3b4e>
    66dd:	48 8b 84 24 f8 00 00 	mov    0xf8(%rsp),%rax
    66e4:	00 
    66e5:	48 39 44 24 68       	cmp    %rax,0x68(%rsp)
    66ea:	0f 8e fe fe ff ff    	jle    65ee <bfd_seek@plt+0x39be>
    66f0:	49 8b 17             	mov    (%r15),%rdx
    66f3:	be 02 00 00 00       	mov    $0x2,%esi
    66f8:	4c 89 f7             	mov    %r14,%rdi
    66fb:	e8 40 ee ff ff       	callq  5540 <bfd_seek@plt+0x2910>
    6700:	8b 0d ea aa 00 00    	mov    0xaaea(%rip),%ecx        # 111f0 <stderr@@GLIBC_2.2.5+0x90>
    6706:	48 8b 15 0b ab 00 00 	mov    0xab0b(%rip),%rdx        # 11218 <stderr@@GLIBC_2.2.5+0xb8>
    670d:	48 8b 33             	mov    (%rbx),%rsi
    6710:	48 89 c7             	mov    %rax,%rdi
    6713:	e8 98 18 00 00       	callq  7fb0 <bfd_seek@plt+0x5380>
    6718:	85 c0                	test   %eax,%eax
    671a:	0f 84 ce fe ff ff    	je     65ee <bfd_seek@plt+0x39be>
    6720:	49 8b 04 24          	mov    (%r12),%rax
    6724:	c7 44 24 08 01 00 00 	movl   $0x1,0x8(%rsp)
    672b:	00 
    672c:	48 8b 80 d8 00 00 00 	mov    0xd8(%rax),%rax
    6733:	49 89 04 24          	mov    %rax,(%r12)
    6737:	e9 b2 fe ff ff       	jmpq   65ee <bfd_seek@plt+0x39be>
    673c:	8b 44 24 08          	mov    0x8(%rsp),%eax
    6740:	85 c0                	test   %eax,%eax
    6742:	75 30                	jne    6774 <bfd_seek@plt+0x3b44>
    6744:	48 c7 05 b9 aa 00 00 	movq   $0x0,0xaab9(%rip)        # 11208 <stderr@@GLIBC_2.2.5+0xa8>
    674b:	00 00 00 00 
    674f:	48 8b 84 24 38 01 00 	mov    0x138(%rsp),%rax
    6756:	00 
    6757:	64 48 33 04 25 28 00 	xor    %fs:0x28,%rax
    675e:	00 00 
    6760:	75 3f                	jne    67a1 <bfd_seek@plt+0x3b71>
    6762:	48 81 c4 48 01 00 00 	add    $0x148,%rsp
    6769:	5b                   	pop    %rbx
    676a:	5d                   	pop    %rbp
    676b:	41 5c                	pop    %r12
    676d:	41 5d                	pop    %r13
    676f:	41 5e                	pop    %r14
    6771:	41 5f                	pop    %r15
    6773:	c3                   	retq   
    6774:	48 89 ef             	mov    %rbp,%rdi
    6777:	e8 a4 f2 ff ff       	callq  5a20 <bfd_seek@plt+0x2df0>
    677c:	eb d1                	jmp    674f <bfd_seek@plt+0x3b1f>
    677e:	49 8b 2f             	mov    (%r15),%rbp
    6781:	48 8d 35 9a 58 00 00 	lea    0x589a(%rip),%rsi        # c022 <bfd_seek@plt+0x93f2>
    6788:	31 ff                	xor    %edi,%edi
    678a:	ba 05 00 00 00       	mov    $0x5,%edx
    678f:	e8 3c c0 ff ff       	callq  27d0 <dcgettext@plt>
    6794:	48 89 c7             	mov    %rax,%rdi
    6797:	48 89 ee             	mov    %rbp,%rsi
    679a:	31 c0                	xor    %eax,%eax
    679c:	e8 8f 1c 00 00       	callq  8430 <bfd_seek@plt+0x5800>
    67a1:	e8 5a c0 ff ff       	callq  2800 <__stack_chk_fail@plt>
    67a6:	66 2e 0f 1f 84 00 00 	nopw   %cs:0x0(%rax,%rax,1)
    67ad:	00 00 00 
    67b0:	41 57                	push   %r15
    67b2:	41 56                	push   %r14
    67b4:	41 55                	push   %r13
    67b6:	41 54                	push   %r12
    67b8:	55                   	push   %rbp
    67b9:	53                   	push   %rbx
    67ba:	48 81 ec b8 00 00 00 	sub    $0xb8,%rsp
    67c1:	4c 8b a7 d8 00 00 00 	mov    0xd8(%rdi),%r12
    67c8:	48 89 34 24          	mov    %rsi,(%rsp)
    67cc:	64 48 8b 04 25 28 00 	mov    %fs:0x28,%rax
    67d3:	00 00 
    67d5:	48 89 84 24 a8 00 00 	mov    %rax,0xa8(%rsp)
    67dc:	00 
    67dd:	31 c0                	xor    %eax,%eax
    67df:	85 c9                	test   %ecx,%ecx
    67e1:	0f 84 99 01 00 00    	je     6980 <bfd_seek@plt+0x3d50>
    67e7:	48 89 d3             	mov    %rdx,%rbx
    67ea:	48 89 fd             	mov    %rdi,%rbp
    67ed:	4c 89 e2             	mov    %r12,%rdx
    67f0:	4d 85 e4             	test   %r12,%r12
    67f3:	74 1c                	je     6811 <bfd_seek@plt+0x3be1>
    67f5:	0f 1f 00             	nopl   (%rax)
    67f8:	41 c7 84 24 a4 00 00 	movl   $0x0,0xa4(%r12)
    67ff:	00 00 00 00 00 
    6804:	4d 8b a4 24 d8 00 00 	mov    0xd8(%r12),%r12
    680b:	00 
    680c:	4d 85 e4             	test   %r12,%r12
    680f:	75 e7                	jne    67f8 <bfd_seek@plt+0x3bc8>
    6811:	8d 41 ff             	lea    -0x1(%rcx),%eax
    6814:	4c 8d 74 24 10       	lea    0x10(%rsp),%r14
    6819:	48 8d 44 c3 08       	lea    0x8(%rbx,%rax,8),%rax
    681e:	48 89 44 24 08       	mov    %rax,0x8(%rsp)
    6823:	e9 9c 00 00 00       	jmpq   68c4 <bfd_seek@plt+0x3c94>
    6828:	0f 1f 84 00 00 00 00 	nopl   0x0(%rax,%rax,1)
    682f:	00 
    6830:	4d 8b 2f             	mov    (%r15),%r13
    6833:	4d 85 ed             	test   %r13,%r13
    6836:	0f 84 14 01 00 00    	je     6950 <bfd_seek@plt+0x3d20>
    683c:	80 7d 4c 00          	cmpb   $0x0,0x4c(%rbp)
    6840:	8b 05 e6 a9 00 00    	mov    0xa9e6(%rip),%eax        # 1122c <stderr@@GLIBC_2.2.5+0xcc>
    6846:	79 21                	jns    6869 <bfd_seek@plt+0x3c39>
    6848:	85 c0                	test   %eax,%eax
    684a:	0f 85 28 01 00 00    	jne    6978 <bfd_seek@plt+0x3d48>
    6850:	4c 89 ef             	mov    %r13,%rdi
    6853:	48 89 ee             	mov    %rbp,%rsi
    6856:	e8 15 fc ff ff       	callq  6470 <bfd_seek@plt+0x3840>
    685b:	49 89 c5             	mov    %rax,%r13
    685e:	48 85 c0             	test   %rax,%rax
    6861:	74 7c                	je     68df <bfd_seek@plt+0x3caf>
    6863:	8b 05 c3 a9 00 00    	mov    0xa9c3(%rip),%eax        # 1122c <stderr@@GLIBC_2.2.5+0xcc>
    6869:	48 8b 3b             	mov    (%rbx),%rdi
    686c:	85 c0                	test   %eax,%eax
    686e:	75 0b                	jne    687b <bfd_seek@plt+0x3c4b>
    6870:	48 89 ee             	mov    %rbp,%rsi
    6873:	e8 f8 fb ff ff       	callq  6470 <bfd_seek@plt+0x3840>
    6878:	48 89 c7             	mov    %rax,%rdi
    687b:	4c 89 ee             	mov    %r13,%rsi
    687e:	e8 dd be ff ff       	callq  2760 <filename_cmp@plt>
    6883:	85 c0                	test   %eax,%eax
    6885:	75 58                	jne    68df <bfd_seek@plt+0x3caf>
    6887:	8b 05 ab a9 00 00    	mov    0xa9ab(%rip),%eax        # 11238 <stderr@@GLIBC_2.2.5+0xd8>
    688d:	41 83 c4 01          	add    $0x1,%r12d
    6891:	85 c0                	test   %eax,%eax
    6893:	74 09                	je     689e <bfd_seek@plt+0x3c6e>
    6895:	44 3b 25 98 a9 00 00 	cmp    0xa998(%rip),%r12d        # 11234 <stderr@@GLIBC_2.2.5+0xd4>
    689c:	75 41                	jne    68df <bfd_seek@plt+0x3caf>
    689e:	48 8b 04 24          	mov    (%rsp),%rax
    68a2:	4c 89 ff             	mov    %r15,%rdi
    68a5:	48 83 c3 08          	add    $0x8,%rbx
    68a9:	ff d0                	callq  *%rax
    68ab:	41 c7 87 a4 00 00 00 	movl   $0x1,0xa4(%r15)
    68b2:	01 00 00 00 
    68b6:	48 39 5c 24 08       	cmp    %rbx,0x8(%rsp)
    68bb:	74 6b                	je     6928 <bfd_seek@plt+0x3cf8>
    68bd:	48 8b 95 d8 00 00 00 	mov    0xd8(%rbp),%rdx
    68c4:	49 89 d7             	mov    %rdx,%r15
    68c7:	45 31 e4             	xor    %r12d,%r12d
    68ca:	48 85 d2             	test   %rdx,%rdx
    68cd:	74 1c                	je     68eb <bfd_seek@plt+0x3cbb>
    68cf:	90                   	nop
    68d0:	41 8b 97 a4 00 00 00 	mov    0xa4(%r15),%edx
    68d7:	85 d2                	test   %edx,%edx
    68d9:	0f 84 51 ff ff ff    	je     6830 <bfd_seek@plt+0x3c00>
    68df:	4d 8b bf d8 00 00 00 	mov    0xd8(%r15),%r15
    68e6:	4d 85 ff             	test   %r15,%r15
    68e9:	75 e5                	jne    68d0 <bfd_seek@plt+0x3ca0>
    68eb:	4c 8b 23             	mov    (%rbx),%r12
    68ee:	ba 05 00 00 00       	mov    $0x5,%edx
    68f3:	31 ff                	xor    %edi,%edi
    68f5:	48 83 c3 08          	add    $0x8,%rbx
    68f9:	48 8d 35 30 58 00 00 	lea    0x5830(%rip),%rsi        # c130 <bfd_seek@plt+0x9500>
    6900:	e8 cb be ff ff       	callq  27d0 <dcgettext@plt>
    6905:	48 8b 3d 54 a8 00 00 	mov    0xa854(%rip),%rdi        # 11160 <stderr@@GLIBC_2.2.5>
    690c:	4c 89 e1             	mov    %r12,%rcx
    690f:	be 01 00 00 00       	mov    $0x1,%esi
    6914:	48 89 c2             	mov    %rax,%rdx
    6917:	31 c0                	xor    %eax,%eax
    6919:	e8 a2 c2 ff ff       	callq  2bc0 <__fprintf_chk@plt>
    691e:	48 39 5c 24 08       	cmp    %rbx,0x8(%rsp)
    6923:	75 98                	jne    68bd <bfd_seek@plt+0x3c8d>
    6925:	0f 1f 00             	nopl   (%rax)
    6928:	48 8b 84 24 a8 00 00 	mov    0xa8(%rsp),%rax
    692f:	00 
    6930:	64 48 33 04 25 28 00 	xor    %fs:0x28,%rax
    6937:	00 00 
    6939:	75 65                	jne    69a0 <bfd_seek@plt+0x3d70>
    693b:	48 81 c4 b8 00 00 00 	add    $0xb8,%rsp
    6942:	5b                   	pop    %rbx
    6943:	5d                   	pop    %rbp
    6944:	41 5c                	pop    %r12
    6946:	41 5d                	pop    %r13
    6948:	41 5e                	pop    %r14
    694a:	41 5f                	pop    %r15
    694c:	c3                   	retq   
    694d:	0f 1f 00             	nopl   (%rax)
    6950:	49 8b 47 08          	mov    0x8(%r15),%rax
    6954:	4c 89 ff             	mov    %r15,%rdi
    6957:	4c 89 f6             	mov    %r14,%rsi
    695a:	ff 90 e0 01 00 00    	callq  *0x1e0(%rax)
    6960:	4d 8b bf d8 00 00 00 	mov    0xd8(%r15),%r15
    6967:	4d 85 ff             	test   %r15,%r15
    696a:	0f 85 60 ff ff ff    	jne    68d0 <bfd_seek@plt+0x3ca0>
    6970:	e9 76 ff ff ff       	jmpq   68eb <bfd_seek@plt+0x3cbb>
    6975:	0f 1f 00             	nopl   (%rax)
    6978:	48 8b 3b             	mov    (%rbx),%rdi
    697b:	e9 fb fe ff ff       	jmpq   687b <bfd_seek@plt+0x3c4b>
    6980:	4d 85 e4             	test   %r12,%r12
    6983:	74 a3                	je     6928 <bfd_seek@plt+0x3cf8>
    6985:	0f 1f 00             	nopl   (%rax)
    6988:	4c 89 e7             	mov    %r12,%rdi
    698b:	48 8b 04 24          	mov    (%rsp),%rax
    698f:	ff d0                	callq  *%rax
    6991:	4d 8b a4 24 d8 00 00 	mov    0xd8(%r12),%r12
    6998:	00 
    6999:	4d 85 e4             	test   %r12,%r12
    699c:	75 ea                	jne    6988 <bfd_seek@plt+0x3d58>
    699e:	eb 88                	jmp    6928 <bfd_seek@plt+0x3cf8>
    69a0:	e8 5b be ff ff       	callq  2800 <__stack_chk_fail@plt>
    69a5:	66 66 2e 0f 1f 84 00 	data16 nopw %cs:0x0(%rax,%rax,1)
    69ac:	00 00 00 00 
    69b0:	f3 0f 1e fa          	endbr64 
    69b4:	41 54                	push   %r12
    69b6:	49 89 f4             	mov    %rsi,%r12
    69b9:	55                   	push   %rbp
    69ba:	48 89 fd             	mov    %rdi,%rbp
    69bd:	31 ff                	xor    %edi,%edi
    69bf:	53                   	push   %rbx
    69c0:	48 81 ec b0 00 00 00 	sub    $0xb0,%rsp
    69c7:	64 48 8b 04 25 28 00 	mov    %fs:0x28,%rax
    69ce:	00 00 
    69d0:	48 89 84 24 a8 00 00 	mov    %rax,0xa8(%rsp)
    69d7:	00 
    69d8:	31 c0                	xor    %eax,%eax
    69da:	e8 d1 be ff ff       	callq  28b0 <bfd_set_error@plt>
    69df:	48 83 3d 31 a8 00 00 	cmpq   $0x0,0xa831(%rip)        # 11218 <stderr@@GLIBC_2.2.5+0xb8>
    69e6:	00 
    69e7:	0f 84 ab 01 00 00    	je     6b98 <bfd_seek@plt+0x3f68>
    69ed:	48 8d 54 24 10       	lea    0x10(%rsp),%rdx
    69f2:	48 89 ee             	mov    %rbp,%rsi
    69f5:	bf 01 00 00 00       	mov    $0x1,%edi
    69fa:	e8 01 c0 ff ff       	callq  2a00 <__xstat@plt>
    69ff:	85 c0                	test   %eax,%eax
    6a01:	74 7f                	je     6a82 <bfd_seek@plt+0x3e52>
    6a03:	e8 b8 bc ff ff       	callq  26c0 <__errno_location@plt>
    6a08:	83 38 02             	cmpl   $0x2,(%rax)
    6a0b:	0f 85 4b 02 00 00    	jne    6c5c <bfd_seek@plt+0x402c>
    6a11:	8b 35 b1 a7 00 00    	mov    0xa7b1(%rip),%esi        # 111c8 <stderr@@GLIBC_2.2.5+0x68>
    6a17:	85 f6                	test   %esi,%esi
    6a19:	0f 84 f6 01 00 00    	je     6c15 <bfd_seek@plt+0x3fe5>
    6a1f:	48 8b 35 f2 a7 00 00 	mov    0xa7f2(%rip),%rsi        # 11218 <stderr@@GLIBC_2.2.5+0xb8>
    6a26:	4d 85 e4             	test   %r12,%r12
    6a29:	74 09                	je     6a34 <bfd_seek@plt+0x3e04>
    6a2b:	48 85 f6             	test   %rsi,%rsi
    6a2e:	0f 84 ac 01 00 00    	je     6be0 <bfd_seek@plt+0x3fb0>
    6a34:	48 89 ef             	mov    %rbp,%rdi
    6a37:	e8 84 c0 ff ff       	callq  2ac0 <bfd_openw@plt>
    6a3c:	49 89 c4             	mov    %rax,%r12
    6a3f:	48 85 c0             	test   %rax,%rax
    6a42:	0f 84 14 02 00 00    	je     6c5c <bfd_seek@plt+0x402c>
    6a48:	be 02 00 00 00       	mov    $0x2,%esi
    6a4d:	48 89 c7             	mov    %rax,%rdi
    6a50:	e8 3b bf ff ff       	callq  2990 <bfd_set_format@plt>
    6a55:	85 c0                	test   %eax,%eax
    6a57:	0f 84 ff 01 00 00    	je     6c5c <bfd_seek@plt+0x402c>
    6a5d:	4c 89 e7             	mov    %r12,%rdi
    6a60:	e8 eb c0 ff ff       	callq  2b50 <bfd_close@plt>
    6a65:	85 c0                	test   %eax,%eax
    6a67:	0f 84 ef 01 00 00    	je     6c5c <bfd_seek@plt+0x402c>
    6a6d:	8b 0d 81 a7 00 00    	mov    0xa781(%rip),%ecx        # 111f4 <stderr@@GLIBC_2.2.5+0x94>
    6a73:	85 c9                	test   %ecx,%ecx
    6a75:	0f 84 f5 00 00 00    	je     6b70 <bfd_seek@plt+0x3f40>
    6a7b:	48 89 2d 86 a7 00 00 	mov    %rbp,0xa786(%rip)        # 11208 <stderr@@GLIBC_2.2.5+0xa8>
    6a82:	48 8b 35 8f a7 00 00 	mov    0xa78f(%rip),%rsi        # 11218 <stderr@@GLIBC_2.2.5+0xb8>
    6a89:	48 89 ef             	mov    %rbp,%rdi
    6a8c:	e8 ff bc ff ff       	callq  2790 <bfd_openr@plt>
    6a91:	49 89 c4             	mov    %rax,%r12
    6a94:	48 85 c0             	test   %rax,%rax
    6a97:	0f 84 bf 01 00 00    	je     6c5c <bfd_seek@plt+0x402c>
    6a9d:	48 8d 54 24 08       	lea    0x8(%rsp),%rdx
    6aa2:	be 02 00 00 00       	mov    $0x2,%esi
    6aa7:	48 89 c7             	mov    %rax,%rdi
    6aaa:	e8 d1 c0 ff ff       	callq  2b80 <bfd_check_format_matches@plt>
    6aaf:	85 c0                	test   %eax,%eax
    6ab1:	0f 84 ad 01 00 00    	je     6c64 <bfd_seek@plt+0x4034>
    6ab7:	8b 05 13 a7 00 00    	mov    0xa713(%rip),%eax        # 111d0 <stderr@@GLIBC_2.2.5+0x70>
    6abd:	83 f8 02             	cmp    $0x2,%eax
    6ac0:	74 6e                	je     6b30 <bfd_seek@plt+0x3f00>
    6ac2:	83 f8 07             	cmp    $0x7,%eax
    6ac5:	74 69                	je     6b30 <bfd_seek@plt+0x3f00>
    6ac7:	49 8d 9c 24 d8 00 00 	lea    0xd8(%r12),%rbx
    6ace:	00 
    6acf:	31 f6                	xor    %esi,%esi
    6ad1:	eb 0f                	jmp    6ae2 <bfd_seek@plt+0x3eb2>
    6ad3:	0f 1f 44 00 00       	nopl   0x0(%rax,%rax,1)
    6ad8:	48 89 03             	mov    %rax,(%rbx)
    6adb:	48 8d 98 d8 00 00 00 	lea    0xd8(%rax),%rbx
    6ae2:	4c 89 e7             	mov    %r12,%rdi
    6ae5:	e8 f6 c0 ff ff       	callq  2be0 <bfd_openr_next_archived_file@plt>
    6aea:	48 89 c6             	mov    %rax,%rsi
    6aed:	48 85 c0             	test   %rax,%rax
    6af0:	75 e6                	jne    6ad8 <bfd_seek@plt+0x3ea8>
    6af2:	48 c7 03 00 00 00 00 	movq   $0x0,(%rbx)
    6af9:	e8 92 bd ff ff       	callq  2890 <bfd_get_error@plt>
    6afe:	83 f8 09             	cmp    $0x9,%eax
    6b01:	0f 85 55 01 00 00    	jne    6c5c <bfd_seek@plt+0x402c>
    6b07:	48 8b 84 24 a8 00 00 	mov    0xa8(%rsp),%rax
    6b0e:	00 
    6b0f:	64 48 33 04 25 28 00 	xor    %fs:0x28,%rax
    6b16:	00 00 
    6b18:	0f 85 62 01 00 00    	jne    6c80 <bfd_seek@plt+0x4050>
    6b1e:	48 81 c4 b0 00 00 00 	add    $0xb0,%rsp
    6b25:	4c 89 e0             	mov    %r12,%rax
    6b28:	5b                   	pop    %rbx
    6b29:	5d                   	pop    %rbp
    6b2a:	41 5c                	pop    %r12
    6b2c:	c3                   	retq   
    6b2d:	0f 1f 00             	nopl   (%rax)
    6b30:	31 f6                	xor    %esi,%esi
    6b32:	4c 89 e7             	mov    %r12,%rdi
    6b35:	e8 a6 c0 ff ff       	callq  2be0 <bfd_openr_next_archived_file@plt>
    6b3a:	48 85 c0             	test   %rax,%rax
    6b3d:	74 88                	je     6ac7 <bfd_seek@plt+0x3e97>
    6b3f:	41 0f b6 44 24 4c    	movzbl 0x4c(%r12),%eax
    6b45:	8b 15 dd a6 00 00    	mov    0xa6dd(%rip),%edx        # 11228 <stderr@@GLIBC_2.2.5+0xc8>
    6b4b:	c0 e8 07             	shr    $0x7,%al
    6b4e:	85 d2                	test   %edx,%edx
    6b50:	74 5e                	je     6bb0 <bfd_seek@plt+0x3f80>
    6b52:	84 c0                	test   %al,%al
    6b54:	0f 85 6d ff ff ff    	jne    6ac7 <bfd_seek@plt+0x3e97>
    6b5a:	49 8b 2c 24          	mov    (%r12),%rbp
    6b5e:	ba 05 00 00 00       	mov    $0x5,%edx
    6b63:	48 8d 35 4e 60 00 00 	lea    0x604e(%rip),%rsi        # cbb8 <bfd_seek@plt+0x9f88>
    6b6a:	eb 5c                	jmp    6bc8 <bfd_seek@plt+0x3f98>
    6b6c:	0f 1f 40 00          	nopl   0x0(%rax)
    6b70:	31 ff                	xor    %edi,%edi
    6b72:	ba 05 00 00 00       	mov    $0x5,%edx
    6b77:	48 8d 35 d6 55 00 00 	lea    0x55d6(%rip),%rsi        # c154 <bfd_seek@plt+0x9524>
    6b7e:	e8 4d bc ff ff       	callq  27d0 <dcgettext@plt>
    6b83:	48 89 ee             	mov    %rbp,%rsi
    6b86:	48 89 c7             	mov    %rax,%rdi
    6b89:	31 c0                	xor    %eax,%eax
    6b8b:	e8 50 19 00 00       	callq  84e0 <bfd_seek@plt+0x58b0>
    6b90:	e9 e6 fe ff ff       	jmpq   6a7b <bfd_seek@plt+0x3e4b>
    6b95:	0f 1f 00             	nopl   (%rax)
    6b98:	48 8d 05 a9 55 00 00 	lea    0x55a9(%rip),%rax        # c148 <bfd_seek@plt+0x9518>
    6b9f:	48 89 05 72 a6 00 00 	mov    %rax,0xa672(%rip)        # 11218 <stderr@@GLIBC_2.2.5+0xb8>
    6ba6:	e9 42 fe ff ff       	jmpq   69ed <bfd_seek@plt+0x3dbd>
    6bab:	0f 1f 44 00 00       	nopl   0x0(%rax,%rax,1)
    6bb0:	84 c0                	test   %al,%al
    6bb2:	0f 84 0f ff ff ff    	je     6ac7 <bfd_seek@plt+0x3e97>
    6bb8:	49 8b 2c 24          	mov    (%r12),%rbp
    6bbc:	ba 05 00 00 00       	mov    $0x5,%edx
    6bc1:	48 8d 35 28 60 00 00 	lea    0x6028(%rip),%rsi        # cbf0 <bfd_seek@plt+0x9fc0>
    6bc8:	31 ff                	xor    %edi,%edi
    6bca:	e8 01 bc ff ff       	callq  27d0 <dcgettext@plt>
    6bcf:	48 89 ee             	mov    %rbp,%rsi
    6bd2:	48 89 c7             	mov    %rax,%rdi
    6bd5:	31 c0                	xor    %eax,%eax
    6bd7:	e8 54 18 00 00       	callq  8430 <bfd_seek@plt+0x5800>
    6bdc:	0f 1f 40 00          	nopl   0x0(%rax)
    6be0:	4c 89 e7             	mov    %r12,%rdi
    6be3:	e8 a8 bb ff ff       	callq  2790 <bfd_openr@plt>
    6be8:	49 89 c4             	mov    %rax,%r12
    6beb:	48 85 c0             	test   %rax,%rax
    6bee:	74 19                	je     6c09 <bfd_seek@plt+0x3fd9>
    6bf0:	be 01 00 00 00       	mov    $0x1,%esi
    6bf5:	48 89 c7             	mov    %rax,%rdi
    6bf8:	e8 d3 bf ff ff       	callq  2bd0 <bfd_check_format@plt>
    6bfd:	85 c0                	test   %eax,%eax
    6bff:	75 4a                	jne    6c4b <bfd_seek@plt+0x401b>
    6c01:	4c 89 e7             	mov    %r12,%rdi
    6c04:	e8 47 bf ff ff       	callq  2b50 <bfd_close@plt>
    6c09:	48 8b 35 08 a6 00 00 	mov    0xa608(%rip),%rsi        # 11218 <stderr@@GLIBC_2.2.5+0xb8>
    6c10:	e9 1f fe ff ff       	jmpq   6a34 <bfd_seek@plt+0x3e04>
    6c15:	48 8b 0d 94 a7 00 00 	mov    0xa794(%rip),%rcx        # 113b0 <stderr@@GLIBC_2.2.5+0x250>
    6c1c:	be 01 00 00 00       	mov    $0x1,%esi
    6c21:	31 c0                	xor    %eax,%eax
    6c23:	45 31 e4             	xor    %r12d,%r12d
    6c26:	48 8b 3d 33 a5 00 00 	mov    0xa533(%rip),%rdi        # 11160 <stderr@@GLIBC_2.2.5>
    6c2d:	48 8d 15 1b 55 00 00 	lea    0x551b(%rip),%rdx        # c14f <bfd_seek@plt+0x951f>
    6c34:	e8 87 bf ff ff       	callq  2bc0 <__fprintf_chk@plt>
    6c39:	48 89 ef             	mov    %rbp,%rdi
    6c3c:	e8 1f bf ff ff       	callq  2b60 <perror@plt>
    6c41:	e8 2a 03 00 00       	callq  6f70 <bfd_seek@plt+0x4340>
    6c46:	e9 bc fe ff ff       	jmpq   6b07 <bfd_seek@plt+0x3ed7>
    6c4b:	49 8b 44 24 08       	mov    0x8(%r12),%rax
    6c50:	48 8b 00             	mov    (%rax),%rax
    6c53:	48 89 05 be a5 00 00 	mov    %rax,0xa5be(%rip)        # 11218 <stderr@@GLIBC_2.2.5+0xb8>
    6c5a:	eb a5                	jmp    6c01 <bfd_seek@plt+0x3fd1>
    6c5c:	48 89 ef             	mov    %rbp,%rdi
    6c5f:	e8 3c 17 00 00       	callq  83a0 <bfd_seek@plt+0x5770>
    6c64:	48 89 ef             	mov    %rbp,%rdi
    6c67:	e8 c4 14 00 00       	callq  8130 <bfd_seek@plt+0x5500>
    6c6c:	e8 1f bc ff ff       	callq  2890 <bfd_get_error@plt>
    6c71:	83 f8 0d             	cmp    $0xd,%eax
    6c74:	74 0f                	je     6c85 <bfd_seek@plt+0x4055>
    6c76:	bf 01 00 00 00       	mov    $0x1,%edi
    6c7b:	e8 c0 be ff ff       	callq  2b40 <xexit@plt>
    6c80:	e8 7b bb ff ff       	callq  2800 <__stack_chk_fail@plt>
    6c85:	48 8b 7c 24 08       	mov    0x8(%rsp),%rdi
    6c8a:	e8 61 19 00 00       	callq  85f0 <bfd_seek@plt+0x59c0>
    6c8f:	48 8b 7c 24 08       	mov    0x8(%rsp),%rdi
    6c94:	e8 d7 b9 ff ff       	callq  2670 <free@plt>
    6c99:	eb db                	jmp    6c76 <bfd_seek@plt+0x4046>
    6c9b:	0f 1f 44 00 00       	nopl   0x0(%rax,%rax,1)
    6ca0:	48 83 ec 08          	sub    $0x8,%rsp
    6ca4:	31 f6                	xor    %esi,%esi
    6ca6:	c7 05 30 a5 00 00 01 	movl   $0x1,0xa530(%rip)        # 111e0 <stderr@@GLIBC_2.2.5+0x80>
    6cad:	00 00 00 
    6cb0:	e8 fb fc ff ff       	callq  69b0 <bfd_seek@plt+0x3d80>
    6cb5:	48 85 c0             	test   %rax,%rax
    6cb8:	74 0f                	je     6cc9 <bfd_seek@plt+0x4099>
    6cba:	48 89 c7             	mov    %rax,%rdi
    6cbd:	e8 5e ed ff ff       	callq  5a20 <bfd_seek@plt+0x2df0>
    6cc2:	31 c0                	xor    %eax,%eax
    6cc4:	48 83 c4 08          	add    $0x8,%rsp
    6cc8:	c3                   	retq   
    6cc9:	bf 01 00 00 00       	mov    $0x1,%edi
    6cce:	e8 6d be ff ff       	callq  2b40 <xexit@plt>
    6cd3:	66 2e 0f 1f 84 00 00 	nopw   %cs:0x0(%rax,%rax,1)
    6cda:	00 00 00 
    6cdd:	0f 1f 00             	nopl   (%rax)
    6ce0:	f3 0f 1e fa          	endbr64 
    6ce4:	48 85 f6             	test   %rsi,%rsi
    6ce7:	74 0e                	je     6cf7 <bfd_seek@plt+0x40c7>
    6ce9:	48 8b 87 d8 00 00 00 	mov    0xd8(%rdi),%rax
    6cf0:	48 89 86 d8 00 00 00 	mov    %rax,0xd8(%rsi)
    6cf7:	48 8b 05 5a a5 00 00 	mov    0xa55a(%rip),%rax        # 11258 <stderr@@GLIBC_2.2.5+0xf8>
    6cfe:	48 8b 90 e0 00 00 00 	mov    0xe0(%rax),%rdx
    6d05:	48 89 97 d8 00 00 00 	mov    %rdx,0xd8(%rdi)
    6d0c:	48 89 b8 e0 00 00 00 	mov    %rdi,0xe0(%rax)
    6d13:	c3                   	retq   
    6d14:	66 66 2e 0f 1f 84 00 	data16 nopw %cs:0x0(%rax,%rax,1)
    6d1b:	00 00 00 00 
    6d1f:	90                   	nop
    6d20:	f3 0f 1e fa          	endbr64 
    6d24:	48 89 fe             	mov    %rdi,%rsi
    6d27:	8b 15 c3 a4 00 00    	mov    0xa4c3(%rip),%edx        # 111f0 <stderr@@GLIBC_2.2.5+0x90>
    6d2d:	48 8b 3d 14 a5 00 00 	mov    0xa514(%rip),%rdi        # 11248 <stderr@@GLIBC_2.2.5+0xe8>
    6d34:	31 c9                	xor    %ecx,%ecx
    6d36:	e9 a5 1e 00 00       	jmpq   8be0 <bfd_seek@plt+0x5fb0>
    6d3b:	0f 1f 44 00 00       	nopl   0x0(%rax,%rax,1)
    6d40:	48 85 d2             	test   %rdx,%rdx
    6d43:	0f 84 b9 00 00 00    	je     6e02 <bfd_seek@plt+0x41d2>
    6d49:	41 57                	push   %r15
    6d4b:	41 56                	push   %r14
    6d4d:	49 89 fe             	mov    %rdi,%r14
    6d50:	41 55                	push   %r13
    6d52:	49 89 f5             	mov    %rsi,%r13
    6d55:	41 54                	push   %r12
    6d57:	55                   	push   %rbp
    6d58:	48 89 d5             	mov    %rdx,%rbp
    6d5b:	53                   	push   %rbx
    6d5c:	48 83 ec 08          	sub    $0x8,%rsp
    6d60:	49 8b 9e d8 00 00 00 	mov    0xd8(%r14),%rbx
    6d67:	48 85 db             	test   %rbx,%rbx
    6d6a:	74 64                	je     6dd0 <bfd_seek@plt+0x41a0>
    6d6c:	4d 89 f7             	mov    %r14,%r15
    6d6f:	45 31 e4             	xor    %r12d,%r12d
    6d72:	eb 07                	jmp    6d7b <bfd_seek@plt+0x414b>
    6d74:	0f 1f 40 00          	nopl   0x0(%rax)
    6d78:	48 89 c3             	mov    %rax,%rbx
    6d7b:	48 8b 33             	mov    (%rbx),%rsi
    6d7e:	48 85 f6             	test   %rsi,%rsi
    6d81:	74 1c                	je     6d9f <bfd_seek@plt+0x416f>
    6d83:	48 8b 7d 00          	mov    0x0(%rbp),%rdi
    6d87:	e8 d4 b9 ff ff       	callq  2760 <filename_cmp@plt>
    6d8c:	85 c0                	test   %eax,%eax
    6d8e:	75 0f                	jne    6d9f <bfd_seek@plt+0x416f>
    6d90:	4c 89 fe             	mov    %r15,%rsi
    6d93:	48 89 df             	mov    %rbx,%rdi
    6d96:	41 bc 01 00 00 00    	mov    $0x1,%r12d
    6d9c:	41 ff d5             	callq  *%r13
    6d9f:	48 8b 83 d8 00 00 00 	mov    0xd8(%rbx),%rax
    6da6:	49 89 df             	mov    %rbx,%r15
    6da9:	48 85 c0             	test   %rax,%rax
    6dac:	75 ca                	jne    6d78 <bfd_seek@plt+0x4148>
    6dae:	45 85 e4             	test   %r12d,%r12d
    6db1:	74 1d                	je     6dd0 <bfd_seek@plt+0x41a0>
    6db3:	48 8b 6d 08          	mov    0x8(%rbp),%rbp
    6db7:	48 85 ed             	test   %rbp,%rbp
    6dba:	75 a4                	jne    6d60 <bfd_seek@plt+0x4130>
    6dbc:	48 83 c4 08          	add    $0x8,%rsp
    6dc0:	5b                   	pop    %rbx
    6dc1:	5d                   	pop    %rbp
    6dc2:	41 5c                	pop    %r12
    6dc4:	41 5d                	pop    %r13
    6dc6:	41 5e                	pop    %r14
    6dc8:	41 5f                	pop    %r15
    6dca:	c3                   	retq   
    6dcb:	0f 1f 44 00 00       	nopl   0x0(%rax,%rax,1)
    6dd0:	4c 8b 65 00          	mov    0x0(%rbp),%r12
    6dd4:	31 ff                	xor    %edi,%edi
    6dd6:	ba 05 00 00 00       	mov    $0x5,%edx
    6ddb:	48 8d 35 5e 64 00 00 	lea    0x645e(%rip),%rsi        # d240 <bfd_seek@plt+0xa610>
    6de2:	e8 e9 b9 ff ff       	callq  27d0 <dcgettext@plt>
    6de7:	48 8b 3d 72 a3 00 00 	mov    0xa372(%rip),%rdi        # 11160 <stderr@@GLIBC_2.2.5>
    6dee:	be 01 00 00 00       	mov    $0x1,%esi
    6df3:	48 89 c2             	mov    %rax,%rdx
    6df6:	4c 89 e1             	mov    %r12,%rcx
    6df9:	31 c0                	xor    %eax,%eax
    6dfb:	e8 c0 bd ff ff       	callq  2bc0 <__fprintf_chk@plt>
    6e00:	eb b1                	jmp    6db3 <bfd_seek@plt+0x4183>
    6e02:	c3                   	retq   
    6e03:	66 66 2e 0f 1f 84 00 	data16 nopw %cs:0x0(%rax,%rax,1)
    6e0a:	00 00 00 00 
    6e0e:	66 90                	xchg   %ax,%ax
    6e10:	f3 0f 1e fa          	endbr64 
    6e14:	41 55                	push   %r13
    6e16:	49 89 f5             	mov    %rsi,%r13
    6e19:	31 f6                	xor    %esi,%esi
    6e1b:	41 54                	push   %r12
    6e1d:	49 89 d4             	mov    %rdx,%r12
    6e20:	55                   	push   %rbp
    6e21:	e8 8a fb ff ff       	callq  69b0 <bfd_seek@plt+0x3d80>
    6e26:	48 89 c5             	mov    %rax,%rbp
    6e29:	4d 85 e4             	test   %r12,%r12
    6e2c:	74 5a                	je     6e88 <bfd_seek@plt+0x4258>
    6e2e:	48 8d 35 f2 52 00 00 	lea    0x52f2(%rip),%rsi        # c127 <bfd_seek@plt+0x94f7>
    6e35:	4c 89 e7             	mov    %r12,%rdi
    6e38:	e8 f3 bc ff ff       	callq  2b30 <fopen@plt>
    6e3d:	48 89 05 04 a4 00 00 	mov    %rax,0xa404(%rip)        # 11248 <stderr@@GLIBC_2.2.5+0xe8>
    6e44:	48 85 c0             	test   %rax,%rax
    6e47:	0f 84 93 00 00 00    	je     6ee0 <bfd_seek@plt+0x42b0>
    6e4d:	4d 85 ed             	test   %r13,%r13
    6e50:	74 49                	je     6e9b <bfd_seek@plt+0x426b>
    6e52:	4c 89 ea             	mov    %r13,%rdx
    6e55:	48 8d 35 c4 fe ff ff 	lea    -0x13c(%rip),%rsi        # 6d20 <bfd_seek@plt+0x40f0>
    6e5c:	48 89 ef             	mov    %rbp,%rdi
    6e5f:	e8 dc fe ff ff       	callq  6d40 <bfd_seek@plt+0x4110>
    6e64:	48 89 ef             	mov    %rbp,%rdi
    6e67:	e8 e4 bc ff ff       	callq  2b50 <bfd_close@plt>
    6e6c:	4d 85 e4             	test   %r12,%r12
    6e6f:	74 62                	je     6ed3 <bfd_seek@plt+0x42a3>
    6e71:	48 8b 3d d0 a3 00 00 	mov    0xa3d0(%rip),%rdi        # 11248 <stderr@@GLIBC_2.2.5+0xe8>
    6e78:	5d                   	pop    %rbp
    6e79:	41 5c                	pop    %r12
    6e7b:	41 5d                	pop    %r13
    6e7d:	e9 1e b9 ff ff       	jmpq   27a0 <fclose@plt>
    6e82:	66 0f 1f 44 00 00    	nopw   0x0(%rax,%rax,1)
    6e88:	48 8b 05 91 a2 00 00 	mov    0xa291(%rip),%rax        # 11120 <stdout@@GLIBC_2.2.5>
    6e8f:	48 89 05 b2 a3 00 00 	mov    %rax,0xa3b2(%rip)        # 11248 <stderr@@GLIBC_2.2.5+0xe8>
    6e96:	4d 85 ed             	test   %r13,%r13
    6e99:	75 b7                	jne    6e52 <bfd_seek@plt+0x4222>
    6e9b:	4c 8b ad d8 00 00 00 	mov    0xd8(%rbp),%r13
    6ea2:	4d 85 ed             	test   %r13,%r13
    6ea5:	74 bd                	je     6e64 <bfd_seek@plt+0x4234>
    6ea7:	66 0f 1f 84 00 00 00 	nopw   0x0(%rax,%rax,1)
    6eae:	00 00 
    6eb0:	4c 89 ef             	mov    %r13,%rdi
    6eb3:	4d 8b ad d8 00 00 00 	mov    0xd8(%r13),%r13
    6eba:	31 f6                	xor    %esi,%esi
    6ebc:	e8 5f fe ff ff       	callq  6d20 <bfd_seek@plt+0x40f0>
    6ec1:	4d 85 ed             	test   %r13,%r13
    6ec4:	75 ea                	jne    6eb0 <bfd_seek@plt+0x4280>
    6ec6:	48 89 ef             	mov    %rbp,%rdi
    6ec9:	e8 82 bc ff ff       	callq  2b50 <bfd_close@plt>
    6ece:	4d 85 e4             	test   %r12,%r12
    6ed1:	75 9e                	jne    6e71 <bfd_seek@plt+0x4241>
    6ed3:	5d                   	pop    %rbp
    6ed4:	41 5c                	pop    %r12
    6ed6:	41 5d                	pop    %r13
    6ed8:	c3                   	retq   
    6ed9:	0f 1f 80 00 00 00 00 	nopl   0x0(%rax)
    6ee0:	48 8b 05 39 a2 00 00 	mov    0xa239(%rip),%rax        # 11120 <stdout@@GLIBC_2.2.5>
    6ee7:	ba 05 00 00 00       	mov    $0x5,%edx
    6eec:	48 8d 35 66 63 00 00 	lea    0x6366(%rip),%rsi        # d259 <bfd_seek@plt+0xa629>
    6ef3:	31 ff                	xor    %edi,%edi
    6ef5:	48 89 05 4c a3 00 00 	mov    %rax,0xa34c(%rip)        # 11248 <stderr@@GLIBC_2.2.5+0xe8>
    6efc:	e8 cf b8 ff ff       	callq  27d0 <dcgettext@plt>
    6f01:	48 8b 3d 58 a2 00 00 	mov    0xa258(%rip),%rdi        # 11160 <stderr@@GLIBC_2.2.5>
    6f08:	4c 89 e1             	mov    %r12,%rcx
    6f0b:	be 01 00 00 00       	mov    $0x1,%esi
    6f10:	48 89 c2             	mov    %rax,%rdx
    6f13:	31 c0                	xor    %eax,%eax
    6f15:	45 31 e4             	xor    %r12d,%r12d
    6f18:	e8 a3 bc ff ff       	callq  2bc0 <__fprintf_chk@plt>
    6f1d:	e9 2b ff ff ff       	jmpq   6e4d <bfd_seek@plt+0x421d>
    6f22:	66 66 2e 0f 1f 84 00 	data16 nopw %cs:0x0(%rax,%rax,1)
    6f29:	00 00 00 00 
    6f2d:	0f 1f 00             	nopl   (%rax)
    6f30:	f3 0f 1e fa          	endbr64 
    6f34:	8b 05 92 a2 00 00    	mov    0xa292(%rip),%eax        # 111cc <stderr@@GLIBC_2.2.5+0x6c>
    6f3a:	85 c0                	test   %eax,%eax
    6f3c:	75 02                	jne    6f40 <bfd_seek@plt+0x4310>
    6f3e:	c3                   	retq   
    6f3f:	90                   	nop
    6f40:	48 83 ec 08          	sub    $0x8,%rsp
    6f44:	bf 01 00 00 00       	mov    $0x1,%edi
    6f49:	48 8d 35 1d 63 00 00 	lea    0x631d(%rip),%rsi        # d26d <bfd_seek@plt+0xa63d>
    6f50:	31 c0                	xor    %eax,%eax
    6f52:	e8 79 bb ff ff       	callq  2ad0 <__printf_chk@plt>
    6f57:	48 8b 3d c2 a1 00 00 	mov    0xa1c2(%rip),%rdi        # 11120 <stdout@@GLIBC_2.2.5>
    6f5e:	48 83 c4 08          	add    $0x8,%rsp
    6f62:	e9 c9 ba ff ff       	jmpq   2a30 <fflush@plt>
    6f67:	66 0f 1f 84 00 00 00 	nopw   0x0(%rax,%rax,1)
    6f6e:	00 00 
    6f70:	f3 0f 1e fa          	endbr64 
    6f74:	8b 15 52 a2 00 00    	mov    0xa252(%rip),%edx        # 111cc <stderr@@GLIBC_2.2.5+0x6c>
    6f7a:	85 d2                	test   %edx,%edx
    6f7c:	74 01                	je     6f7f <bfd_seek@plt+0x434f>
    6f7e:	c3                   	retq   
    6f7f:	50                   	push   %rax
    6f80:	bf 09 00 00 00       	mov    $0x9,%edi
    6f85:	e8 b6 bb ff ff       	callq  2b40 <xexit@plt>
    6f8a:	66 0f 1f 44 00 00    	nopw   0x0(%rax,%rax,1)
    6f90:	f3 0f 1e fa          	endbr64 
    6f94:	41 54                	push   %r12
    6f96:	55                   	push   %rbp
    6f97:	89 f5                	mov    %esi,%ebp
    6f99:	53                   	push   %rbx
    6f9a:	48 89 fb             	mov    %rdi,%rbx
    6f9d:	48 83 ec 10          	sub    $0x10,%rsp
    6fa1:	64 48 8b 04 25 28 00 	mov    %fs:0x28,%rax
    6fa8:	00 00 
    6faa:	48 89 44 24 08       	mov    %rax,0x8(%rsp)
    6faf:	31 c0                	xor    %eax,%eax
    6fb1:	e8 6a b9 ff ff       	callq  2920 <lbasename@plt>
    6fb6:	48 89 e7             	mov    %rsp,%rdi
    6fb9:	49 89 d8             	mov    %rbx,%r8
    6fbc:	be 01 00 00 00       	mov    $0x1,%esi
    6fc1:	48 89 c1             	mov    %rax,%rcx
    6fc4:	49 89 c1             	mov    %rax,%r9
    6fc7:	31 c0                	xor    %eax,%eax
    6fc9:	48 89 1d 80 a2 00 00 	mov    %rbx,0xa280(%rip)        # 11250 <stderr@@GLIBC_2.2.5+0xf0>
    6fd0:	48 29 d9             	sub    %rbx,%rcx
    6fd3:	48 8d 15 98 62 00 00 	lea    0x6298(%rip),%rdx        # d272 <bfd_seek@plt+0xa642>
    6fda:	e8 51 b9 ff ff       	callq  2930 <__asprintf_chk@plt>
    6fdf:	83 f8 ff             	cmp    $0xffffffff,%eax
    6fe2:	0f 84 e8 00 00 00    	je     70d0 <bfd_seek@plt+0x44a0>
    6fe8:	48 8b 3c 24          	mov    (%rsp),%rdi
    6fec:	31 f6                	xor    %esi,%esi
    6fee:	e8 cd ba ff ff       	callq  2ac0 <bfd_openw@plt>
    6ff3:	48 89 05 5e a2 00 00 	mov    %rax,0xa25e(%rip)        # 11258 <stderr@@GLIBC_2.2.5+0xf8>
    6ffa:	48 89 c7             	mov    %rax,%rdi
    6ffd:	48 85 c0             	test   %rax,%rax
    7000:	0f 84 0a 01 00 00    	je     7110 <bfd_seek@plt+0x44e0>
    7006:	85 ed                	test   %ebp,%ebp
    7008:	74 3e                	je     7048 <bfd_seek@plt+0x4418>
    700a:	be 02 00 00 00       	mov    $0x2,%esi
    700f:	e8 7c b9 ff ff       	callq  2990 <bfd_set_format@plt>
    7014:	48 8b 15 3d a2 00 00 	mov    0xa23d(%rip),%rdx        # 11258 <stderr@@GLIBC_2.2.5+0xf8>
    701b:	0f b6 42 4c          	movzbl 0x4c(%rdx),%eax
    701f:	83 e0 3f             	and    $0x3f,%eax
    7022:	83 c8 40             	or     $0x40,%eax
    7025:	88 42 4c             	mov    %al,0x4c(%rdx)
    7028:	48 8b 44 24 08       	mov    0x8(%rsp),%rax
    702d:	64 48 33 04 25 28 00 	xor    %fs:0x28,%rax
    7034:	00 00 
    7036:	0f 85 32 01 00 00    	jne    716e <bfd_seek@plt+0x453e>
    703c:	48 83 c4 10          	add    $0x10,%rsp
    7040:	5b                   	pop    %rbx
    7041:	5d                   	pop    %rbp
    7042:	41 5c                	pop    %r12
    7044:	c3                   	retq   
    7045:	0f 1f 00             	nopl   (%rax)
    7048:	31 f6                	xor    %esi,%esi
    704a:	48 89 df             	mov    %rbx,%rdi
    704d:	e8 3e b7 ff ff       	callq  2790 <bfd_openr@plt>
    7052:	48 89 c5             	mov    %rax,%rbp
    7055:	48 85 c0             	test   %rax,%rax
    7058:	0f 84 9a 00 00 00    	je     70f8 <bfd_seek@plt+0x44c8>
    705e:	be 02 00 00 00       	mov    $0x2,%esi
    7063:	48 89 c7             	mov    %rax,%rdi
    7066:	e8 65 bb ff ff       	callq  2bd0 <bfd_check_format@plt>
    706b:	85 c0                	test   %eax,%eax
    706d:	0f 85 bd 00 00 00    	jne    7130 <bfd_seek@plt+0x4500>
    7073:	4c 8b 25 36 a3 00 00 	mov    0xa336(%rip),%r12        # 113b0 <stderr@@GLIBC_2.2.5+0x250>
    707a:	ba 05 00 00 00       	mov    $0x5,%edx
    707f:	48 8d 35 e2 62 00 00 	lea    0x62e2(%rip),%rsi        # d368 <bfd_seek@plt+0xa738>
    7086:	66 2e 0f 1f 84 00 00 	nopw   %cs:0x0(%rax,%rax,1)
    708d:	00 00 00 
    7090:	31 ff                	xor    %edi,%edi
    7092:	e8 39 b7 ff ff       	callq  27d0 <dcgettext@plt>
    7097:	49 89 d8             	mov    %rbx,%r8
    709a:	4c 89 e1             	mov    %r12,%rcx
    709d:	be 01 00 00 00       	mov    $0x1,%esi
    70a2:	48 8b 3d b7 a0 00 00 	mov    0xa0b7(%rip),%rdi        # 11160 <stderr@@GLIBC_2.2.5>
    70a9:	48 89 c2             	mov    %rax,%rdx
    70ac:	31 c0                	xor    %eax,%eax
    70ae:	e8 0d bb ff ff       	callq  2bc0 <__fprintf_chk@plt>
    70b3:	8b 05 13 a1 00 00    	mov    0xa113(%rip),%eax        # 111cc <stderr@@GLIBC_2.2.5+0x6c>
    70b9:	85 c0                	test   %eax,%eax
    70bb:	0f 85 67 ff ff ff    	jne    7028 <bfd_seek@plt+0x43f8>
    70c1:	bf 09 00 00 00       	mov    $0x9,%edi
    70c6:	e8 75 ba ff ff       	callq  2b40 <xexit@plt>
    70cb:	0f 1f 44 00 00       	nopl   0x0(%rax,%rax,1)
    70d0:	e8 eb b5 ff ff       	callq  26c0 <__errno_location@plt>
    70d5:	8b 38                	mov    (%rax),%edi
    70d7:	e8 24 bb ff ff       	callq  2c00 <strerror@plt>
    70dc:	4c 8b 25 cd a2 00 00 	mov    0xa2cd(%rip),%r12        # 113b0 <stderr@@GLIBC_2.2.5+0x250>
    70e3:	ba 05 00 00 00       	mov    $0x5,%edx
    70e8:	48 8d 35 f9 61 00 00 	lea    0x61f9(%rip),%rsi        # d2e8 <bfd_seek@plt+0xa6b8>
    70ef:	48 89 c3             	mov    %rax,%rbx
    70f2:	eb 9c                	jmp    7090 <bfd_seek@plt+0x4460>
    70f4:	0f 1f 40 00          	nopl   0x0(%rax)
    70f8:	4c 8b 25 b1 a2 00 00 	mov    0xa2b1(%rip),%r12        # 113b0 <stderr@@GLIBC_2.2.5+0x250>
    70ff:	ba 05 00 00 00       	mov    $0x5,%edx
    7104:	48 8d 35 35 62 00 00 	lea    0x6235(%rip),%rsi        # d340 <bfd_seek@plt+0xa710>
    710b:	eb 83                	jmp    7090 <bfd_seek@plt+0x4460>
    710d:	0f 1f 00             	nopl   (%rax)
    7110:	48 8b 1c 24          	mov    (%rsp),%rbx
    7114:	4c 8b 25 95 a2 00 00 	mov    0xa295(%rip),%r12        # 113b0 <stderr@@GLIBC_2.2.5+0x250>
    711b:	ba 05 00 00 00       	mov    $0x5,%edx
    7120:	48 8d 35 f1 61 00 00 	lea    0x61f1(%rip),%rsi        # d318 <bfd_seek@plt+0xa6e8>
    7127:	e9 66 ff ff ff       	jmpq   7092 <bfd_seek@plt+0x4462>
    712c:	0f 1f 40 00          	nopl   0x0(%rax)
    7130:	48 8b 05 21 a1 00 00 	mov    0xa121(%rip),%rax        # 11258 <stderr@@GLIBC_2.2.5+0xf8>
    7137:	31 f6                	xor    %esi,%esi
    7139:	48 8d 98 e0 00 00 00 	lea    0xe0(%rax),%rbx
    7140:	eb 10                	jmp    7152 <bfd_seek@plt+0x4522>
    7142:	66 0f 1f 44 00 00    	nopw   0x0(%rax,%rax,1)
    7148:	48 89 33             	mov    %rsi,(%rbx)
    714b:	48 8d 9e d8 00 00 00 	lea    0xd8(%rsi),%rbx
    7152:	48 89 ef             	mov    %rbp,%rdi
    7155:	e8 86 ba ff ff       	callq  2be0 <bfd_openr_next_archived_file@plt>
    715a:	48 89 c6             	mov    %rax,%rsi
    715d:	48 85 c0             	test   %rax,%rax
    7160:	75 e6                	jne    7148 <bfd_seek@plt+0x4518>
    7162:	48 8b 3d ef a0 00 00 	mov    0xa0ef(%rip),%rdi        # 11258 <stderr@@GLIBC_2.2.5+0xf8>
    7169:	e9 9c fe ff ff       	jmpq   700a <bfd_seek@plt+0x43da>
    716e:	e8 8d b6 ff ff       	callq  2800 <__stack_chk_fail@plt>
    7173:	66 66 2e 0f 1f 84 00 	data16 nopw %cs:0x0(%rax,%rax,1)
    717a:	00 00 00 00 
    717e:	66 90                	xchg   %ax,%ax
    7180:	f3 0f 1e fa          	endbr64 
    7184:	48 83 3d cc a0 00 00 	cmpq   $0x0,0xa0cc(%rip)        # 11258 <stderr@@GLIBC_2.2.5+0xf8>
    718b:	00 
    718c:	41 54                	push   %r12
    718e:	74 30                	je     71c0 <bfd_seek@plt+0x4590>
    7190:	49 89 f4             	mov    %rsi,%r12
    7193:	31 f6                	xor    %esi,%esi
    7195:	e8 16 f8 ff ff       	callq  69b0 <bfd_seek@plt+0x3d80>
    719a:	48 85 c0             	test   %rax,%rax
    719d:	74 5e                	je     71fd <bfd_seek@plt+0x45cd>
    719f:	4d 85 e4             	test   %r12,%r12
    71a2:	74 5c                	je     7200 <bfd_seek@plt+0x45d0>
    71a4:	4c 89 e2             	mov    %r12,%rdx
    71a7:	48 8d 35 32 fb ff ff 	lea    -0x4ce(%rip),%rsi        # 6ce0 <bfd_seek@plt+0x40b0>
    71ae:	48 89 c7             	mov    %rax,%rdi
    71b1:	41 5c                	pop    %r12
    71b3:	e9 88 fb ff ff       	jmpq   6d40 <bfd_seek@plt+0x4110>
    71b8:	0f 1f 84 00 00 00 00 	nopl   0x0(%rax,%rax,1)
    71bf:	00 
    71c0:	4c 8b 25 e9 a1 00 00 	mov    0xa1e9(%rip),%r12        # 113b0 <stderr@@GLIBC_2.2.5+0x250>
    71c7:	ba 05 00 00 00       	mov    $0x5,%edx
    71cc:	48 8d 35 b5 61 00 00 	lea    0x61b5(%rip),%rsi        # d388 <bfd_seek@plt+0xa758>
    71d3:	31 ff                	xor    %edi,%edi
    71d5:	e8 f6 b5 ff ff       	callq  27d0 <dcgettext@plt>
    71da:	48 8b 3d 7f 9f 00 00 	mov    0x9f7f(%rip),%rdi        # 11160 <stderr@@GLIBC_2.2.5>
    71e1:	be 01 00 00 00       	mov    $0x1,%esi
    71e6:	48 89 c2             	mov    %rax,%rdx
    71e9:	4c 89 e1             	mov    %r12,%rcx
    71ec:	31 c0                	xor    %eax,%eax
    71ee:	e8 cd b9 ff ff       	callq  2bc0 <__fprintf_chk@plt>
    71f3:	8b 05 d3 9f 00 00    	mov    0x9fd3(%rip),%eax        # 111cc <stderr@@GLIBC_2.2.5+0x6c>
    71f9:	85 c0                	test   %eax,%eax
    71fb:	74 2b                	je     7228 <bfd_seek@plt+0x45f8>
    71fd:	41 5c                	pop    %r12
    71ff:	c3                   	retq   
    7200:	48 8b 88 d8 00 00 00 	mov    0xd8(%rax),%rcx
    7207:	48 85 c9             	test   %rcx,%rcx
    720a:	74 f1                	je     71fd <bfd_seek@plt+0x45cd>
    720c:	0f 1f 40 00          	nopl   0x0(%rax)
    7210:	48 89 cf             	mov    %rcx,%rdi
    7213:	31 f6                	xor    %esi,%esi
    7215:	48 8b 89 d8 00 00 00 	mov    0xd8(%rcx),%rcx
    721c:	e8 bf fa ff ff       	callq  6ce0 <bfd_seek@plt+0x40b0>
    7221:	48 85 c9             	test   %rcx,%rcx
    7224:	75 ea                	jne    7210 <bfd_seek@plt+0x45e0>
    7226:	eb d5                	jmp    71fd <bfd_seek@plt+0x45cd>
    7228:	bf 09 00 00 00       	mov    $0x9,%edi
    722d:	e8 0e b9 ff ff       	callq  2b40 <xexit@plt>
    7232:	66 66 2e 0f 1f 84 00 	data16 nopw %cs:0x0(%rax,%rax,1)
    7239:	00 00 00 00 
    723d:	0f 1f 00             	nopl   (%rax)
    7240:	f3 0f 1e fa          	endbr64 
    7244:	41 55                	push   %r13
    7246:	41 54                	push   %r12
    7248:	55                   	push   %rbp
    7249:	53                   	push   %rbx
    724a:	48 83 ec 08          	sub    $0x8,%rsp
    724e:	48 83 3d 02 a0 00 00 	cmpq   $0x0,0xa002(%rip)        # 11258 <stderr@@GLIBC_2.2.5+0xf8>
    7255:	00 
    7256:	0f 84 a4 00 00 00    	je     7300 <bfd_seek@plt+0x46d0>
    725c:	48 89 fb             	mov    %rdi,%rbx
    725f:	48 8d 2d e2 4e 00 00 	lea    0x4ee2(%rip),%rbp        # c148 <bfd_seek@plt+0x9518>
    7266:	48 85 ff             	test   %rdi,%rdi
    7269:	75 2e                	jne    7299 <bfd_seek@plt+0x4669>
    726b:	e9 cd 00 00 00       	jmpq   733d <bfd_seek@plt+0x470d>
    7270:	48 8b 15 e1 9f 00 00 	mov    0x9fe1(%rip),%rdx        # 11258 <stderr@@GLIBC_2.2.5+0xf8>
    7277:	48 8b 8a e0 00 00 00 	mov    0xe0(%rdx),%rcx
    727e:	48 89 88 d8 00 00 00 	mov    %rcx,0xd8(%rax)
    7285:	48 89 82 e0 00 00 00 	mov    %rax,0xe0(%rdx)
    728c:	48 8b 5b 08          	mov    0x8(%rbx),%rbx
    7290:	48 85 db             	test   %rbx,%rbx
    7293:	0f 84 a4 00 00 00    	je     733d <bfd_seek@plt+0x470d>
    7299:	48 8b 3b             	mov    (%rbx),%rdi
    729c:	48 89 ee             	mov    %rbp,%rsi
    729f:	e8 ec b4 ff ff       	callq  2790 <bfd_openr@plt>
    72a4:	48 85 c0             	test   %rax,%rax
    72a7:	75 c7                	jne    7270 <bfd_seek@plt+0x4640>
    72a9:	4c 8b 2b             	mov    (%rbx),%r13
    72ac:	4c 8b 25 fd a0 00 00 	mov    0xa0fd(%rip),%r12        # 113b0 <stderr@@GLIBC_2.2.5+0x250>
    72b3:	ba 05 00 00 00       	mov    $0x5,%edx
    72b8:	31 ff                	xor    %edi,%edi
    72ba:	48 8d 35 d8 5f 00 00 	lea    0x5fd8(%rip),%rsi        # d299 <bfd_seek@plt+0xa669>
    72c1:	e8 0a b5 ff ff       	callq  27d0 <dcgettext@plt>
    72c6:	4d 89 e8             	mov    %r13,%r8
    72c9:	4c 89 e1             	mov    %r12,%rcx
    72cc:	be 01 00 00 00       	mov    $0x1,%esi
    72d1:	48 8b 3d 88 9e 00 00 	mov    0x9e88(%rip),%rdi        # 11160 <stderr@@GLIBC_2.2.5>
    72d8:	48 89 c2             	mov    %rax,%rdx
    72db:	31 c0                	xor    %eax,%eax
    72dd:	e8 de b8 ff ff       	callq  2bc0 <__fprintf_chk@plt>
    72e2:	8b 05 e4 9e 00 00    	mov    0x9ee4(%rip),%eax        # 111cc <stderr@@GLIBC_2.2.5+0x6c>
    72e8:	85 c0                	test   %eax,%eax
    72ea:	75 a0                	jne    728c <bfd_seek@plt+0x465c>
    72ec:	bf 09 00 00 00       	mov    $0x9,%edi
    72f1:	e8 4a b8 ff ff       	callq  2b40 <xexit@plt>
    72f6:	66 2e 0f 1f 84 00 00 	nopw   %cs:0x0(%rax,%rax,1)
    72fd:	00 00 00 
    7300:	4c 8b 25 a9 a0 00 00 	mov    0xa0a9(%rip),%r12        # 113b0 <stderr@@GLIBC_2.2.5+0x250>
    7307:	ba 05 00 00 00       	mov    $0x5,%edx
    730c:	48 8d 35 6a 5f 00 00 	lea    0x5f6a(%rip),%rsi        # d27d <bfd_seek@plt+0xa64d>
    7313:	31 ff                	xor    %edi,%edi
    7315:	e8 b6 b4 ff ff       	callq  27d0 <dcgettext@plt>
    731a:	48 8b 3d 3f 9e 00 00 	mov    0x9e3f(%rip),%rdi        # 11160 <stderr@@GLIBC_2.2.5>
    7321:	be 01 00 00 00       	mov    $0x1,%esi
    7326:	48 89 c2             	mov    %rax,%rdx
    7329:	4c 89 e1             	mov    %r12,%rcx
    732c:	31 c0                	xor    %eax,%eax
    732e:	e8 8d b8 ff ff       	callq  2bc0 <__fprintf_chk@plt>
    7333:	8b 15 93 9e 00 00    	mov    0x9e93(%rip),%edx        # 111cc <stderr@@GLIBC_2.2.5+0x6c>
    7339:	85 d2                	test   %edx,%edx
    733b:	74 af                	je     72ec <bfd_seek@plt+0x46bc>
    733d:	48 83 c4 08          	add    $0x8,%rsp
    7341:	5b                   	pop    %rbx
    7342:	5d                   	pop    %rbp
    7343:	41 5c                	pop    %r12
    7345:	41 5d                	pop    %r13
    7347:	c3                   	retq   
    7348:	0f 1f 84 00 00 00 00 	nopl   0x0(%rax,%rax,1)
    734f:	00 
    7350:	f3 0f 1e fa          	endbr64 
    7354:	48 8b 05 fd 9e 00 00 	mov    0x9efd(%rip),%rax        # 11258 <stderr@@GLIBC_2.2.5+0xf8>
    735b:	48 85 c0             	test   %rax,%rax
    735e:	74 0b                	je     736b <bfd_seek@plt+0x473b>
    7360:	48 c7 80 e0 00 00 00 	movq   $0x0,0xe0(%rax)
    7367:	00 00 00 00 
    736b:	c3                   	retq   
    736c:	0f 1f 40 00          	nopl   0x0(%rax)
    7370:	f3 0f 1e fa          	endbr64 
    7374:	41 55                	push   %r13
    7376:	41 54                	push   %r12
    7378:	55                   	push   %rbp
    7379:	53                   	push   %rbx
    737a:	48 83 ec 08          	sub    $0x8,%rsp
    737e:	48 8b 2d d3 9e 00 00 	mov    0x9ed3(%rip),%rbp        # 11258 <stderr@@GLIBC_2.2.5+0xf8>
    7385:	48 85 ed             	test   %rbp,%rbp
    7388:	0f 84 e2 00 00 00    	je     7470 <bfd_seek@plt+0x4840>
    738e:	49 89 fc             	mov    %rdi,%r12
    7391:	48 85 ff             	test   %rdi,%rdi
    7394:	0f 84 13 01 00 00    	je     74ad <bfd_seek@plt+0x487d>
    739a:	66 0f 1f 44 00 00    	nopw   0x0(%rax,%rax,1)
    73a0:	48 8b 9d e0 00 00 00 	mov    0xe0(%rbp),%rbx
    73a7:	45 31 ed             	xor    %r13d,%r13d
    73aa:	48 81 c5 e0 00 00 00 	add    $0xe0,%rbp
    73b1:	48 85 db             	test   %rbx,%rbx
    73b4:	75 27                	jne    73dd <bfd_seek@plt+0x47ad>
    73b6:	eb 68                	jmp    7420 <bfd_seek@plt+0x47f0>
    73b8:	0f 1f 84 00 00 00 00 	nopl   0x0(%rax,%rax,1)
    73bf:	00 
    73c0:	48 8b 83 d8 00 00 00 	mov    0xd8(%rbx),%rax
    73c7:	41 bd 01 00 00 00    	mov    $0x1,%r13d
    73cd:	48 89 45 00          	mov    %rax,0x0(%rbp)
    73d1:	48 8b 9b d8 00 00 00 	mov    0xd8(%rbx),%rbx
    73d8:	48 85 db             	test   %rbx,%rbx
    73db:	74 23                	je     7400 <bfd_seek@plt+0x47d0>
    73dd:	49 8b 34 24          	mov    (%r12),%rsi
    73e1:	48 8b 3b             	mov    (%rbx),%rdi
    73e4:	e8 77 b3 ff ff       	callq  2760 <filename_cmp@plt>
    73e9:	85 c0                	test   %eax,%eax
    73eb:	74 d3                	je     73c0 <bfd_seek@plt+0x4790>
    73ed:	48 8d ab d8 00 00 00 	lea    0xd8(%rbx),%rbp
    73f4:	48 8b 9b d8 00 00 00 	mov    0xd8(%rbx),%rbx
    73fb:	48 85 db             	test   %rbx,%rbx
    73fe:	75 dd                	jne    73dd <bfd_seek@plt+0x47ad>
    7400:	45 85 ed             	test   %r13d,%r13d
    7403:	74 1b                	je     7420 <bfd_seek@plt+0x47f0>
    7405:	4d 8b 64 24 08       	mov    0x8(%r12),%r12
    740a:	4d 85 e4             	test   %r12,%r12
    740d:	0f 84 9a 00 00 00    	je     74ad <bfd_seek@plt+0x487d>
    7413:	48 8b 2d 3e 9e 00 00 	mov    0x9e3e(%rip),%rbp        # 11258 <stderr@@GLIBC_2.2.5+0xf8>
    741a:	eb 84                	jmp    73a0 <bfd_seek@plt+0x4770>
    741c:	0f 1f 40 00          	nopl   0x0(%rax)
    7420:	49 8b 1c 24          	mov    (%r12),%rbx
    7424:	4c 8b 2d 85 9f 00 00 	mov    0x9f85(%rip),%r13        # 113b0 <stderr@@GLIBC_2.2.5+0x250>
    742b:	ba 05 00 00 00       	mov    $0x5,%edx
    7430:	31 ff                	xor    %edi,%edi
    7432:	48 8d 35 77 5f 00 00 	lea    0x5f77(%rip),%rsi        # d3b0 <bfd_seek@plt+0xa780>
    7439:	e8 92 b3 ff ff       	callq  27d0 <dcgettext@plt>
    743e:	49 89 d8             	mov    %rbx,%r8
    7441:	4c 89 e9             	mov    %r13,%rcx
    7444:	be 01 00 00 00       	mov    $0x1,%esi
    7449:	48 8b 3d 10 9d 00 00 	mov    0x9d10(%rip),%rdi        # 11160 <stderr@@GLIBC_2.2.5>
    7450:	48 89 c2             	mov    %rax,%rdx
    7453:	31 c0                	xor    %eax,%eax
    7455:	e8 66 b7 ff ff       	callq  2bc0 <__fprintf_chk@plt>
    745a:	8b 05 6c 9d 00 00    	mov    0x9d6c(%rip),%eax        # 111cc <stderr@@GLIBC_2.2.5+0x6c>
    7460:	85 c0                	test   %eax,%eax
    7462:	75 a1                	jne    7405 <bfd_seek@plt+0x47d5>
    7464:	bf 09 00 00 00       	mov    $0x9,%edi
    7469:	e8 d2 b6 ff ff       	callq  2b40 <xexit@plt>
    746e:	66 90                	xchg   %ax,%ax
    7470:	4c 8b 25 39 9f 00 00 	mov    0x9f39(%rip),%r12        # 113b0 <stderr@@GLIBC_2.2.5+0x250>
    7477:	ba 05 00 00 00       	mov    $0x5,%edx
    747c:	48 8d 35 fa 5d 00 00 	lea    0x5dfa(%rip),%rsi        # d27d <bfd_seek@plt+0xa64d>
    7483:	31 ff                	xor    %edi,%edi
    7485:	e8 46 b3 ff ff       	callq  27d0 <dcgettext@plt>
    748a:	48 8b 3d cf 9c 00 00 	mov    0x9ccf(%rip),%rdi        # 11160 <stderr@@GLIBC_2.2.5>
    7491:	be 01 00 00 00       	mov    $0x1,%esi
    7496:	48 89 c2             	mov    %rax,%rdx
    7499:	4c 89 e1             	mov    %r12,%rcx
    749c:	31 c0                	xor    %eax,%eax
    749e:	e8 1d b7 ff ff       	callq  2bc0 <__fprintf_chk@plt>
    74a3:	8b 15 23 9d 00 00    	mov    0x9d23(%rip),%edx        # 111cc <stderr@@GLIBC_2.2.5+0x6c>
    74a9:	85 d2                	test   %edx,%edx
    74ab:	74 b7                	je     7464 <bfd_seek@plt+0x4834>
    74ad:	48 83 c4 08          	add    $0x8,%rsp
    74b1:	5b                   	pop    %rbx
    74b2:	5d                   	pop    %rbp
    74b3:	41 5c                	pop    %r12
    74b5:	41 5d                	pop    %r13
    74b7:	c3                   	retq   
    74b8:	0f 1f 84 00 00 00 00 	nopl   0x0(%rax,%rax,1)
    74bf:	00 
    74c0:	f3 0f 1e fa          	endbr64 
    74c4:	41 54                	push   %r12
    74c6:	55                   	push   %rbp
    74c7:	48 83 ec 08          	sub    $0x8,%rsp
    74cb:	48 8b 05 86 9d 00 00 	mov    0x9d86(%rip),%rax        # 11258 <stderr@@GLIBC_2.2.5+0xf8>
    74d2:	48 85 c0             	test   %rax,%rax
    74d5:	74 59                	je     7530 <bfd_seek@plt+0x4900>
    74d7:	48 8b 38             	mov    (%rax),%rdi
    74da:	e8 01 b4 ff ff       	callq  28e0 <xstrdup@plt>
    74df:	48 8b 3d 72 9d 00 00 	mov    0x9d72(%rip),%rdi        # 11258 <stderr@@GLIBC_2.2.5+0xf8>
    74e6:	48 89 c5             	mov    %rax,%rbp
    74e9:	8b 05 25 9b 00 00    	mov    0x9b25(%rip),%eax        # 11014 <bfd_seek@plt+0xe3e4>
    74ef:	85 c0                	test   %eax,%eax
    74f1:	7e 07                	jle    74fa <bfd_seek@plt+0x48ca>
    74f3:	81 4f 48 00 20 00 00 	orl    $0x2000,0x48(%rdi)
    74fa:	e8 51 b6 ff ff       	callq  2b50 <bfd_close@plt>
    74ff:	48 8b 35 4a 9d 00 00 	mov    0x9d4a(%rip),%rsi        # 11250 <stderr@@GLIBC_2.2.5+0xf0>
    7506:	48 89 ef             	mov    %rbp,%rdi
    7509:	31 d2                	xor    %edx,%edx
    750b:	e8 d0 06 00 00       	callq  7be0 <bfd_seek@plt+0x4fb0>
    7510:	48 89 ef             	mov    %rbp,%rdi
    7513:	48 c7 05 3a 9d 00 00 	movq   $0x0,0x9d3a(%rip)        # 11258 <stderr@@GLIBC_2.2.5+0xf8>
    751a:	00 00 00 00 
    751e:	48 83 c4 08          	add    $0x8,%rsp
    7522:	5d                   	pop    %rbp
    7523:	41 5c                	pop    %r12
    7525:	e9 46 b1 ff ff       	jmpq   2670 <free@plt>
    752a:	66 0f 1f 44 00 00    	nopw   0x0(%rax,%rax,1)
    7530:	4c 8b 25 79 9e 00 00 	mov    0x9e79(%rip),%r12        # 113b0 <stderr@@GLIBC_2.2.5+0x250>
    7537:	ba 05 00 00 00       	mov    $0x5,%edx
    753c:	48 8d 35 3a 5d 00 00 	lea    0x5d3a(%rip),%rsi        # d27d <bfd_seek@plt+0xa64d>
    7543:	31 ff                	xor    %edi,%edi
    7545:	e8 86 b2 ff ff       	callq  27d0 <dcgettext@plt>
    754a:	48 8b 3d 0f 9c 00 00 	mov    0x9c0f(%rip),%rdi        # 11160 <stderr@@GLIBC_2.2.5>
    7551:	be 01 00 00 00       	mov    $0x1,%esi
    7556:	48 89 c2             	mov    %rax,%rdx
    7559:	4c 89 e1             	mov    %r12,%rcx
    755c:	31 c0                	xor    %eax,%eax
    755e:	e8 5d b6 ff ff       	callq  2bc0 <__fprintf_chk@plt>
    7563:	8b 15 63 9c 00 00    	mov    0x9c63(%rip),%edx        # 111cc <stderr@@GLIBC_2.2.5+0x6c>
    7569:	85 d2                	test   %edx,%edx
    756b:	74 08                	je     7575 <bfd_seek@plt+0x4945>
    756d:	48 83 c4 08          	add    $0x8,%rsp
    7571:	5d                   	pop    %rbp
    7572:	41 5c                	pop    %r12
    7574:	c3                   	retq   
    7575:	bf 09 00 00 00       	mov    $0x9,%edi
    757a:	e8 c1 b5 ff ff       	callq  2b40 <xexit@plt>
    757f:	90                   	nop
    7580:	f3 0f 1e fa          	endbr64 
    7584:	41 57                	push   %r15
    7586:	41 56                	push   %r14
    7588:	41 55                	push   %r13
    758a:	41 54                	push   %r12
    758c:	55                   	push   %rbp
    758d:	53                   	push   %rbx
    758e:	48 83 ec 08          	sub    $0x8,%rsp
    7592:	4c 8b 25 bf 9c 00 00 	mov    0x9cbf(%rip),%r12        # 11258 <stderr@@GLIBC_2.2.5+0xf8>
    7599:	4d 85 e4             	test   %r12,%r12
    759c:	0f 84 be 01 00 00    	je     7760 <bfd_seek@plt+0x4b30>
    75a2:	48 89 fd             	mov    %rdi,%rbp
    75a5:	48 85 ff             	test   %rdi,%rdi
    75a8:	0f 84 50 01 00 00    	je     76fe <bfd_seek@plt+0x4ace>
    75ae:	66 90                	xchg   %ax,%ax
    75b0:	49 8b 9c 24 e0 00 00 	mov    0xe0(%r12),%rbx
    75b7:	00 
    75b8:	49 81 c4 e0 00 00 00 	add    $0xe0,%r12
    75bf:	48 85 db             	test   %rbx,%rbx
    75c2:	0f 84 d8 00 00 00    	je     76a0 <bfd_seek@plt+0x4a70>
    75c8:	45 31 ed             	xor    %r13d,%r13d
    75cb:	eb 16                	jmp    75e3 <bfd_seek@plt+0x49b3>
    75cd:	0f 1f 00             	nopl   (%rax)
    75d0:	4c 8d a3 d8 00 00 00 	lea    0xd8(%rbx),%r12
    75d7:	48 8b 9b d8 00 00 00 	mov    0xd8(%rbx),%rbx
    75de:	48 85 db             	test   %rbx,%rbx
    75e1:	74 44                	je     7627 <bfd_seek@plt+0x49f7>
    75e3:	48 8b 75 00          	mov    0x0(%rbp),%rsi
    75e7:	48 8b 3b             	mov    (%rbx),%rdi
    75ea:	e8 71 b1 ff ff       	callq  2760 <filename_cmp@plt>
    75ef:	85 c0                	test   %eax,%eax
    75f1:	75 dd                	jne    75d0 <bfd_seek@plt+0x49a0>
    75f3:	48 8b 7d 00          	mov    0x0(%rbp),%rdi
    75f7:	31 f6                	xor    %esi,%esi
    75f9:	e8 92 b1 ff ff       	callq  2790 <bfd_openr@plt>
    75fe:	48 85 c0             	test   %rax,%rax
    7601:	74 45                	je     7648 <bfd_seek@plt+0x4a18>
    7603:	49 89 04 24          	mov    %rax,(%r12)
    7607:	48 8b 93 d8 00 00 00 	mov    0xd8(%rbx),%rdx
    760e:	41 bd 01 00 00 00    	mov    $0x1,%r13d
    7614:	48 89 90 d8 00 00 00 	mov    %rdx,0xd8(%rax)
    761b:	48 8b 9b d8 00 00 00 	mov    0xd8(%rbx),%rbx
    7622:	48 85 db             	test   %rbx,%rbx
    7625:	75 bc                	jne    75e3 <bfd_seek@plt+0x49b3>
    7627:	45 85 ed             	test   %r13d,%r13d
    762a:	74 74                	je     76a0 <bfd_seek@plt+0x4a70>
    762c:	48 8b 6d 08          	mov    0x8(%rbp),%rbp
    7630:	48 85 ed             	test   %rbp,%rbp
    7633:	0f 84 c5 00 00 00    	je     76fe <bfd_seek@plt+0x4ace>
    7639:	4c 8b 25 18 9c 00 00 	mov    0x9c18(%rip),%r12        # 11258 <stderr@@GLIBC_2.2.5+0xf8>
    7640:	e9 6b ff ff ff       	jmpq   75b0 <bfd_seek@plt+0x4980>
    7645:	0f 1f 00             	nopl   (%rax)
    7648:	4c 8b 7d 00          	mov    0x0(%rbp),%r15
    764c:	4c 8b 35 5d 9d 00 00 	mov    0x9d5d(%rip),%r14        # 113b0 <stderr@@GLIBC_2.2.5+0x250>
    7653:	ba 05 00 00 00       	mov    $0x5,%edx
    7658:	31 ff                	xor    %edi,%edi
    765a:	48 8d 35 38 5c 00 00 	lea    0x5c38(%rip),%rsi        # d299 <bfd_seek@plt+0xa669>
    7661:	e8 6a b1 ff ff       	callq  27d0 <dcgettext@plt>
    7666:	4d 89 f8             	mov    %r15,%r8
    7669:	4c 89 f1             	mov    %r14,%rcx
    766c:	be 01 00 00 00       	mov    $0x1,%esi
    7671:	48 8b 3d e8 9a 00 00 	mov    0x9ae8(%rip),%rdi        # 11160 <stderr@@GLIBC_2.2.5>
    7678:	48 89 c2             	mov    %rax,%rdx
    767b:	31 c0                	xor    %eax,%eax
    767d:	e8 3e b5 ff ff       	callq  2bc0 <__fprintf_chk@plt>
    7682:	8b 15 44 9b 00 00    	mov    0x9b44(%rip),%edx        # 111cc <stderr@@GLIBC_2.2.5+0x6c>
    7688:	85 d2                	test   %edx,%edx
    768a:	0f 85 47 ff ff ff    	jne    75d7 <bfd_seek@plt+0x49a7>
    7690:	bf 09 00 00 00       	mov    $0x9,%edi
    7695:	e8 a6 b4 ff ff       	callq  2b40 <xexit@plt>
    769a:	66 0f 1f 44 00 00    	nopw   0x0(%rax,%rax,1)
    76a0:	48 8b 7d 00          	mov    0x0(%rbp),%rdi
    76a4:	31 f6                	xor    %esi,%esi
    76a6:	e8 e5 b0 ff ff       	callq  2790 <bfd_openr@plt>
    76ab:	31 ff                	xor    %edi,%edi
    76ad:	4c 8b 75 00          	mov    0x0(%rbp),%r14
    76b1:	ba 05 00 00 00       	mov    $0x5,%edx
    76b6:	4c 8b 2d f3 9c 00 00 	mov    0x9cf3(%rip),%r13        # 113b0 <stderr@@GLIBC_2.2.5+0x250>
    76bd:	48 8d 35 ec 5c 00 00 	lea    0x5cec(%rip),%rsi        # d3b0 <bfd_seek@plt+0xa780>
    76c4:	48 89 c3             	mov    %rax,%rbx
    76c7:	e8 04 b1 ff ff       	callq  27d0 <dcgettext@plt>
    76cc:	48 8b 3d 8d 9a 00 00 	mov    0x9a8d(%rip),%rdi        # 11160 <stderr@@GLIBC_2.2.5>
    76d3:	4d 89 f0             	mov    %r14,%r8
    76d6:	be 01 00 00 00       	mov    $0x1,%esi
    76db:	48 89 c2             	mov    %rax,%rdx
    76de:	4c 89 e9             	mov    %r13,%rcx
    76e1:	31 c0                	xor    %eax,%eax
    76e3:	e8 d8 b4 ff ff       	callq  2bc0 <__fprintf_chk@plt>
    76e8:	48 85 db             	test   %rbx,%rbx
    76eb:	74 20                	je     770d <bfd_seek@plt+0x4add>
    76ed:	48 8b 6d 08          	mov    0x8(%rbp),%rbp
    76f1:	49 89 1c 24          	mov    %rbx,(%r12)
    76f5:	48 85 ed             	test   %rbp,%rbp
    76f8:	0f 85 3b ff ff ff    	jne    7639 <bfd_seek@plt+0x4a09>
    76fe:	48 83 c4 08          	add    $0x8,%rsp
    7702:	5b                   	pop    %rbx
    7703:	5d                   	pop    %rbp
    7704:	41 5c                	pop    %r12
    7706:	41 5d                	pop    %r13
    7708:	41 5e                	pop    %r14
    770a:	41 5f                	pop    %r15
    770c:	c3                   	retq   
    770d:	48 8b 5d 00          	mov    0x0(%rbp),%rbx
    7711:	4c 8b 25 98 9c 00 00 	mov    0x9c98(%rip),%r12        # 113b0 <stderr@@GLIBC_2.2.5+0x250>
    7718:	ba 05 00 00 00       	mov    $0x5,%edx
    771d:	31 ff                	xor    %edi,%edi
    771f:	48 8d 35 73 5b 00 00 	lea    0x5b73(%rip),%rsi        # d299 <bfd_seek@plt+0xa669>
    7726:	e8 a5 b0 ff ff       	callq  27d0 <dcgettext@plt>
    772b:	49 89 d8             	mov    %rbx,%r8
    772e:	4c 89 e1             	mov    %r12,%rcx
    7731:	be 01 00 00 00       	mov    $0x1,%esi
    7736:	48 8b 3d 23 9a 00 00 	mov    0x9a23(%rip),%rdi        # 11160 <stderr@@GLIBC_2.2.5>
    773d:	48 89 c2             	mov    %rax,%rdx
    7740:	31 c0                	xor    %eax,%eax
    7742:	e8 79 b4 ff ff       	callq  2bc0 <__fprintf_chk@plt>
    7747:	8b 05 7f 9a 00 00    	mov    0x9a7f(%rip),%eax        # 111cc <stderr@@GLIBC_2.2.5+0x6c>
    774d:	85 c0                	test   %eax,%eax
    774f:	0f 85 d7 fe ff ff    	jne    762c <bfd_seek@plt+0x49fc>
    7755:	e9 36 ff ff ff       	jmpq   7690 <bfd_seek@plt+0x4a60>
    775a:	66 0f 1f 44 00 00    	nopw   0x0(%rax,%rax,1)
    7760:	4c 8b 25 49 9c 00 00 	mov    0x9c49(%rip),%r12        # 113b0 <stderr@@GLIBC_2.2.5+0x250>
    7767:	ba 05 00 00 00       	mov    $0x5,%edx
    776c:	48 8d 35 0a 5b 00 00 	lea    0x5b0a(%rip),%rsi        # d27d <bfd_seek@plt+0xa64d>
    7773:	31 ff                	xor    %edi,%edi
    7775:	e8 56 b0 ff ff       	callq  27d0 <dcgettext@plt>
    777a:	48 8b 3d df 99 00 00 	mov    0x99df(%rip),%rdi        # 11160 <stderr@@GLIBC_2.2.5>
    7781:	be 01 00 00 00       	mov    $0x1,%esi
    7786:	48 89 c2             	mov    %rax,%rdx
    7789:	4c 89 e1             	mov    %r12,%rcx
    778c:	31 c0                	xor    %eax,%eax
    778e:	e8 2d b4 ff ff       	callq  2bc0 <__fprintf_chk@plt>
    7793:	8b 0d 33 9a 00 00    	mov    0x9a33(%rip),%ecx        # 111cc <stderr@@GLIBC_2.2.5+0x6c>
    7799:	85 c9                	test   %ecx,%ecx
    779b:	0f 84 ef fe ff ff    	je     7690 <bfd_seek@plt+0x4a60>
    77a1:	48 83 c4 08          	add    $0x8,%rsp
    77a5:	5b                   	pop    %rbx
    77a6:	5d                   	pop    %rbp
    77a7:	41 5c                	pop    %r12
    77a9:	41 5d                	pop    %r13
    77ab:	41 5e                	pop    %r14
    77ad:	41 5f                	pop    %r15
    77af:	c3                   	retq   
    77b0:	f3 0f 1e fa          	endbr64 
    77b4:	41 54                	push   %r12
    77b6:	53                   	push   %rbx
    77b7:	48 83 ec 08          	sub    $0x8,%rsp
    77bb:	48 8b 05 96 9a 00 00 	mov    0x9a96(%rip),%rax        # 11258 <stderr@@GLIBC_2.2.5+0xf8>
    77c2:	48 85 c0             	test   %rax,%rax
    77c5:	0f 84 85 00 00 00    	je     7850 <bfd_seek@plt+0x4c20>
    77cb:	48 8b 15 4e 99 00 00 	mov    0x994e(%rip),%rdx        # 11120 <stdout@@GLIBC_2.2.5>
    77d2:	4c 8b 20             	mov    (%rax),%r12
    77d5:	48 8d 35 d5 5a 00 00 	lea    0x5ad5(%rip),%rsi        # d2b1 <bfd_seek@plt+0xa681>
    77dc:	31 ff                	xor    %edi,%edi
    77de:	c7 05 08 9a 00 00 01 	movl   $0x1,0x9a08(%rip)        # 111f0 <stderr@@GLIBC_2.2.5+0x90>
    77e5:	00 00 00 
    77e8:	48 89 15 59 9a 00 00 	mov    %rdx,0x9a59(%rip)        # 11248 <stderr@@GLIBC_2.2.5+0xe8>
    77ef:	ba 05 00 00 00       	mov    $0x5,%edx
    77f4:	e8 d7 af ff ff       	callq  27d0 <dcgettext@plt>
    77f9:	4c 89 e2             	mov    %r12,%rdx
    77fc:	bf 01 00 00 00       	mov    $0x1,%edi
    7801:	48 89 c6             	mov    %rax,%rsi
    7804:	31 c0                	xor    %eax,%eax
    7806:	e8 c5 b2 ff ff       	callq  2ad0 <__printf_chk@plt>
    780b:	48 8b 05 46 9a 00 00 	mov    0x9a46(%rip),%rax        # 11258 <stderr@@GLIBC_2.2.5+0xf8>
    7812:	48 8b 98 e0 00 00 00 	mov    0xe0(%rax),%rbx
    7819:	48 85 db             	test   %rbx,%rbx
    781c:	74 25                	je     7843 <bfd_seek@plt+0x4c13>
    781e:	66 90                	xchg   %ax,%ax
    7820:	8b 15 ca 99 00 00    	mov    0x99ca(%rip),%edx        # 111f0 <stderr@@GLIBC_2.2.5+0x90>
    7826:	48 8b 3d 1b 9a 00 00 	mov    0x9a1b(%rip),%rdi        # 11248 <stderr@@GLIBC_2.2.5+0xe8>
    782d:	48 89 de             	mov    %rbx,%rsi
    7830:	31 c9                	xor    %ecx,%ecx
    7832:	e8 a9 13 00 00       	callq  8be0 <bfd_seek@plt+0x5fb0>
    7837:	48 8b 9b d8 00 00 00 	mov    0xd8(%rbx),%rbx
    783e:	48 85 db             	test   %rbx,%rbx
    7841:	75 dd                	jne    7820 <bfd_seek@plt+0x4bf0>
    7843:	48 83 c4 08          	add    $0x8,%rsp
    7847:	5b                   	pop    %rbx
    7848:	41 5c                	pop    %r12
    784a:	c3                   	retq   
    784b:	0f 1f 44 00 00       	nopl   0x0(%rax,%rax,1)
    7850:	4c 8b 25 59 9b 00 00 	mov    0x9b59(%rip),%r12        # 113b0 <stderr@@GLIBC_2.2.5+0x250>
    7857:	ba 05 00 00 00       	mov    $0x5,%edx
    785c:	48 8d 35 1a 5a 00 00 	lea    0x5a1a(%rip),%rsi        # d27d <bfd_seek@plt+0xa64d>
    7863:	31 ff                	xor    %edi,%edi
    7865:	e8 66 af ff ff       	callq  27d0 <dcgettext@plt>
    786a:	48 8b 3d ef 98 00 00 	mov    0x98ef(%rip),%rdi        # 11160 <stderr@@GLIBC_2.2.5>
    7871:	be 01 00 00 00       	mov    $0x1,%esi
    7876:	48 89 c2             	mov    %rax,%rdx
    7879:	4c 89 e1             	mov    %r12,%rcx
    787c:	31 c0                	xor    %eax,%eax
    787e:	e8 3d b3 ff ff       	callq  2bc0 <__fprintf_chk@plt>
    7883:	8b 05 43 99 00 00    	mov    0x9943(%rip),%eax        # 111cc <stderr@@GLIBC_2.2.5+0x6c>
    7889:	85 c0                	test   %eax,%eax
    788b:	75 b6                	jne    7843 <bfd_seek@plt+0x4c13>
    788d:	bf 09 00 00 00       	mov    $0x9,%edi
    7892:	e8 a9 b2 ff ff       	callq  2b40 <xexit@plt>
    7897:	66 0f 1f 84 00 00 00 	nopw   0x0(%rax,%rax,1)
    789e:	00 00 
    78a0:	f3 0f 1e fa          	endbr64 
    78a4:	48 8b 3d ad 99 00 00 	mov    0x99ad(%rip),%rdi        # 11258 <stderr@@GLIBC_2.2.5+0xf8>
    78ab:	48 85 ff             	test   %rdi,%rdi
    78ae:	74 20                	je     78d0 <bfd_seek@plt+0x4ca0>
    78b0:	48 83 ec 08          	sub    $0x8,%rsp
    78b4:	e8 d7 ad ff ff       	callq  2690 <bfd_cache_close@plt>
    78b9:	48 8b 05 98 99 00 00 	mov    0x9998(%rip),%rax        # 11258 <stderr@@GLIBC_2.2.5+0xf8>
    78c0:	48 8b 38             	mov    (%rax),%rdi
    78c3:	48 83 c4 08          	add    $0x8,%rsp
    78c7:	e9 04 ae ff ff       	jmpq   26d0 <unlink@plt>
    78cc:	0f 1f 40 00          	nopl   0x0(%rax)
    78d0:	c3                   	retq   
    78d1:	66 66 2e 0f 1f 84 00 	data16 nopw %cs:0x0(%rax,%rax,1)
    78d8:	00 00 00 00 
    78dc:	0f 1f 40 00          	nopl   0x0(%rax)
    78e0:	f3 0f 1e fa          	endbr64 
    78e4:	41 55                	push   %r13
    78e6:	41 54                	push   %r12
    78e8:	55                   	push   %rbp
    78e9:	53                   	push   %rbx
    78ea:	48 83 ec 08          	sub    $0x8,%rsp
    78ee:	48 8b 05 63 99 00 00 	mov    0x9963(%rip),%rax        # 11258 <stderr@@GLIBC_2.2.5+0xf8>
    78f5:	48 85 c0             	test   %rax,%rax
    78f8:	0f 84 b5 00 00 00    	je     79b3 <bfd_seek@plt+0x4d83>
    78fe:	48 89 fb             	mov    %rdi,%rbx
    7901:	4c 8d 25 a8 5a 00 00 	lea    0x5aa8(%rip),%r12        # d3b0 <bfd_seek@plt+0xa780>
    7908:	48 85 ff             	test   %rdi,%rdi
    790b:	0f 84 97 00 00 00    	je     79a8 <bfd_seek@plt+0x4d78>
    7911:	48 8b a8 e0 00 00 00 	mov    0xe0(%rax),%rbp
    7918:	48 85 ed             	test   %rbp,%rbp
    791b:	75 0f                	jne    792c <bfd_seek@plt+0x4cfc>
    791d:	eb 41                	jmp    7960 <bfd_seek@plt+0x4d30>
    791f:	90                   	nop
    7920:	48 8b ad d8 00 00 00 	mov    0xd8(%rbp),%rbp
    7927:	48 85 ed             	test   %rbp,%rbp
    792a:	74 34                	je     7960 <bfd_seek@plt+0x4d30>
    792c:	48 8b 33             	mov    (%rbx),%rsi
    792f:	48 8b 7d 00          	mov    0x0(%rbp),%rdi
    7933:	e8 28 ae ff ff       	callq  2760 <filename_cmp@plt>
    7938:	85 c0                	test   %eax,%eax
    793a:	75 e4                	jne    7920 <bfd_seek@plt+0x4cf0>
    793c:	48 89 ef             	mov    %rbp,%rdi
    793f:	e8 1c e9 ff ff       	callq  6260 <bfd_seek@plt+0x3630>
    7944:	48 8b 5b 08          	mov    0x8(%rbx),%rbx
    7948:	48 85 db             	test   %rbx,%rbx
    794b:	74 5b                	je     79a8 <bfd_seek@plt+0x4d78>
    794d:	48 8b 05 04 99 00 00 	mov    0x9904(%rip),%rax        # 11258 <stderr@@GLIBC_2.2.5+0xf8>
    7954:	48 8b a8 e0 00 00 00 	mov    0xe0(%rax),%rbp
    795b:	48 85 ed             	test   %rbp,%rbp
    795e:	75 cc                	jne    792c <bfd_seek@plt+0x4cfc>
    7960:	48 8b 3b             	mov    (%rbx),%rdi
    7963:	31 f6                	xor    %esi,%esi
    7965:	e8 26 ae ff ff       	callq  2790 <bfd_openr@plt>
    796a:	48 8b 2b             	mov    (%rbx),%rbp
    796d:	ba 05 00 00 00       	mov    $0x5,%edx
    7972:	4c 89 e6             	mov    %r12,%rsi
    7975:	4c 8b 2d 34 9a 00 00 	mov    0x9a34(%rip),%r13        # 113b0 <stderr@@GLIBC_2.2.5+0x250>
    797c:	31 ff                	xor    %edi,%edi
    797e:	e8 4d ae ff ff       	callq  27d0 <dcgettext@plt>
    7983:	48 8b 3d d6 97 00 00 	mov    0x97d6(%rip),%rdi        # 11160 <stderr@@GLIBC_2.2.5>
    798a:	49 89 e8             	mov    %rbp,%r8
    798d:	be 01 00 00 00       	mov    $0x1,%esi
    7992:	48 89 c2             	mov    %rax,%rdx
    7995:	4c 89 e9             	mov    %r13,%rcx
    7998:	31 c0                	xor    %eax,%eax
    799a:	e8 21 b2 ff ff       	callq  2bc0 <__fprintf_chk@plt>
    799f:	48 8b 5b 08          	mov    0x8(%rbx),%rbx
    79a3:	48 85 db             	test   %rbx,%rbx
    79a6:	75 a5                	jne    794d <bfd_seek@plt+0x4d1d>
    79a8:	48 83 c4 08          	add    $0x8,%rsp
    79ac:	5b                   	pop    %rbx
    79ad:	5d                   	pop    %rbp
    79ae:	41 5c                	pop    %r12
    79b0:	41 5d                	pop    %r13
    79b2:	c3                   	retq   
    79b3:	4c 8b 25 f6 99 00 00 	mov    0x99f6(%rip),%r12        # 113b0 <stderr@@GLIBC_2.2.5+0x250>
    79ba:	ba 05 00 00 00       	mov    $0x5,%edx
    79bf:	48 8d 35 07 59 00 00 	lea    0x5907(%rip),%rsi        # d2cd <bfd_seek@plt+0xa69d>
    79c6:	31 ff                	xor    %edi,%edi
    79c8:	e8 03 ae ff ff       	callq  27d0 <dcgettext@plt>
    79cd:	48 8b 3d 8c 97 00 00 	mov    0x978c(%rip),%rdi        # 11160 <stderr@@GLIBC_2.2.5>
    79d4:	be 01 00 00 00       	mov    $0x1,%esi
    79d9:	48 89 c2             	mov    %rax,%rdx
    79dc:	4c 89 e1             	mov    %r12,%rcx
    79df:	31 c0                	xor    %eax,%eax
    79e1:	e8 da b1 ff ff       	callq  2bc0 <__fprintf_chk@plt>
    79e6:	8b 05 e0 97 00 00    	mov    0x97e0(%rip),%eax        # 111cc <stderr@@GLIBC_2.2.5+0x6c>
    79ec:	85 c0                	test   %eax,%eax
    79ee:	75 b8                	jne    79a8 <bfd_seek@plt+0x4d78>
    79f0:	bf 09 00 00 00       	mov    $0x9,%edi
    79f5:	e8 46 b1 ff ff       	callq  2b40 <xexit@plt>
    79fa:	66 0f 1f 44 00 00    	nopw   0x0(%rax,%rax,1)
    7a00:	41 57                	push   %r15
    7a02:	41 56                	push   %r14
    7a04:	41 55                	push   %r13
    7a06:	41 54                	push   %r12
    7a08:	55                   	push   %rbp
    7a09:	53                   	push   %rbx
    7a0a:	48 81 ec 00 10 00 00 	sub    $0x1000,%rsp
    7a11:	48 83 0c 24 00       	orq    $0x0,(%rsp)
    7a16:	48 81 ec 00 10 00 00 	sub    $0x1000,%rsp
    7a1d:	48 83 0c 24 00       	orq    $0x0,(%rsp)
    7a22:	48 83 ec 18          	sub    $0x18,%rsp
    7a26:	64 48 8b 04 25 28 00 	mov    %fs:0x28,%rax
    7a2d:	00 00 
    7a2f:	48 89 84 24 08 20 00 	mov    %rax,0x2008(%rsp)
    7a36:	00 
    7a37:	31 c0                	xor    %eax,%eax
    7a39:	48 89 f5             	mov    %rsi,%rbp
    7a3c:	31 f6                	xor    %esi,%esi
    7a3e:	e8 cd b0 ff ff       	callq  2b10 <open@plt>
    7a43:	85 c0                	test   %eax,%eax
    7a45:	0f 88 ce 00 00 00    	js     7b19 <bfd_seek@plt+0x4ee9>
    7a4b:	ba ff 01 00 00       	mov    $0x1ff,%edx
    7a50:	be 41 02 00 00       	mov    $0x241,%esi
    7a55:	48 89 ef             	mov    %rbp,%rdi
    7a58:	41 89 c4             	mov    %eax,%r12d
    7a5b:	31 c0                	xor    %eax,%eax
    7a5d:	e8 ae b0 ff ff       	callq  2b10 <open@plt>
    7a62:	41 89 c5             	mov    %eax,%r13d
    7a65:	e8 56 ac ff ff       	callq  26c0 <__errno_location@plt>
    7a6a:	49 89 c6             	mov    %rax,%r14
    7a6d:	45 85 ed             	test   %r13d,%r13d
    7a70:	0f 88 ab 00 00 00    	js     7b21 <bfd_seek@plt+0x4ef1>
    7a76:	48 89 e5             	mov    %rsp,%rbp
    7a79:	eb 1b                	jmp    7a96 <bfd_seek@plt+0x4e66>
    7a7b:	0f 1f 44 00 00       	nopl   0x0(%rax,%rax,1)
    7a80:	48 63 d8             	movslq %eax,%rbx
    7a83:	48 89 ee             	mov    %rbp,%rsi
    7a86:	44 89 ef             	mov    %r13d,%edi
    7a89:	48 89 da             	mov    %rbx,%rdx
    7a8c:	e8 df ac ff ff       	callq  2770 <write@plt>
    7a91:	48 39 d8             	cmp    %rbx,%rax
    7a94:	75 5a                	jne    7af0 <bfd_seek@plt+0x4ec0>
    7a96:	ba 00 20 00 00       	mov    $0x2000,%edx
    7a9b:	48 89 ee             	mov    %rbp,%rsi
    7a9e:	44 89 e7             	mov    %r12d,%edi
    7aa1:	e8 5a ae ff ff       	callq  2900 <read@plt>
    7aa6:	41 89 c7             	mov    %eax,%r15d
    7aa9:	85 c0                	test   %eax,%eax
    7aab:	7f d3                	jg     7a80 <bfd_seek@plt+0x4e50>
    7aad:	44 89 e7             	mov    %r12d,%edi
    7ab0:	41 8b 1e             	mov    (%r14),%ebx
    7ab3:	e8 18 ae ff ff       	callq  28d0 <close@plt>
    7ab8:	44 89 ef             	mov    %r13d,%edi
    7abb:	e8 10 ae ff ff       	callq  28d0 <close@plt>
    7ac0:	45 85 ff             	test   %r15d,%r15d
    7ac3:	75 49                	jne    7b0e <bfd_seek@plt+0x4ede>
    7ac5:	48 8b 84 24 08 20 00 	mov    0x2008(%rsp),%rax
    7acc:	00 
    7acd:	64 48 33 04 25 28 00 	xor    %fs:0x28,%rax
    7ad4:	00 00 
    7ad6:	75 5e                	jne    7b36 <bfd_seek@plt+0x4f06>
    7ad8:	48 81 c4 18 20 00 00 	add    $0x2018,%rsp
    7adf:	44 89 f8             	mov    %r15d,%eax
    7ae2:	5b                   	pop    %rbx
    7ae3:	5d                   	pop    %rbp
    7ae4:	41 5c                	pop    %r12
    7ae6:	41 5d                	pop    %r13
    7ae8:	41 5e                	pop    %r14
    7aea:	41 5f                	pop    %r15
    7aec:	c3                   	retq   
    7aed:	0f 1f 00             	nopl   (%rax)
    7af0:	41 8b 1e             	mov    (%r14),%ebx
    7af3:	44 89 e7             	mov    %r12d,%edi
    7af6:	41 bf ff ff ff ff    	mov    $0xffffffff,%r15d
    7afc:	e8 cf ad ff ff       	callq  28d0 <close@plt>
    7b01:	44 89 ef             	mov    %r13d,%edi
    7b04:	e8 c7 ad ff ff       	callq  28d0 <close@plt>
    7b09:	41 89 1e             	mov    %ebx,(%r14)
    7b0c:	eb b7                	jmp    7ac5 <bfd_seek@plt+0x4e95>
    7b0e:	41 89 1e             	mov    %ebx,(%r14)
    7b11:	41 bf ff ff ff ff    	mov    $0xffffffff,%r15d
    7b17:	eb ac                	jmp    7ac5 <bfd_seek@plt+0x4e95>
    7b19:	41 bf ff ff ff ff    	mov    $0xffffffff,%r15d
    7b1f:	eb a4                	jmp    7ac5 <bfd_seek@plt+0x4e95>
    7b21:	8b 18                	mov    (%rax),%ebx
    7b23:	44 89 e7             	mov    %r12d,%edi
    7b26:	41 bf ff ff ff ff    	mov    $0xffffffff,%r15d
    7b2c:	e8 9f ad ff ff       	callq  28d0 <close@plt>
    7b31:	41 89 1e             	mov    %ebx,(%r14)
    7b34:	eb 8f                	jmp    7ac5 <bfd_seek@plt+0x4e95>
    7b36:	e8 c5 ac ff ff       	callq  2800 <__stack_chk_fail@plt>
    7b3b:	0f 1f 44 00 00       	nopl   0x0(%rax,%rax,1)
    7b40:	f3 0f 1e fa          	endbr64 
    7b44:	41 54                	push   %r12
    7b46:	55                   	push   %rbp
    7b47:	48 89 fd             	mov    %rdi,%rbp
    7b4a:	48 83 ec 28          	sub    $0x28,%rsp
    7b4e:	64 48 8b 04 25 28 00 	mov    %fs:0x28,%rax
    7b55:	00 00 
    7b57:	48 89 44 24 18       	mov    %rax,0x18(%rsp)
    7b5c:	31 c0                	xor    %eax,%eax
    7b5e:	48 8b 46 48          	mov    0x48(%rsi),%rax
    7b62:	48 89 04 24          	mov    %rax,(%rsp)
    7b66:	48 8b 46 58          	mov    0x58(%rsi),%rax
    7b6a:	48 89 e6             	mov    %rsp,%rsi
    7b6d:	48 89 44 24 08       	mov    %rax,0x8(%rsp)
    7b72:	e8 e9 aa ff ff       	callq  2660 <utime@plt>
    7b77:	85 c0                	test   %eax,%eax
    7b79:	75 1d                	jne    7b98 <bfd_seek@plt+0x4f68>
    7b7b:	48 8b 44 24 18       	mov    0x18(%rsp),%rax
    7b80:	64 48 33 04 25 28 00 	xor    %fs:0x28,%rax
    7b87:	00 00 
    7b89:	75 41                	jne    7bcc <bfd_seek@plt+0x4f9c>
    7b8b:	48 83 c4 28          	add    $0x28,%rsp
    7b8f:	5d                   	pop    %rbp
    7b90:	41 5c                	pop    %r12
    7b92:	c3                   	retq   
    7b93:	0f 1f 44 00 00       	nopl   0x0(%rax,%rax,1)
    7b98:	e8 23 ab ff ff       	callq  26c0 <__errno_location@plt>
    7b9d:	8b 38                	mov    (%rax),%edi
    7b9f:	e8 5c b0 ff ff       	callq  2c00 <strerror@plt>
    7ba4:	31 ff                	xor    %edi,%edi
    7ba6:	ba 05 00 00 00       	mov    $0x5,%edx
    7bab:	48 8d 35 1d 58 00 00 	lea    0x581d(%rip),%rsi        # d3cf <bfd_seek@plt+0xa79f>
    7bb2:	49 89 c4             	mov    %rax,%r12
    7bb5:	e8 16 ac ff ff       	callq  27d0 <dcgettext@plt>
    7bba:	4c 89 e2             	mov    %r12,%rdx
    7bbd:	48 89 ee             	mov    %rbp,%rsi
    7bc0:	48 89 c7             	mov    %rax,%rdi
    7bc3:	31 c0                	xor    %eax,%eax
    7bc5:	e8 16 09 00 00       	callq  84e0 <bfd_seek@plt+0x58b0>
    7bca:	eb af                	jmp    7b7b <bfd_seek@plt+0x4f4b>
    7bcc:	e8 2f ac ff ff       	callq  2800 <__stack_chk_fail@plt>
    7bd1:	66 66 2e 0f 1f 84 00 	data16 nopw %cs:0x0(%rax,%rax,1)
    7bd8:	00 00 00 00 
    7bdc:	0f 1f 40 00          	nopl   0x0(%rax)
    7be0:	f3 0f 1e fa          	endbr64 
    7be4:	41 57                	push   %r15
    7be6:	41 56                	push   %r14
    7be8:	41 55                	push   %r13
    7bea:	49 89 fd             	mov    %rdi,%r13
    7bed:	bf 01 00 00 00       	mov    $0x1,%edi
    7bf2:	41 54                	push   %r12
    7bf4:	55                   	push   %rbp
    7bf5:	48 89 f5             	mov    %rsi,%rbp
    7bf8:	53                   	push   %rbx
    7bf9:	89 d3                	mov    %edx,%ebx
    7bfb:	48 81 ec a8 00 00 00 	sub    $0xa8,%rsp
    7c02:	64 48 8b 04 25 28 00 	mov    %fs:0x28,%rax
    7c09:	00 00 
    7c0b:	48 89 84 24 98 00 00 	mov    %rax,0x98(%rsp)
    7c12:	00 
    7c13:	31 c0                	xor    %eax,%eax
    7c15:	49 89 e6             	mov    %rsp,%r14
    7c18:	4c 89 f2             	mov    %r14,%rdx
    7c1b:	e8 d0 ab ff ff       	callq  27f0 <__lxstat@plt>
    7c20:	85 c0                	test   %eax,%eax
    7c22:	75 6c                	jne    7c90 <bfd_seek@plt+0x5060>
    7c24:	8b 44 24 18          	mov    0x18(%rsp),%eax
    7c28:	25 80 f0 00 00       	and    $0xf080,%eax
    7c2d:	3d 80 80 00 00       	cmp    $0x8080,%eax
    7c32:	75 0c                	jne    7c40 <bfd_seek@plt+0x5010>
    7c34:	48 83 7c 24 10 01    	cmpq   $0x1,0x10(%rsp)
    7c3a:	0f 84 c0 00 00 00    	je     7d00 <bfd_seek@plt+0x50d0>
    7c40:	48 89 ee             	mov    %rbp,%rsi
    7c43:	4c 89 ef             	mov    %r13,%rdi
    7c46:	e8 b5 fd ff ff       	callq  7a00 <bfd_seek@plt+0x4dd0>
    7c4b:	41 89 c4             	mov    %eax,%r12d
    7c4e:	85 c0                	test   %eax,%eax
    7c50:	75 6e                	jne    7cc0 <bfd_seek@plt+0x5090>
    7c52:	85 db                	test   %ebx,%ebx
    7c54:	75 5a                	jne    7cb0 <bfd_seek@plt+0x5080>
    7c56:	4c 89 ef             	mov    %r13,%rdi
    7c59:	e8 72 aa ff ff       	callq  26d0 <unlink@plt>
    7c5e:	48 8b 84 24 98 00 00 	mov    0x98(%rsp),%rax
    7c65:	00 
    7c66:	64 48 33 04 25 28 00 	xor    %fs:0x28,%rax
    7c6d:	00 00 
    7c6f:	0f 85 22 01 00 00    	jne    7d97 <bfd_seek@plt+0x5167>
    7c75:	48 81 c4 a8 00 00 00 	add    $0xa8,%rsp
    7c7c:	44 89 e0             	mov    %r12d,%eax
    7c7f:	5b                   	pop    %rbx
    7c80:	5d                   	pop    %rbp
    7c81:	41 5c                	pop    %r12
    7c83:	41 5d                	pop    %r13
    7c85:	41 5e                	pop    %r14
    7c87:	41 5f                	pop    %r15
    7c89:	c3                   	retq   
    7c8a:	66 0f 1f 44 00 00    	nopw   0x0(%rax,%rax,1)
    7c90:	48 89 ee             	mov    %rbp,%rsi
    7c93:	4c 89 ef             	mov    %r13,%rdi
    7c96:	e8 d5 ae ff ff       	callq  2b70 <rename@plt>
    7c9b:	41 89 c4             	mov    %eax,%r12d
    7c9e:	85 c0                	test   %eax,%eax
    7ca0:	0f 85 b2 00 00 00    	jne    7d58 <bfd_seek@plt+0x5128>
    7ca6:	45 31 e4             	xor    %r12d,%r12d
    7ca9:	eb b3                	jmp    7c5e <bfd_seek@plt+0x502e>
    7cab:	0f 1f 44 00 00       	nopl   0x0(%rax,%rax,1)
    7cb0:	4c 89 f6             	mov    %r14,%rsi
    7cb3:	48 89 ef             	mov    %rbp,%rdi
    7cb6:	e8 85 fe ff ff       	callq  7b40 <bfd_seek@plt+0x4f10>
    7cbb:	eb 99                	jmp    7c56 <bfd_seek@plt+0x5026>
    7cbd:	0f 1f 00             	nopl   (%rax)
    7cc0:	e8 fb a9 ff ff       	callq  26c0 <__errno_location@plt>
    7cc5:	8b 38                	mov    (%rax),%edi
    7cc7:	e8 34 af ff ff       	callq  2c00 <strerror@plt>
    7ccc:	31 ff                	xor    %edi,%edi
    7cce:	ba 05 00 00 00       	mov    $0x5,%edx
    7cd3:	48 8d 35 36 57 00 00 	lea    0x5736(%rip),%rsi        # d410 <bfd_seek@plt+0xa7e0>
    7cda:	49 89 c7             	mov    %rax,%r15
    7cdd:	e8 ee aa ff ff       	callq  27d0 <dcgettext@plt>
    7ce2:	4c 89 fa             	mov    %r15,%rdx
    7ce5:	48 89 ee             	mov    %rbp,%rsi
    7ce8:	48 89 c7             	mov    %rax,%rdi
    7ceb:	31 c0                	xor    %eax,%eax
    7ced:	e8 ee 07 00 00       	callq  84e0 <bfd_seek@plt+0x58b0>
    7cf2:	85 db                	test   %ebx,%ebx
    7cf4:	0f 84 5c ff ff ff    	je     7c56 <bfd_seek@plt+0x5026>
    7cfa:	eb b4                	jmp    7cb0 <bfd_seek@plt+0x5080>
    7cfc:	0f 1f 40 00          	nopl   0x0(%rax)
    7d00:	48 89 ee             	mov    %rbp,%rsi
    7d03:	4c 89 ef             	mov    %r13,%rdi
    7d06:	e8 65 ae ff ff       	callq  2b70 <rename@plt>
    7d0b:	41 89 c4             	mov    %eax,%r12d
    7d0e:	85 c0                	test   %eax,%eax
    7d10:	75 46                	jne    7d58 <bfd_seek@plt+0x5128>
    7d12:	8b 74 24 18          	mov    0x18(%rsp),%esi
    7d16:	48 89 ef             	mov    %rbp,%rdi
    7d19:	81 e6 ff 01 00 00    	and    $0x1ff,%esi
    7d1f:	e8 bc ad ff ff       	callq  2ae0 <chmod@plt>
    7d24:	8b 54 24 20          	mov    0x20(%rsp),%edx
    7d28:	8b 74 24 1c          	mov    0x1c(%rsp),%esi
    7d2c:	48 89 ef             	mov    %rbp,%rdi
    7d2f:	e8 4c ad ff ff       	callq  2a80 <chown@plt>
    7d34:	85 c0                	test   %eax,%eax
    7d36:	0f 88 6a ff ff ff    	js     7ca6 <bfd_seek@plt+0x5076>
    7d3c:	8b 74 24 18          	mov    0x18(%rsp),%esi
    7d40:	48 89 ef             	mov    %rbp,%rdi
    7d43:	81 e6 ff 0f 00 00    	and    $0xfff,%esi
    7d49:	e8 92 ad ff ff       	callq  2ae0 <chmod@plt>
    7d4e:	e9 0b ff ff ff       	jmpq   7c5e <bfd_seek@plt+0x502e>
    7d53:	0f 1f 44 00 00       	nopl   0x0(%rax,%rax,1)
    7d58:	e8 63 a9 ff ff       	callq  26c0 <__errno_location@plt>
    7d5d:	8b 38                	mov    (%rax),%edi
    7d5f:	e8 9c ae ff ff       	callq  2c00 <strerror@plt>
    7d64:	31 ff                	xor    %edi,%edi
    7d66:	ba 05 00 00 00       	mov    $0x5,%edx
    7d6b:	48 8d 35 76 56 00 00 	lea    0x5676(%rip),%rsi        # d3e8 <bfd_seek@plt+0xa7b8>
    7d72:	49 89 c6             	mov    %rax,%r14
    7d75:	e8 56 aa ff ff       	callq  27d0 <dcgettext@plt>
    7d7a:	4c 89 f2             	mov    %r14,%rdx
    7d7d:	48 89 ee             	mov    %rbp,%rsi
    7d80:	48 89 c7             	mov    %rax,%rdi
    7d83:	31 c0                	xor    %eax,%eax
    7d85:	e8 56 07 00 00       	callq  84e0 <bfd_seek@plt+0x58b0>
    7d8a:	4c 89 ef             	mov    %r13,%rdi
    7d8d:	e8 3e a9 ff ff       	callq  26d0 <unlink@plt>
    7d92:	e9 c7 fe ff ff       	jmpq   7c5e <bfd_seek@plt+0x502e>
    7d97:	e8 64 aa ff ff       	callq  2800 <__stack_chk_fail@plt>
    7d9c:	0f 1f 40 00          	nopl   0x0(%rax)
    7da0:	f3 0f 1e fa          	endbr64 
    7da4:	b8 01 00 00 00       	mov    $0x1,%eax
    7da9:	c3                   	retq   
    7daa:	66 0f 1f 44 00 00    	nopw   0x0(%rax,%rax,1)
    7db0:	f3 0f 1e fa          	endbr64 
    7db4:	48 8b 05 25 93 00 00 	mov    0x9325(%rip),%rax        # 110e0 <bfd_seek@plt+0xe4b0>
    7dbb:	48 85 c0             	test   %rax,%rax
    7dbe:	74 08                	je     7dc8 <bfd_seek@plt+0x5198>
    7dc0:	ff e0                	jmpq   *%rax
    7dc2:	66 0f 1f 44 00 00    	nopw   0x0(%rax,%rax,1)
    7dc8:	c3                   	retq   
    7dc9:	0f 1f 80 00 00 00 00 	nopl   0x0(%rax)
    7dd0:	f3 0f 1e fa          	endbr64 
    7dd4:	55                   	push   %rbp
    7dd5:	ba 05 00 00 00       	mov    $0x5,%edx
    7dda:	48 89 fd             	mov    %rdi,%rbp
    7ddd:	48 8d 35 51 56 00 00 	lea    0x5651(%rip),%rsi        # d435 <bfd_seek@plt+0xa805>
    7de4:	31 ff                	xor    %edi,%edi
    7de6:	e8 e5 a9 ff ff       	callq  27d0 <dcgettext@plt>
    7deb:	48 89 ef             	mov    %rbp,%rdi
    7dee:	be 01 00 00 00       	mov    $0x1,%esi
    7df3:	48 89 c2             	mov    %rax,%rdx
    7df6:	31 c0                	xor    %eax,%eax
    7df8:	e8 c3 ad ff ff       	callq  2bc0 <__fprintf_chk@plt>
    7dfd:	ba 05 00 00 00       	mov    $0x5,%edx
    7e02:	48 8d 35 57 56 00 00 	lea    0x5657(%rip),%rsi        # d460 <bfd_seek@plt+0xa830>
    7e09:	31 ff                	xor    %edi,%edi
    7e0b:	e8 c0 a9 ff ff       	callq  27d0 <dcgettext@plt>
    7e10:	48 89 ef             	mov    %rbp,%rdi
    7e13:	be 01 00 00 00       	mov    $0x1,%esi
    7e18:	5d                   	pop    %rbp
    7e19:	48 89 c2             	mov    %rax,%rdx
    7e1c:	31 c0                	xor    %eax,%eax
    7e1e:	e9 9d ad ff ff       	jmpq   2bc0 <__fprintf_chk@plt>
    7e23:	66 66 2e 0f 1f 84 00 	data16 nopw %cs:0x0(%rax,%rax,1)
    7e2a:	00 00 00 00 
    7e2e:	66 90                	xchg   %ax,%ax
    7e30:	f3 0f 1e fa          	endbr64 
    7e34:	48 8b 05 ad 92 00 00 	mov    0x92ad(%rip),%rax        # 110e8 <bfd_seek@plt+0xe4b8>
    7e3b:	48 85 c0             	test   %rax,%rax
    7e3e:	74 08                	je     7e48 <bfd_seek@plt+0x5218>
    7e40:	ff e0                	jmpq   *%rax
    7e42:	66 0f 1f 44 00 00    	nopw   0x0(%rax,%rax,1)
    7e48:	31 c0                	xor    %eax,%eax
    7e4a:	c3                   	retq   
    7e4b:	0f 1f 44 00 00       	nopl   0x0(%rax,%rax,1)
    7e50:	f3 0f 1e fa          	endbr64 
    7e54:	41 57                	push   %r15
    7e56:	41 56                	push   %r14
    7e58:	41 55                	push   %r13
    7e5a:	41 89 d5             	mov    %edx,%r13d
    7e5d:	41 54                	push   %r12
    7e5f:	4d 89 c4             	mov    %r8,%r12
    7e62:	55                   	push   %rbp
    7e63:	48 89 fd             	mov    %rdi,%rbp
    7e66:	53                   	push   %rbx
    7e67:	48 89 f3             	mov    %rsi,%rbx
    7e6a:	48 83 ec 08          	sub    $0x8,%rsp
    7e6e:	85 c9                	test   %ecx,%ecx
    7e70:	75 66                	jne    7ed8 <bfd_seek@plt+0x52a8>
    7e72:	48 89 df             	mov    %rbx,%rdi
    7e75:	41 ff d4             	callq  *%r12
    7e78:	85 c0                	test   %eax,%eax
    7e7a:	74 54                	je     7ed0 <bfd_seek@plt+0x52a0>
    7e7c:	45 85 ed             	test   %r13d,%r13d
    7e7f:	75 2f                	jne    7eb0 <bfd_seek@plt+0x5280>
    7e81:	48 8b 45 00          	mov    0x0(%rbp),%rax
    7e85:	41 be 01 00 00 00    	mov    $0x1,%r14d
    7e8b:	48 89 83 d8 00 00 00 	mov    %rax,0xd8(%rbx)
    7e92:	48 89 5d 00          	mov    %rbx,0x0(%rbp)
    7e96:	48 83 c4 08          	add    $0x8,%rsp
    7e9a:	44 89 f0             	mov    %r14d,%eax
    7e9d:	5b                   	pop    %rbx
    7e9e:	5d                   	pop    %rbp
    7e9f:	41 5c                	pop    %r12
    7ea1:	41 5d                	pop    %r13
    7ea3:	41 5e                	pop    %r14
    7ea5:	41 5f                	pop    %r15
    7ea7:	c3                   	retq   
    7ea8:	0f 1f 84 00 00 00 00 	nopl   0x0(%rax,%rax,1)
    7eaf:	00 
    7eb0:	48 8b 13             	mov    (%rbx),%rdx
    7eb3:	48 8d 35 91 55 00 00 	lea    0x5591(%rip),%rsi        # d44b <bfd_seek@plt+0xa81b>
    7eba:	bf 01 00 00 00       	mov    $0x1,%edi
    7ebf:	31 c0                	xor    %eax,%eax
    7ec1:	e8 0a ac ff ff       	callq  2ad0 <__printf_chk@plt>
    7ec6:	eb b9                	jmp    7e81 <bfd_seek@plt+0x5251>
    7ec8:	0f 1f 84 00 00 00 00 	nopl   0x0(%rax,%rax,1)
    7ecf:	00 
    7ed0:	45 31 f6             	xor    %r14d,%r14d
    7ed3:	eb c1                	jmp    7e96 <bfd_seek@plt+0x5266>
    7ed5:	0f 1f 00             	nopl   (%rax)
    7ed8:	be 02 00 00 00       	mov    $0x2,%esi
    7edd:	48 89 df             	mov    %rbx,%rdi
    7ee0:	e8 eb ac ff ff       	callq  2bd0 <bfd_check_format@plt>
    7ee5:	85 c0                	test   %eax,%eax
    7ee7:	74 89                	je     7e72 <bfd_seek@plt+0x5242>
    7ee9:	31 f6                	xor    %esi,%esi
    7eeb:	48 89 df             	mov    %rbx,%rdi
    7eee:	45 31 f6             	xor    %r14d,%r14d
    7ef1:	e8 ea ac ff ff       	callq  2be0 <bfd_openr_next_archived_file@plt>
    7ef6:	49 89 c7             	mov    %rax,%r15
    7ef9:	48 85 c0             	test   %rax,%rax
    7efc:	74 d2                	je     7ed0 <bfd_seek@plt+0x52a0>
    7efe:	4d 89 e0             	mov    %r12,%r8
    7f01:	b9 01 00 00 00       	mov    $0x1,%ecx
    7f06:	44 89 ea             	mov    %r13d,%edx
    7f09:	4c 89 fe             	mov    %r15,%rsi
    7f0c:	48 89 ef             	mov    %rbp,%rdi
    7f0f:	e8 3c ff ff ff       	callq  7e50 <bfd_seek@plt+0x5220>
    7f14:	85 c0                	test   %eax,%eax
    7f16:	74 11                	je     7f29 <bfd_seek@plt+0x52f9>
    7f18:	48 8b 6d 00          	mov    0x0(%rbp),%rbp
    7f1c:	41 be 01 00 00 00    	mov    $0x1,%r14d
    7f22:	48 81 c5 d8 00 00 00 	add    $0xd8,%rbp
    7f29:	4c 89 fe             	mov    %r15,%rsi
    7f2c:	48 89 df             	mov    %rbx,%rdi
    7f2f:	e8 ac ac ff ff       	callq  2be0 <bfd_openr_next_archived_file@plt>
    7f34:	49 89 c7             	mov    %rax,%r15
    7f37:	48 85 c0             	test   %rax,%rax
    7f3a:	75 c2                	jne    7efe <bfd_seek@plt+0x52ce>
    7f3c:	e9 55 ff ff ff       	jmpq   7e96 <bfd_seek@plt+0x5266>
    7f41:	66 66 2e 0f 1f 84 00 	data16 nopw %cs:0x0(%rax,%rax,1)
    7f48:	00 00 00 00 
    7f4c:	0f 1f 40 00          	nopl   0x0(%rax)
    7f50:	f3 0f 1e fa          	endbr64 
    7f54:	41 56                	push   %r14
    7f56:	45 89 c6             	mov    %r8d,%r14d
    7f59:	41 55                	push   %r13
    7f5b:	41 89 cd             	mov    %ecx,%r13d
    7f5e:	41 54                	push   %r12
    7f60:	49 89 fc             	mov    %rdi,%r12
    7f63:	55                   	push   %rbp
    7f64:	48 89 f5             	mov    %rsi,%rbp
    7f67:	48 89 d6             	mov    %rdx,%rsi
    7f6a:	48 89 ef             	mov    %rbp,%rdi
    7f6d:	48 83 ec 08          	sub    $0x8,%rsp
    7f71:	e8 1a a8 ff ff       	callq  2790 <bfd_openr@plt>
    7f76:	48 85 c0             	test   %rax,%rax
    7f79:	74 23                	je     7f9e <bfd_seek@plt+0x536e>
    7f7b:	48 83 c4 08          	add    $0x8,%rsp
    7f7f:	44 89 f1             	mov    %r14d,%ecx
    7f82:	44 89 ea             	mov    %r13d,%edx
    7f85:	4c 89 e7             	mov    %r12,%rdi
    7f88:	5d                   	pop    %rbp
    7f89:	48 89 c6             	mov    %rax,%rsi
    7f8c:	4c 8d 05 0d fe ff ff 	lea    -0x1f3(%rip),%r8        # 7da0 <bfd_seek@plt+0x5170>
    7f93:	41 5c                	pop    %r12
    7f95:	41 5d                	pop    %r13
    7f97:	41 5e                	pop    %r14
    7f99:	e9 b2 fe ff ff       	jmpq   7e50 <bfd_seek@plt+0x5220>
    7f9e:	48 89 ef             	mov    %rbp,%rdi
    7fa1:	e8 fa 03 00 00       	callq  83a0 <bfd_seek@plt+0x5770>
    7fa6:	66 2e 0f 1f 84 00 00 	nopw   %cs:0x0(%rax,%rax,1)
    7fad:	00 00 00 
    7fb0:	f3 0f 1e fa          	endbr64 
    7fb4:	48 8b 05 35 91 00 00 	mov    0x9135(%rip),%rax        # 110f0 <bfd_seek@plt+0xe4c0>
    7fbb:	48 85 c0             	test   %rax,%rax
    7fbe:	74 08                	je     7fc8 <bfd_seek@plt+0x5398>
    7fc0:	ff e0                	jmpq   *%rax
    7fc2:	66 0f 1f 44 00 00    	nopw   0x0(%rax,%rax,1)
    7fc8:	31 c0                	xor    %eax,%eax
    7fca:	c3                   	retq   
    7fcb:	0f 1f 44 00 00       	nopl   0x0(%rax,%rax,1)
    7fd0:	f3 0f 1e fa          	endbr64 
    7fd4:	41 55                	push   %r13
    7fd6:	41 89 cd             	mov    %ecx,%r13d
    7fd9:	41 54                	push   %r12
    7fdb:	49 89 f4             	mov    %rsi,%r12
    7fde:	48 89 d6             	mov    %rdx,%rsi
    7fe1:	55                   	push   %rbp
    7fe2:	48 89 fd             	mov    %rdi,%rbp
    7fe5:	4c 89 e7             	mov    %r12,%rdi
    7fe8:	53                   	push   %rbx
    7fe9:	48 83 ec 08          	sub    $0x8,%rsp
    7fed:	e8 9e a7 ff ff       	callq  2790 <bfd_openr@plt>
    7ff2:	48 85 c0             	test   %rax,%rax
    7ff5:	74 41                	je     8038 <bfd_seek@plt+0x5408>
    7ff7:	48 89 c3             	mov    %rax,%rbx
    7ffa:	45 85 ed             	test   %r13d,%r13d
    7ffd:	75 21                	jne    8020 <bfd_seek@plt+0x53f0>
    7fff:	48 8b 45 00          	mov    0x0(%rbp),%rax
    8003:	48 89 83 d8 00 00 00 	mov    %rax,0xd8(%rbx)
    800a:	b8 01 00 00 00       	mov    $0x1,%eax
    800f:	48 89 5d 00          	mov    %rbx,0x0(%rbp)
    8013:	48 83 c4 08          	add    $0x8,%rsp
    8017:	5b                   	pop    %rbx
    8018:	5d                   	pop    %rbp
    8019:	41 5c                	pop    %r12
    801b:	41 5d                	pop    %r13
    801d:	c3                   	retq   
    801e:	66 90                	xchg   %ax,%ax
    8020:	4c 89 e2             	mov    %r12,%rdx
    8023:	48 8d 35 29 54 00 00 	lea    0x5429(%rip),%rsi        # d453 <bfd_seek@plt+0xa823>
    802a:	bf 01 00 00 00       	mov    $0x1,%edi
    802f:	31 c0                	xor    %eax,%eax
    8031:	e8 9a aa ff ff       	callq  2ad0 <__printf_chk@plt>
    8036:	eb c7                	jmp    7fff <bfd_seek@plt+0x53cf>
    8038:	4c 89 e7             	mov    %r12,%rdi
    803b:	e8 60 03 00 00       	callq  83a0 <bfd_seek@plt+0x5770>
    8040:	f3 0f 1e fa          	endbr64 
    8044:	48 8b 05 ad 90 00 00 	mov    0x90ad(%rip),%rax        # 110f8 <bfd_seek@plt+0xe4c8>
    804b:	48 85 c0             	test   %rax,%rax
    804e:	74 08                	je     8058 <bfd_seek@plt+0x5428>
    8050:	ff e0                	jmpq   *%rax
    8052:	66 0f 1f 44 00 00    	nopw   0x0(%rax,%rax,1)
    8058:	31 c0                	xor    %eax,%eax
    805a:	c3                   	retq   
    805b:	0f 1f 44 00 00       	nopl   0x0(%rax,%rax,1)
    8060:	f3 0f 1e fa          	endbr64 
    8064:	31 c0                	xor    %eax,%eax
    8066:	c3                   	retq   
    8067:	66 0f 1f 84 00 00 00 	nopw   0x0(%rax,%rax,1)
    806e:	00 00 
    8070:	55                   	push   %rbp
    8071:	be 2f 00 00 00       	mov    $0x2f,%esi
    8076:	48 89 fd             	mov    %rdi,%rbp
    8079:	53                   	push   %rbx
    807a:	48 83 ec 08          	sub    $0x8,%rsp
    807e:	e8 ad a7 ff ff       	callq  2830 <strrchr@plt>
    8083:	48 85 c0             	test   %rax,%rax
    8086:	74 48                	je     80d0 <bfd_seek@plt+0x54a0>
    8088:	48 89 c3             	mov    %rax,%rbx
    808b:	48 29 eb             	sub    %rbp,%rbx
    808e:	48 8d 7b 0b          	lea    0xb(%rbx),%rdi
    8092:	e8 09 a8 ff ff       	callq  28a0 <xmalloc@plt>
    8097:	48 89 da             	mov    %rbx,%rdx
    809a:	48 89 ee             	mov    %rbp,%rsi
    809d:	48 89 c7             	mov    %rax,%rdi
    80a0:	e8 1b a9 ff ff       	callq  29c0 <memcpy@plt>
    80a5:	c6 04 18 2f          	movb   $0x2f,(%rax,%rbx,1)
    80a9:	49 89 c0             	mov    %rax,%r8
    80ac:	48 8d 44 18 01       	lea    0x1(%rax,%rbx,1),%rax
    80b1:	48 b9 73 74 58 58 58 	movabs $0x5858585858587473,%rcx
    80b8:	58 58 58 
    80bb:	c6 40 08 00          	movb   $0x0,0x8(%rax)
    80bf:	48 89 08             	mov    %rcx,(%rax)
    80c2:	48 83 c4 08          	add    $0x8,%rsp
    80c6:	4c 89 c0             	mov    %r8,%rax
    80c9:	5b                   	pop    %rbx
    80ca:	5d                   	pop    %rbp
    80cb:	c3                   	retq   
    80cc:	0f 1f 40 00          	nopl   0x0(%rax)
    80d0:	bf 09 00 00 00       	mov    $0x9,%edi
    80d5:	e8 c6 a7 ff ff       	callq  28a0 <xmalloc@plt>
    80da:	49 89 c0             	mov    %rax,%r8
    80dd:	eb d2                	jmp    80b1 <bfd_seek@plt+0x5481>
    80df:	90                   	nop
    80e0:	85 ff                	test   %edi,%edi
    80e2:	74 1c                	je     8100 <bfd_seek@plt+0x54d0>
    80e4:	83 ff 01             	cmp    $0x1,%edi
    80e7:	74 2f                	je     8118 <bfd_seek@plt+0x54e8>
    80e9:	ba 05 00 00 00       	mov    $0x5,%edx
    80ee:	48 8d 35 a5 53 00 00 	lea    0x53a5(%rip),%rsi        # d49a <bfd_seek@plt+0xa86a>
    80f5:	31 ff                	xor    %edi,%edi
    80f7:	e9 d4 a6 ff ff       	jmpq   27d0 <dcgettext@plt>
    80fc:	0f 1f 40 00          	nopl   0x0(%rax)
    8100:	ba 05 00 00 00       	mov    $0x5,%edx
    8105:	48 8d 35 75 53 00 00 	lea    0x5375(%rip),%rsi        # d481 <bfd_seek@plt+0xa851>
    810c:	31 ff                	xor    %edi,%edi
    810e:	e9 bd a6 ff ff       	jmpq   27d0 <dcgettext@plt>
    8113:	0f 1f 44 00 00       	nopl   0x0(%rax,%rax,1)
    8118:	ba 05 00 00 00       	mov    $0x5,%edx
    811d:	48 8d 35 68 53 00 00 	lea    0x5368(%rip),%rsi        # d48c <bfd_seek@plt+0xa85c>
    8124:	31 ff                	xor    %edi,%edi
    8126:	e9 a5 a6 ff ff       	jmpq   27d0 <dcgettext@plt>
    812b:	0f 1f 44 00 00       	nopl   0x0(%rax,%rax,1)
    8130:	f3 0f 1e fa          	endbr64 
    8134:	55                   	push   %rbp
    8135:	53                   	push   %rbx
    8136:	48 89 fb             	mov    %rdi,%rbx
    8139:	48 83 ec 08          	sub    $0x8,%rsp
    813d:	e8 4e a7 ff ff       	callq  2890 <bfd_get_error@plt>
    8142:	85 c0                	test   %eax,%eax
    8144:	75 5a                	jne    81a0 <bfd_seek@plt+0x5570>
    8146:	ba 05 00 00 00       	mov    $0x5,%edx
    814b:	48 8d 35 5b 53 00 00 	lea    0x535b(%rip),%rsi        # d4ad <bfd_seek@plt+0xa87d>
    8152:	31 ff                	xor    %edi,%edi
    8154:	e8 77 a6 ff ff       	callq  27d0 <dcgettext@plt>
    8159:	48 89 c5             	mov    %rax,%rbp
    815c:	48 8b 3d bd 8f 00 00 	mov    0x8fbd(%rip),%rdi        # 11120 <stdout@@GLIBC_2.2.5>
    8163:	e8 c8 a8 ff ff       	callq  2a30 <fflush@plt>
    8168:	48 85 db             	test   %rbx,%rbx
    816b:	74 43                	je     81b0 <bfd_seek@plt+0x5580>
    816d:	48 8b 0d 3c 92 00 00 	mov    0x923c(%rip),%rcx        # 113b0 <stderr@@GLIBC_2.2.5+0x250>
    8174:	49 89 e9             	mov    %rbp,%r9
    8177:	49 89 d8             	mov    %rbx,%r8
    817a:	31 c0                	xor    %eax,%eax
    817c:	48 8b 3d dd 8f 00 00 	mov    0x8fdd(%rip),%rdi        # 11160 <stderr@@GLIBC_2.2.5>
    8183:	48 83 c4 08          	add    $0x8,%rsp
    8187:	be 01 00 00 00       	mov    $0x1,%esi
    818c:	48 8d 15 31 53 00 00 	lea    0x5331(%rip),%rdx        # d4c4 <bfd_seek@plt+0xa894>
    8193:	5b                   	pop    %rbx
    8194:	5d                   	pop    %rbp
    8195:	e9 26 aa ff ff       	jmpq   2bc0 <__fprintf_chk@plt>
    819a:	66 0f 1f 44 00 00    	nopw   0x0(%rax,%rax,1)
    81a0:	89 c7                	mov    %eax,%edi
    81a2:	e8 e9 a9 ff ff       	callq  2b90 <bfd_errmsg@plt>
    81a7:	48 89 c5             	mov    %rax,%rbp
    81aa:	eb b0                	jmp    815c <bfd_seek@plt+0x552c>
    81ac:	0f 1f 40 00          	nopl   0x0(%rax)
    81b0:	48 8b 0d f9 91 00 00 	mov    0x91f9(%rip),%rcx        # 113b0 <stderr@@GLIBC_2.2.5+0x250>
    81b7:	48 8b 3d a2 8f 00 00 	mov    0x8fa2(%rip),%rdi        # 11160 <stderr@@GLIBC_2.2.5>
    81be:	48 83 c4 08          	add    $0x8,%rsp
    81c2:	31 c0                	xor    %eax,%eax
    81c4:	49 89 e8             	mov    %rbp,%r8
    81c7:	5b                   	pop    %rbx
    81c8:	48 8d 15 f9 52 00 00 	lea    0x52f9(%rip),%rdx        # d4c8 <bfd_seek@plt+0xa898>
    81cf:	be 01 00 00 00       	mov    $0x1,%esi
    81d4:	5d                   	pop    %rbp
    81d5:	e9 e6 a9 ff ff       	jmpq   2bc0 <__fprintf_chk@plt>
    81da:	66 0f 1f 44 00 00    	nopw   0x0(%rax,%rax,1)
    81e0:	f3 0f 1e fa          	endbr64 
    81e4:	41 57                	push   %r15
    81e6:	41 56                	push   %r14
    81e8:	49 89 fe             	mov    %rdi,%r14
    81eb:	41 55                	push   %r13
    81ed:	41 54                	push   %r12
    81ef:	49 89 f4             	mov    %rsi,%r12
    81f2:	55                   	push   %rbp
    81f3:	53                   	push   %rbx
    81f4:	48 83 ec 08          	sub    $0x8,%rsp
    81f8:	8b 46 0c             	mov    0xc(%rsi),%eax
    81fb:	8d 50 01             	lea    0x1(%rax),%edx
    81fe:	48 63 c2             	movslq %edx,%rax
    8201:	89 56 0c             	mov    %edx,0xc(%rsi)
    8204:	48 8d 04 40          	lea    (%rax,%rax,2),%rax
    8208:	48 89 c1             	mov    %rax,%rcx
    820b:	48 c1 e1 05          	shl    $0x5,%rcx
    820f:	48 39 4e 10          	cmp    %rcx,0x10(%rsi)
    8213:	73 48                	jae    825d <bfd_seek@plt+0x562d>
    8215:	48 c1 e0 06          	shl    $0x6,%rax
    8219:	bb 00 30 00 00       	mov    $0x3000,%ebx
    821e:	83 fa 3f             	cmp    $0x3f,%edx
    8221:	48 8b 7e 18          	mov    0x18(%rsi),%rdi
    8225:	48 0f 4f d8          	cmovg  %rax,%rbx
    8229:	48 89 de             	mov    %rbx,%rsi
    822c:	e8 ef a5 ff ff       	callq  2820 <xrealloc@plt>
    8231:	49 8b 7c 24 10       	mov    0x10(%r12),%rdi
    8236:	48 89 da             	mov    %rbx,%rdx
    8239:	31 f6                	xor    %esi,%esi
    823b:	49 89 44 24 18       	mov    %rax,0x18(%r12)
    8240:	48 29 fa             	sub    %rdi,%rdx
    8243:	48 01 c7             	add    %rax,%rdi
    8246:	e8 35 a6 ff ff       	callq  2880 <memset@plt>
    824b:	49 63 44 24 0c       	movslq 0xc(%r12),%rax
    8250:	49 89 5c 24 10       	mov    %rbx,0x10(%r12)
    8255:	48 8d 0c 40          	lea    (%rax,%rax,2),%rcx
    8259:	48 c1 e1 05          	shl    $0x5,%rcx
    825d:	49 8b 16             	mov    (%r14),%rdx
    8260:	49 8b 44 24 18       	mov    0x18(%r12),%rax
    8265:	41 8b 7e 0c          	mov    0xc(%r14),%edi
    8269:	48 89 54 08 a0       	mov    %rdx,-0x60(%rax,%rcx,1)
    826e:	e8 6d fe ff ff       	callq  80e0 <bfd_seek@plt+0x54b0>
    8273:	41 8b 7e 10          	mov    0x10(%r14),%edi
    8277:	48 89 c3             	mov    %rax,%rbx
    827a:	e8 61 fe ff ff       	callq  80e0 <bfd_seek@plt+0x54b0>
    827f:	4d 8b 3e             	mov    (%r14),%r15
    8282:	ba 05 00 00 00       	mov    $0x5,%edx
    8287:	31 ff                	xor    %edi,%edi
    8289:	48 8d 35 40 52 00 00 	lea    0x5240(%rip),%rsi        # d4d0 <bfd_seek@plt+0xa8a0>
    8290:	49 89 c5             	mov    %rax,%r13
    8293:	e8 38 a5 ff ff       	callq  27d0 <dcgettext@plt>
    8298:	49 89 d8             	mov    %rbx,%r8
    829b:	4c 89 e9             	mov    %r13,%rcx
    829e:	4c 89 fa             	mov    %r15,%rdx
    82a1:	48 89 c6             	mov    %rax,%rsi
    82a4:	bf 01 00 00 00       	mov    $0x1,%edi
    82a9:	31 c0                	xor    %eax,%eax
    82ab:	e8 20 a8 ff ff       	callq  2ad0 <__printf_chk@plt>
    82b0:	49 8b 36             	mov    (%r14),%rsi
    82b3:	49 8b 3c 24          	mov    (%r12),%rdi
    82b7:	e8 04 a8 ff ff       	callq  2ac0 <bfd_openw@plt>
    82bc:	48 89 c5             	mov    %rax,%rbp
    82bf:	48 85 c0             	test   %rax,%rax
    82c2:	0f 84 9c 00 00 00    	je     8364 <bfd_seek@plt+0x5734>
    82c8:	be 01 00 00 00       	mov    $0x1,%esi
    82cd:	48 89 c7             	mov    %rax,%rdi
    82d0:	bb 02 00 00 00       	mov    $0x2,%ebx
    82d5:	e8 b6 a6 ff ff       	callq  2990 <bfd_set_format@plt>
    82da:	4c 8d 2d 09 52 00 00 	lea    0x5209(%rip),%r13        # d4ea <bfd_seek@plt+0xa8ba>
    82e1:	85 c0                	test   %eax,%eax
    82e3:	75 68                	jne    834d <bfd_seek@plt+0x571d>
    82e5:	e8 a6 a5 ff ff       	callq  2890 <bfd_get_error@plt>
    82ea:	83 f8 05             	cmp    $0x5,%eax
    82ed:	0f 85 97 00 00 00    	jne    838a <bfd_seek@plt+0x575a>
    82f3:	48 89 ef             	mov    %rbp,%rdi
    82f6:	e8 d5 a6 ff ff       	callq  29d0 <bfd_close_all_done@plt>
    82fb:	41 8b 44 24 08       	mov    0x8(%r12),%eax
    8300:	48 83 c4 08          	add    $0x8,%rsp
    8304:	5b                   	pop    %rbx
    8305:	5d                   	pop    %rbp
    8306:	41 5c                	pop    %r12
    8308:	41 5d                	pop    %r13
    830a:	41 5e                	pop    %r14
    830c:	41 5f                	pop    %r15
    830e:	c3                   	retq   
    830f:	90                   	nop
    8310:	31 f6                	xor    %esi,%esi
    8312:	89 df                	mov    %ebx,%edi
    8314:	e8 f7 a6 ff ff       	callq  2a10 <bfd_printable_arch_mach@plt>
    8319:	4c 89 ee             	mov    %r13,%rsi
    831c:	bf 01 00 00 00       	mov    $0x1,%edi
    8321:	48 89 c2             	mov    %rax,%rdx
    8324:	31 c0                	xor    %eax,%eax
    8326:	e8 a5 a7 ff ff       	callq  2ad0 <__printf_chk@plt>
    832b:	49 63 44 24 0c       	movslq 0xc(%r12),%rax
    8330:	8d 53 fe             	lea    -0x2(%rbx),%edx
    8333:	48 8d 04 40          	lea    (%rax,%rax,2),%rax
    8337:	48 c1 e0 05          	shl    $0x5,%rax
    833b:	49 03 44 24 18       	add    0x18(%r12),%rax
    8340:	c6 44 10 a8 01       	movb   $0x1,-0x58(%rax,%rdx,1)
    8345:	83 c3 01             	add    $0x1,%ebx
    8348:	83 fb 59             	cmp    $0x59,%ebx
    834b:	74 a6                	je     82f3 <bfd_seek@plt+0x56c3>
    834d:	48 8b 45 08          	mov    0x8(%rbp),%rax
    8351:	31 d2                	xor    %edx,%edx
    8353:	89 de                	mov    %ebx,%esi
    8355:	48 89 ef             	mov    %rbp,%rdi
    8358:	ff 90 90 02 00 00    	callq  *0x290(%rax)
    835e:	85 c0                	test   %eax,%eax
    8360:	74 e3                	je     8345 <bfd_seek@plt+0x5715>
    8362:	eb ac                	jmp    8310 <bfd_seek@plt+0x56e0>
    8364:	49 8b 3c 24          	mov    (%r12),%rdi
    8368:	e8 c3 fd ff ff       	callq  8130 <bfd_seek@plt+0x5500>
    836d:	b8 01 00 00 00       	mov    $0x1,%eax
    8372:	41 c7 44 24 08 01 00 	movl   $0x1,0x8(%r12)
    8379:	00 00 
    837b:	48 83 c4 08          	add    $0x8,%rsp
    837f:	5b                   	pop    %rbx
    8380:	5d                   	pop    %rbp
    8381:	41 5c                	pop    %r12
    8383:	41 5d                	pop    %r13
    8385:	41 5e                	pop    %r14
    8387:	41 5f                	pop    %r15
    8389:	c3                   	retq   
    838a:	49 8b 3e             	mov    (%r14),%rdi
    838d:	e8 9e fd ff ff       	callq  8130 <bfd_seek@plt+0x5500>
    8392:	41 c7 44 24 08 01 00 	movl   $0x1,0x8(%r12)
    8399:	00 00 
    839b:	e9 53 ff ff ff       	jmpq   82f3 <bfd_seek@plt+0x56c3>
    83a0:	f3 0f 1e fa          	endbr64 
    83a4:	50                   	push   %rax
    83a5:	58                   	pop    %rax
    83a6:	48 83 ec 08          	sub    $0x8,%rsp
    83aa:	e8 81 fd ff ff       	callq  8130 <bfd_seek@plt+0x5500>
    83af:	bf 01 00 00 00       	mov    $0x1,%edi
    83b4:	e8 87 a7 ff ff       	callq  2b40 <xexit@plt>
    83b9:	0f 1f 80 00 00 00 00 	nopl   0x0(%rax)
    83c0:	f3 0f 1e fa          	endbr64 
    83c4:	41 55                	push   %r13
    83c6:	49 89 f5             	mov    %rsi,%r13
    83c9:	41 54                	push   %r12
    83cb:	49 89 fc             	mov    %rdi,%r12
    83ce:	48 83 ec 08          	sub    $0x8,%rsp
    83d2:	48 8b 3d 47 8d 00 00 	mov    0x8d47(%rip),%rdi        # 11120 <stdout@@GLIBC_2.2.5>
    83d9:	e8 52 a6 ff ff       	callq  2a30 <fflush@plt>
    83de:	48 8b 0d cb 8f 00 00 	mov    0x8fcb(%rip),%rcx        # 113b0 <stderr@@GLIBC_2.2.5+0x250>
    83e5:	be 01 00 00 00       	mov    $0x1,%esi
    83ea:	31 c0                	xor    %eax,%eax
    83ec:	48 8b 3d 6d 8d 00 00 	mov    0x8d6d(%rip),%rdi        # 11160 <stderr@@GLIBC_2.2.5>
    83f3:	48 8d 15 55 3d 00 00 	lea    0x3d55(%rip),%rdx        # c14f <bfd_seek@plt+0x951f>
    83fa:	e8 c1 a7 ff ff       	callq  2bc0 <__fprintf_chk@plt>
    83ff:	4c 89 e9             	mov    %r13,%rcx
    8402:	4c 89 e2             	mov    %r12,%rdx
    8405:	be 01 00 00 00       	mov    $0x1,%esi
    840a:	48 8b 3d 4f 8d 00 00 	mov    0x8d4f(%rip),%rdi        # 11160 <stderr@@GLIBC_2.2.5>
    8411:	e8 8a a2 ff ff       	callq  26a0 <__vfprintf_chk@plt>
    8416:	48 8b 35 43 8d 00 00 	mov    0x8d43(%rip),%rsi        # 11160 <stderr@@GLIBC_2.2.5>
    841d:	48 83 c4 08          	add    $0x8,%rsp
    8421:	bf 0a 00 00 00       	mov    $0xa,%edi
    8426:	41 5c                	pop    %r12
    8428:	41 5d                	pop    %r13
    842a:	e9 31 a5 ff ff       	jmpq   2960 <putc@plt>
    842f:	90                   	nop
    8430:	f3 0f 1e fa          	endbr64 
    8434:	50                   	push   %rax
    8435:	58                   	pop    %rax
    8436:	48 81 ec d8 00 00 00 	sub    $0xd8,%rsp
    843d:	48 89 74 24 28       	mov    %rsi,0x28(%rsp)
    8442:	48 89 54 24 30       	mov    %rdx,0x30(%rsp)
    8447:	48 89 4c 24 38       	mov    %rcx,0x38(%rsp)
    844c:	4c 89 44 24 40       	mov    %r8,0x40(%rsp)
    8451:	4c 89 4c 24 48       	mov    %r9,0x48(%rsp)
    8456:	84 c0                	test   %al,%al
    8458:	74 37                	je     8491 <bfd_seek@plt+0x5861>
    845a:	0f 29 44 24 50       	movaps %xmm0,0x50(%rsp)
    845f:	0f 29 4c 24 60       	movaps %xmm1,0x60(%rsp)
    8464:	0f 29 54 24 70       	movaps %xmm2,0x70(%rsp)
    8469:	0f 29 9c 24 80 00 00 	movaps %xmm3,0x80(%rsp)
    8470:	00 
    8471:	0f 29 a4 24 90 00 00 	movaps %xmm4,0x90(%rsp)
    8478:	00 
    8479:	0f 29 ac 24 a0 00 00 	movaps %xmm5,0xa0(%rsp)
    8480:	00 
    8481:	0f 29 b4 24 b0 00 00 	movaps %xmm6,0xb0(%rsp)
    8488:	00 
    8489:	0f 29 bc 24 c0 00 00 	movaps %xmm7,0xc0(%rsp)
    8490:	00 
    8491:	64 48 8b 04 25 28 00 	mov    %fs:0x28,%rax
    8498:	00 00 
    849a:	48 89 44 24 18       	mov    %rax,0x18(%rsp)
    849f:	31 c0                	xor    %eax,%eax
    84a1:	48 8d 84 24 e0 00 00 	lea    0xe0(%rsp),%rax
    84a8:	00 
    84a9:	48 89 e6             	mov    %rsp,%rsi
    84ac:	c7 04 24 08 00 00 00 	movl   $0x8,(%rsp)
    84b3:	48 89 44 24 08       	mov    %rax,0x8(%rsp)
    84b8:	48 8d 44 24 20       	lea    0x20(%rsp),%rax
    84bd:	c7 44 24 04 30 00 00 	movl   $0x30,0x4(%rsp)
    84c4:	00 
    84c5:	48 89 44 24 10       	mov    %rax,0x10(%rsp)
    84ca:	e8 f1 fe ff ff       	callq  83c0 <bfd_seek@plt+0x5790>
    84cf:	bf 01 00 00 00       	mov    $0x1,%edi
    84d4:	e8 67 a6 ff ff       	callq  2b40 <xexit@plt>
    84d9:	0f 1f 80 00 00 00 00 	nopl   0x0(%rax)
    84e0:	f3 0f 1e fa          	endbr64 
    84e4:	48 81 ec d8 00 00 00 	sub    $0xd8,%rsp
    84eb:	48 89 74 24 28       	mov    %rsi,0x28(%rsp)
    84f0:	48 89 54 24 30       	mov    %rdx,0x30(%rsp)
    84f5:	48 89 4c 24 38       	mov    %rcx,0x38(%rsp)
    84fa:	4c 89 44 24 40       	mov    %r8,0x40(%rsp)
    84ff:	4c 89 4c 24 48       	mov    %r9,0x48(%rsp)
    8504:	84 c0                	test   %al,%al
    8506:	74 37                	je     853f <bfd_seek@plt+0x590f>
    8508:	0f 29 44 24 50       	movaps %xmm0,0x50(%rsp)
    850d:	0f 29 4c 24 60       	movaps %xmm1,0x60(%rsp)
    8512:	0f 29 54 24 70       	movaps %xmm2,0x70(%rsp)
    8517:	0f 29 9c 24 80 00 00 	movaps %xmm3,0x80(%rsp)
    851e:	00 
    851f:	0f 29 a4 24 90 00 00 	movaps %xmm4,0x90(%rsp)
    8526:	00 
    8527:	0f 29 ac 24 a0 00 00 	movaps %xmm5,0xa0(%rsp)
    852e:	00 
    852f:	0f 29 b4 24 b0 00 00 	movaps %xmm6,0xb0(%rsp)
    8536:	00 
    8537:	0f 29 bc 24 c0 00 00 	movaps %xmm7,0xc0(%rsp)
    853e:	00 
    853f:	64 48 8b 04 25 28 00 	mov    %fs:0x28,%rax
    8546:	00 00 
    8548:	48 89 44 24 18       	mov    %rax,0x18(%rsp)
    854d:	31 c0                	xor    %eax,%eax
    854f:	48 8d 84 24 e0 00 00 	lea    0xe0(%rsp),%rax
    8556:	00 
    8557:	48 89 e6             	mov    %rsp,%rsi
    855a:	c7 04 24 08 00 00 00 	movl   $0x8,(%rsp)
    8561:	48 89 44 24 08       	mov    %rax,0x8(%rsp)
    8566:	48 8d 44 24 20       	lea    0x20(%rsp),%rax
    856b:	48 89 44 24 10       	mov    %rax,0x10(%rsp)
    8570:	c7 44 24 04 30 00 00 	movl   $0x30,0x4(%rsp)
    8577:	00 
    8578:	e8 43 fe ff ff       	callq  83c0 <bfd_seek@plt+0x5790>
    857d:	48 8b 44 24 18       	mov    0x18(%rsp),%rax
    8582:	64 48 33 04 25 28 00 	xor    %fs:0x28,%rax
    8589:	00 00 
    858b:	75 08                	jne    8595 <bfd_seek@plt+0x5965>
    858d:	48 81 c4 d8 00 00 00 	add    $0xd8,%rsp
    8594:	c3                   	retq   
    8595:	e8 66 a2 ff ff       	callq  2800 <__stack_chk_fail@plt>
    859a:	66 0f 1f 44 00 00    	nopw   0x0(%rax,%rax,1)
    85a0:	f3 0f 1e fa          	endbr64 
    85a4:	41 54                	push   %r12
    85a6:	48 8d 3d 43 4f 00 00 	lea    0x4f43(%rip),%rdi        # d4f0 <bfd_seek@plt+0xa8c0>
    85ad:	e8 7e a1 ff ff       	callq  2730 <bfd_set_default_target@plt>
    85b2:	85 c0                	test   %eax,%eax
    85b4:	74 03                	je     85b9 <bfd_seek@plt+0x5989>
    85b6:	41 5c                	pop    %r12
    85b8:	c3                   	retq   
    85b9:	e8 d2 a2 ff ff       	callq  2890 <bfd_get_error@plt>
    85be:	89 c7                	mov    %eax,%edi
    85c0:	e8 cb a5 ff ff       	callq  2b90 <bfd_errmsg@plt>
    85c5:	ba 05 00 00 00       	mov    $0x5,%edx
    85ca:	48 8d 35 97 50 00 00 	lea    0x5097(%rip),%rsi        # d668 <bfd_seek@plt+0xaa38>
    85d1:	31 ff                	xor    %edi,%edi
    85d3:	49 89 c4             	mov    %rax,%r12
    85d6:	e8 f5 a1 ff ff       	callq  27d0 <dcgettext@plt>
    85db:	4c 89 e2             	mov    %r12,%rdx
    85de:	48 8d 35 0b 4f 00 00 	lea    0x4f0b(%rip),%rsi        # d4f0 <bfd_seek@plt+0xa8c0>
    85e5:	48 89 c7             	mov    %rax,%rdi
    85e8:	31 c0                	xor    %eax,%eax
    85ea:	e8 41 fe ff ff       	callq  8430 <bfd_seek@plt+0x5800>
    85ef:	90                   	nop
    85f0:	f3 0f 1e fa          	endbr64 
    85f4:	41 54                	push   %r12
    85f6:	55                   	push   %rbp
    85f7:	53                   	push   %rbx
    85f8:	48 89 fb             	mov    %rdi,%rbx
    85fb:	48 8b 3d 1e 8b 00 00 	mov    0x8b1e(%rip),%rdi        # 11120 <stdout@@GLIBC_2.2.5>
    8602:	e8 29 a4 ff ff       	callq  2a30 <fflush@plt>
    8607:	4c 8b 25 a2 8d 00 00 	mov    0x8da2(%rip),%r12        # 113b0 <stderr@@GLIBC_2.2.5+0x250>
    860e:	ba 05 00 00 00       	mov    $0x5,%edx
    8613:	31 ff                	xor    %edi,%edi
    8615:	48 8d 35 e8 4e 00 00 	lea    0x4ee8(%rip),%rsi        # d504 <bfd_seek@plt+0xa8d4>
    861c:	e8 af a1 ff ff       	callq  27d0 <dcgettext@plt>
    8621:	48 8b 3d 38 8b 00 00 	mov    0x8b38(%rip),%rdi        # 11160 <stderr@@GLIBC_2.2.5>
    8628:	4c 89 e1             	mov    %r12,%rcx
    862b:	be 01 00 00 00       	mov    $0x1,%esi
    8630:	48 89 c2             	mov    %rax,%rdx
    8633:	31 c0                	xor    %eax,%eax
    8635:	e8 86 a5 ff ff       	callq  2bc0 <__fprintf_chk@plt>
    863a:	48 8b 0b             	mov    (%rbx),%rcx
    863d:	48 85 c9             	test   %rcx,%rcx
    8640:	74 30                	je     8672 <bfd_seek@plt+0x5a42>
    8642:	48 8d 2d 9a 4d 00 00 	lea    0x4d9a(%rip),%rbp        # d3e3 <bfd_seek@plt+0xa7b3>
    8649:	0f 1f 80 00 00 00 00 	nopl   0x0(%rax)
    8650:	48 8b 3d 09 8b 00 00 	mov    0x8b09(%rip),%rdi        # 11160 <stderr@@GLIBC_2.2.5>
    8657:	48 83 c3 08          	add    $0x8,%rbx
    865b:	48 89 ea             	mov    %rbp,%rdx
    865e:	31 c0                	xor    %eax,%eax
    8660:	be 01 00 00 00       	mov    $0x1,%esi
    8665:	e8 56 a5 ff ff       	callq  2bc0 <__fprintf_chk@plt>
    866a:	48 8b 0b             	mov    (%rbx),%rcx
    866d:	48 85 c9             	test   %rcx,%rcx
    8670:	75 de                	jne    8650 <bfd_seek@plt+0x5a20>
    8672:	48 8b 35 e7 8a 00 00 	mov    0x8ae7(%rip),%rsi        # 11160 <stderr@@GLIBC_2.2.5>
    8679:	5b                   	pop    %rbx
    867a:	bf 0a 00 00 00       	mov    $0xa,%edi
    867f:	5d                   	pop    %rbp
    8680:	41 5c                	pop    %r12
    8682:	e9 69 a2 ff ff       	jmpq   28f0 <fputc@plt>
    8687:	66 0f 1f 84 00 00 00 	nopw   0x0(%rax,%rax,1)
    868e:	00 00 
    8690:	f3 0f 1e fa          	endbr64 
    8694:	41 55                	push   %r13
    8696:	41 54                	push   %r12
    8698:	55                   	push   %rbp
    8699:	48 89 f5             	mov    %rsi,%rbp
    869c:	53                   	push   %rbx
    869d:	48 83 ec 08          	sub    $0x8,%rsp
    86a1:	48 85 ff             	test   %rdi,%rdi
    86a4:	0f 84 86 00 00 00    	je     8730 <bfd_seek@plt+0x5b00>
    86aa:	49 89 fc             	mov    %rdi,%r12
    86ad:	ba 05 00 00 00       	mov    $0x5,%edx
    86b2:	48 8d 35 74 4e 00 00 	lea    0x4e74(%rip),%rsi        # d52d <bfd_seek@plt+0xa8fd>
    86b9:	31 ff                	xor    %edi,%edi
    86bb:	e8 10 a1 ff ff       	callq  27d0 <dcgettext@plt>
    86c0:	4c 89 e1             	mov    %r12,%rcx
    86c3:	be 01 00 00 00       	mov    $0x1,%esi
    86c8:	48 89 ef             	mov    %rbp,%rdi
    86cb:	48 89 c2             	mov    %rax,%rdx
    86ce:	31 c0                	xor    %eax,%eax
    86d0:	e8 eb a4 ff ff       	callq  2bc0 <__fprintf_chk@plt>
    86d5:	e8 96 a1 ff ff       	callq  2870 <bfd_target_list@plt>
    86da:	48 8b 08             	mov    (%rax),%rcx
    86dd:	49 89 c5             	mov    %rax,%r13
    86e0:	48 85 c9             	test   %rcx,%rcx
    86e3:	74 29                	je     870e <bfd_seek@plt+0x5ade>
    86e5:	48 8d 58 08          	lea    0x8(%rax),%rbx
    86e9:	4c 8d 25 f3 4c 00 00 	lea    0x4cf3(%rip),%r12        # d3e3 <bfd_seek@plt+0xa7b3>
    86f0:	4c 89 e2             	mov    %r12,%rdx
    86f3:	be 01 00 00 00       	mov    $0x1,%esi
    86f8:	48 89 ef             	mov    %rbp,%rdi
    86fb:	31 c0                	xor    %eax,%eax
    86fd:	e8 be a4 ff ff       	callq  2bc0 <__fprintf_chk@plt>
    8702:	48 8b 0b             	mov    (%rbx),%rcx
    8705:	48 83 c3 08          	add    $0x8,%rbx
    8709:	48 85 c9             	test   %rcx,%rcx
    870c:	75 e2                	jne    86f0 <bfd_seek@plt+0x5ac0>
    870e:	48 89 ee             	mov    %rbp,%rsi
    8711:	bf 0a 00 00 00       	mov    $0xa,%edi
    8716:	e8 d5 a1 ff ff       	callq  28f0 <fputc@plt>
    871b:	48 83 c4 08          	add    $0x8,%rsp
    871f:	4c 89 ef             	mov    %r13,%rdi
    8722:	5b                   	pop    %rbx
    8723:	5d                   	pop    %rbp
    8724:	41 5c                	pop    %r12
    8726:	41 5d                	pop    %r13
    8728:	e9 43 9f ff ff       	jmpq   2670 <free@plt>
    872d:	0f 1f 00             	nopl   (%rax)
    8730:	31 ff                	xor    %edi,%edi
    8732:	ba 05 00 00 00       	mov    $0x5,%edx
    8737:	48 8d 35 dc 4d 00 00 	lea    0x4ddc(%rip),%rsi        # d51a <bfd_seek@plt+0xa8ea>
    873e:	e8 8d a0 ff ff       	callq  27d0 <dcgettext@plt>
    8743:	be 01 00 00 00       	mov    $0x1,%esi
    8748:	48 89 ef             	mov    %rbp,%rdi
    874b:	48 89 c2             	mov    %rax,%rdx
    874e:	31 c0                	xor    %eax,%eax
    8750:	e8 6b a4 ff ff       	callq  2bc0 <__fprintf_chk@plt>
    8755:	e9 7b ff ff ff       	jmpq   86d5 <bfd_seek@plt+0x5aa5>
    875a:	66 0f 1f 44 00 00    	nopw   0x0(%rax,%rax,1)
    8760:	f3 0f 1e fa          	endbr64 
    8764:	41 55                	push   %r13
    8766:	41 54                	push   %r12
    8768:	55                   	push   %rbp
    8769:	48 89 f5             	mov    %rsi,%rbp
    876c:	53                   	push   %rbx
    876d:	48 83 ec 08          	sub    $0x8,%rsp
    8771:	48 85 ff             	test   %rdi,%rdi
    8774:	0f 84 86 00 00 00    	je     8800 <bfd_seek@plt+0x5bd0>
    877a:	49 89 fc             	mov    %rdi,%r12
    877d:	ba 05 00 00 00       	mov    $0x5,%edx
    8782:	48 8d 35 d4 4d 00 00 	lea    0x4dd4(%rip),%rsi        # d55d <bfd_seek@plt+0xa92d>
    8789:	31 ff                	xor    %edi,%edi
    878b:	e8 40 a0 ff ff       	callq  27d0 <dcgettext@plt>
    8790:	4c 89 e1             	mov    %r12,%rcx
    8793:	be 01 00 00 00       	mov    $0x1,%esi
    8798:	48 89 ef             	mov    %rbp,%rdi
    879b:	48 89 c2             	mov    %rax,%rdx
    879e:	31 c0                	xor    %eax,%eax
    87a0:	e8 1b a4 ff ff       	callq  2bc0 <__fprintf_chk@plt>
    87a5:	e8 66 9f ff ff       	callq  2710 <bfd_arch_list@plt>
    87aa:	48 8b 08             	mov    (%rax),%rcx
    87ad:	49 89 c5             	mov    %rax,%r13
    87b0:	48 85 c9             	test   %rcx,%rcx
    87b3:	74 2a                	je     87df <bfd_seek@plt+0x5baf>
    87b5:	48 89 c3             	mov    %rax,%rbx
    87b8:	4c 8d 25 24 4c 00 00 	lea    0x4c24(%rip),%r12        # d3e3 <bfd_seek@plt+0xa7b3>
    87bf:	90                   	nop
    87c0:	4c 89 e2             	mov    %r12,%rdx
    87c3:	be 01 00 00 00       	mov    $0x1,%esi
    87c8:	48 89 ef             	mov    %rbp,%rdi
    87cb:	31 c0                	xor    %eax,%eax
    87cd:	e8 ee a3 ff ff       	callq  2bc0 <__fprintf_chk@plt>
    87d2:	48 8b 4b 08          	mov    0x8(%rbx),%rcx
    87d6:	48 83 c3 08          	add    $0x8,%rbx
    87da:	48 85 c9             	test   %rcx,%rcx
    87dd:	75 e1                	jne    87c0 <bfd_seek@plt+0x5b90>
    87df:	48 89 ee             	mov    %rbp,%rsi
    87e2:	bf 0a 00 00 00       	mov    $0xa,%edi
    87e7:	e8 04 a1 ff ff       	callq  28f0 <fputc@plt>
    87ec:	48 83 c4 08          	add    $0x8,%rsp
    87f0:	4c 89 ef             	mov    %r13,%rdi
    87f3:	5b                   	pop    %rbx
    87f4:	5d                   	pop    %rbp
    87f5:	41 5c                	pop    %r12
    87f7:	41 5d                	pop    %r13
    87f9:	e9 72 9e ff ff       	jmpq   2670 <free@plt>
    87fe:	66 90                	xchg   %ax,%ax
    8800:	31 ff                	xor    %edi,%edi
    8802:	ba 05 00 00 00       	mov    $0x5,%edx
    8807:	48 8d 35 36 4d 00 00 	lea    0x4d36(%rip),%rsi        # d544 <bfd_seek@plt+0xa914>
    880e:	e8 bd 9f ff ff       	callq  27d0 <dcgettext@plt>
    8813:	be 01 00 00 00       	mov    $0x1,%esi
    8818:	48 89 ef             	mov    %rbp,%rdi
    881b:	48 89 c2             	mov    %rax,%rdx
    881e:	31 c0                	xor    %eax,%eax
    8820:	e8 9b a3 ff ff       	callq  2bc0 <__fprintf_chk@plt>
    8825:	e9 7b ff ff ff       	jmpq   87a5 <bfd_seek@plt+0x5b75>
    882a:	66 0f 1f 44 00 00    	nopw   0x0(%rax,%rax,1)
    8830:	f3 0f 1e fa          	endbr64 
    8834:	41 57                	push   %r15
    8836:	ba 05 00 00 00       	mov    $0x5,%edx
    883b:	48 8d 35 38 4d 00 00 	lea    0x4d38(%rip),%rsi        # d57a <bfd_seek@plt+0xa94a>
    8842:	31 ff                	xor    %edi,%edi
    8844:	41 56                	push   %r14
    8846:	41 55                	push   %r13
    8848:	41 54                	push   %r12
    884a:	55                   	push   %rbp
    884b:	53                   	push   %rbx
    884c:	48 83 ec 58          	sub    $0x58,%rsp
    8850:	64 48 8b 04 25 28 00 	mov    %fs:0x28,%rax
    8857:	00 00 
    8859:	48 89 44 24 48       	mov    %rax,0x48(%rsp)
    885e:	31 c0                	xor    %eax,%eax
    8860:	e8 6b 9f ff ff       	callq  27d0 <dcgettext@plt>
    8865:	48 8d 15 2c 4e 00 00 	lea    0x4e2c(%rip),%rdx        # d698 <bfd_seek@plt+0xaa68>
    886c:	bf 01 00 00 00       	mov    $0x1,%edi
    8871:	48 89 c6             	mov    %rax,%rsi
    8874:	31 c0                	xor    %eax,%eax
    8876:	e8 55 a2 ff ff       	callq  2ad0 <__printf_chk@plt>
    887b:	31 ff                	xor    %edi,%edi
    887d:	e8 8e 18 00 00       	callq  a110 <bfd_seek@plt+0x74e0>
    8882:	48 8d 74 24 20       	lea    0x20(%rsp),%rsi
    8887:	48 8d 3d 52 f9 ff ff 	lea    -0x6ae(%rip),%rdi        # 81e0 <bfd_seek@plt+0x55b0>
    888e:	48 c7 44 24 28 00 00 	movq   $0x0,0x28(%rsp)
    8895:	00 00 
    8897:	48 89 44 24 20       	mov    %rax,0x20(%rsp)
    889c:	48 c7 44 24 30 00 00 	movq   $0x0,0x30(%rsp)
    88a3:	00 00 
    88a5:	48 c7 44 24 38 00 00 	movq   $0x0,0x38(%rsp)
    88ac:	00 00 
    88ae:	e8 9d a1 ff ff       	callq  2a50 <bfd_iterate_over_targets@plt>
    88b3:	48 8b 7c 24 20       	mov    0x20(%rsp),%rdi
    88b8:	e8 13 9e ff ff       	callq  26d0 <unlink@plt>
    88bd:	48 8b 7c 24 20       	mov    0x20(%rsp),%rdi
    88c2:	e8 a9 9d ff ff       	callq  2670 <free@plt>
    88c7:	44 8b 64 24 28       	mov    0x28(%rsp),%r12d
    88cc:	45 85 e4             	test   %r12d,%r12d
    88cf:	74 2f                	je     8900 <bfd_seek@plt+0x5cd0>
    88d1:	48 8b 44 24 48       	mov    0x48(%rsp),%rax
    88d6:	64 48 33 04 25 28 00 	xor    %fs:0x28,%rax
    88dd:	00 00 
    88df:	0f 85 ea 02 00 00    	jne    8bcf <bfd_seek@plt+0x5f9f>
    88e5:	48 83 c4 58          	add    $0x58,%rsp
    88e9:	44 89 e0             	mov    %r12d,%eax
    88ec:	5b                   	pop    %rbx
    88ed:	5d                   	pop    %rbp
    88ee:	41 5c                	pop    %r12
    88f0:	41 5d                	pop    %r13
    88f2:	41 5e                	pop    %r14
    88f4:	41 5f                	pop    %r15
    88f6:	c3                   	retq   
    88f7:	66 0f 1f 84 00 00 00 	nopw   0x0(%rax,%rax,1)
    88fe:	00 00 
    8900:	31 ed                	xor    %ebp,%ebp
    8902:	bb 02 00 00 00       	mov    $0x2,%ebx
    8907:	66 0f 1f 84 00 00 00 	nopw   0x0(%rax,%rax,1)
    890e:	00 00 
    8910:	31 f6                	xor    %esi,%esi
    8912:	89 df                	mov    %ebx,%edi
    8914:	e8 f7 a0 ff ff       	callq  2a10 <bfd_printable_arch_mach@plt>
    8919:	48 89 c7             	mov    %rax,%rdi
    891c:	e8 bf 9e ff ff       	callq  27e0 <strlen@plt>
    8921:	39 c5                	cmp    %eax,%ebp
    8923:	0f 4c e8             	cmovl  %eax,%ebp
    8926:	83 c3 01             	add    $0x1,%ebx
    8929:	83 fb 59             	cmp    $0x59,%ebx
    892c:	75 e2                	jne    8910 <bfd_seek@plt+0x5ce0>
    892e:	48 8d 3d 61 4c 00 00 	lea    0x4c61(%rip),%rdi        # d596 <bfd_seek@plt+0xa966>
    8935:	89 6c 24 14          	mov    %ebp,0x14(%rsp)
    8939:	e8 12 9d ff ff       	callq  2650 <getenv@plt>
    893e:	48 89 c7             	mov    %rax,%rdi
    8941:	48 85 c0             	test   %rax,%rax
    8944:	74 12                	je     8958 <bfd_seek@plt+0x5d28>
    8946:	ba 0a 00 00 00       	mov    $0xa,%edx
    894b:	31 f6                	xor    %esi,%esi
    894d:	e8 4e a0 ff ff       	callq  29a0 <strtol@plt>
    8952:	89 c2                	mov    %eax,%edx
    8954:	85 c0                	test   %eax,%eax
    8956:	75 05                	jne    895d <bfd_seek@plt+0x5d2d>
    8958:	ba 50 00 00 00       	mov    $0x50,%edx
    895d:	44 8b 7c 24 2c       	mov    0x2c(%rsp),%r15d
    8962:	45 85 ff             	test   %r15d,%r15d
    8965:	0f 8e 45 02 00 00    	jle    8bb0 <bfd_seek@plt+0x5f80>
    896b:	8b 44 24 14          	mov    0x14(%rsp),%eax
    896f:	29 c2                	sub    %eax,%edx
    8971:	83 c0 01             	add    $0x1,%eax
    8974:	8d 4a ff             	lea    -0x1(%rdx),%ecx
    8977:	89 44 24 1c          	mov    %eax,0x1c(%rsp)
    897b:	44 89 fa             	mov    %r15d,%edx
    897e:	89 4c 24 18          	mov    %ecx,0x18(%rsp)
    8982:	66 0f 1f 44 00 00    	nopw   0x0(%rax,%rax,1)
    8988:	49 63 ec             	movslq %r12d,%rbp
    898b:	4c 8b 7c 24 38       	mov    0x38(%rsp),%r15
    8990:	89 54 24 08          	mov    %edx,0x8(%rsp)
    8994:	44 89 e3             	mov    %r12d,%ebx
    8997:	4c 8d 6c 6d 00       	lea    0x0(%rbp,%rbp,2),%r13
    899c:	44 8b 74 24 18       	mov    0x18(%rsp),%r14d
    89a1:	49 c1 e5 05          	shl    $0x5,%r13
    89a5:	4c 89 e8             	mov    %r13,%rax
    89a8:	4d 01 ef             	add    %r13,%r15
    89ab:	45 89 e5             	mov    %r12d,%r13d
    89ae:	49 89 ec             	mov    %rbp,%r12
    89b1:	48 89 c5             	mov    %rax,%rbp
    89b4:	0f 1f 40 00          	nopl   0x0(%rax)
    89b8:	49 8b 3f             	mov    (%r15),%rdi
    89bb:	41 83 ee 01          	sub    $0x1,%r14d
    89bf:	e8 1c 9e ff ff       	callq  27e0 <strlen@plt>
    89c4:	41 29 c6             	sub    %eax,%r14d
    89c7:	78 0d                	js     89d6 <bfd_seek@plt+0x5da6>
    89c9:	83 c3 01             	add    $0x1,%ebx
    89cc:	49 83 c7 60          	add    $0x60,%r15
    89d0:	39 5c 24 08          	cmp    %ebx,0x8(%rsp)
    89d4:	7f e2                	jg     89b8 <bfd_seek@plt+0x5d88>
    89d6:	48 89 e8             	mov    %rbp,%rax
    89d9:	8b 54 24 1c          	mov    0x1c(%rsp),%edx
    89dd:	4c 89 e5             	mov    %r12,%rbp
    89e0:	48 8d 0d 6b 37 00 00 	lea    0x376b(%rip),%rcx        # c152 <bfd_seek@plt+0x9522>
    89e7:	45 89 ec             	mov    %r13d,%r12d
    89ea:	48 8d 35 ad 4b 00 00 	lea    0x4bad(%rip),%rsi        # d59e <bfd_seek@plt+0xa96e>
    89f1:	49 89 c5             	mov    %rax,%r13
    89f4:	bf 01 00 00 00       	mov    $0x1,%edi
    89f9:	31 c0                	xor    %eax,%eax
    89fb:	e8 d0 a0 ff ff       	callq  2ad0 <__printf_chk@plt>
    8a00:	44 39 e3             	cmp    %r12d,%ebx
    8a03:	0f 84 b7 01 00 00    	je     8bc0 <bfd_seek@plt+0x5f90>
    8a09:	45 89 e7             	mov    %r12d,%r15d
    8a0c:	48 83 c5 01          	add    $0x1,%rbp
    8a10:	41 f7 d7             	not    %r15d
    8a13:	41 8d 04 1f          	lea    (%r15,%rbx,1),%eax
    8a17:	48 01 e8             	add    %rbp,%rax
    8a1a:	4c 8d 34 40          	lea    (%rax,%rax,2),%r14
    8a1e:	48 89 e8             	mov    %rbp,%rax
    8a21:	89 dd                	mov    %ebx,%ebp
    8a23:	49 c1 e6 05          	shl    $0x5,%r14
    8a27:	48 89 c3             	mov    %rax,%rbx
    8a2a:	4c 89 74 24 08       	mov    %r14,0x8(%rsp)
    8a2f:	4d 89 ee             	mov    %r13,%r14
    8a32:	66 0f 1f 44 00 00    	nopw   0x0(%rax,%rax,1)
    8a38:	48 8b 44 24 38       	mov    0x38(%rsp),%rax
    8a3d:	48 8d 35 9c 4b 00 00 	lea    0x4b9c(%rip),%rsi        # d5e0 <bfd_seek@plt+0xa9b0>
    8a44:	bf 01 00 00 00       	mov    $0x1,%edi
    8a49:	4a 8b 14 30          	mov    (%rax,%r14,1),%rdx
    8a4d:	31 c0                	xor    %eax,%eax
    8a4f:	49 83 c6 60          	add    $0x60,%r14
    8a53:	e8 78 a0 ff ff       	callq  2ad0 <__printf_chk@plt>
    8a58:	4c 39 74 24 08       	cmp    %r14,0x8(%rsp)
    8a5d:	75 d9                	jne    8a38 <bfd_seek@plt+0x5e08>
    8a5f:	48 89 d8             	mov    %rbx,%rax
    8a62:	89 eb                	mov    %ebp,%ebx
    8a64:	48 89 c5             	mov    %rax,%rbp
    8a67:	48 8b 35 b2 86 00 00 	mov    0x86b2(%rip),%rsi        # 11120 <stdout@@GLIBC_2.2.5>
    8a6e:	bf 0a 00 00 00       	mov    $0xa,%edi
    8a73:	e8 e8 9e ff ff       	callq  2960 <putc@plt>
    8a78:	41 8d 04 1f          	lea    (%r15,%rbx,1),%eax
    8a7c:	44 89 64 24 10       	mov    %r12d,0x10(%rsp)
    8a81:	48 01 c5             	add    %rax,%rbp
    8a84:	48 8d 44 6d 00       	lea    0x0(%rbp,%rbp,2),%rax
    8a89:	bd 02 00 00 00       	mov    $0x2,%ebp
    8a8e:	48 c1 e0 05          	shl    $0x5,%rax
    8a92:	48 89 44 24 08       	mov    %rax,0x8(%rsp)
    8a97:	66 0f 1f 84 00 00 00 	nopw   0x0(%rax,%rax,1)
    8a9e:	00 00 
    8aa0:	31 f6                	xor    %esi,%esi
    8aa2:	89 ef                	mov    %ebp,%edi
    8aa4:	e8 67 9f ff ff       	callq  2a10 <bfd_printable_arch_mach@plt>
    8aa9:	b9 09 00 00 00       	mov    $0x9,%ecx
    8aae:	48 8d 3d ee 4a 00 00 	lea    0x4aee(%rip),%rdi        # d5a3 <bfd_seek@plt+0xa973>
    8ab5:	48 89 c6             	mov    %rax,%rsi
    8ab8:	f3 a6                	repz cmpsb %es:(%rdi),%ds:(%rsi)
    8aba:	0f 97 c0             	seta   %al
    8abd:	1c 00                	sbb    $0x0,%al
    8abf:	84 c0                	test   %al,%al
    8ac1:	75 1d                	jne    8ae0 <bfd_seek@plt+0x5eb0>
    8ac3:	83 c5 01             	add    $0x1,%ebp
    8ac6:	83 fd 59             	cmp    $0x59,%ebp
    8ac9:	75 d5                	jne    8aa0 <bfd_seek@plt+0x5e70>
    8acb:	8b 54 24 2c          	mov    0x2c(%rsp),%edx
    8acf:	39 da                	cmp    %ebx,%edx
    8ad1:	0f 8e d9 00 00 00    	jle    8bb0 <bfd_seek@plt+0x5f80>
    8ad7:	41 89 dc             	mov    %ebx,%r12d
    8ada:	e9 a9 fe ff ff       	jmpq   8988 <bfd_seek@plt+0x5d58>
    8adf:	90                   	nop
    8ae0:	31 f6                	xor    %esi,%esi
    8ae2:	89 ef                	mov    %ebp,%edi
    8ae4:	e8 27 9f ff ff       	callq  2a10 <bfd_printable_arch_mach@plt>
    8ae9:	8b 54 24 14          	mov    0x14(%rsp),%edx
    8aed:	bf 01 00 00 00       	mov    $0x1,%edi
    8af2:	48 8d 35 b3 4a 00 00 	lea    0x4ab3(%rip),%rsi        # d5ac <bfd_seek@plt+0xa97c>
    8af9:	48 89 c1             	mov    %rax,%rcx
    8afc:	31 c0                	xor    %eax,%eax
    8afe:	e8 cd 9f ff ff       	callq  2ad0 <__printf_chk@plt>
    8b03:	3b 5c 24 10          	cmp    0x10(%rsp),%ebx
    8b07:	74 4f                	je     8b58 <bfd_seek@plt+0x5f28>
    8b09:	4d 89 ee             	mov    %r13,%r14
    8b0c:	44 8d 7d fe          	lea    -0x2(%rbp),%r15d
    8b10:	48 8b 44 24 38       	mov    0x38(%rsp),%rax
    8b15:	4c 8b 25 04 86 00 00 	mov    0x8604(%rip),%r12        # 11120 <stdout@@GLIBC_2.2.5>
    8b1c:	4c 01 f0             	add    %r14,%rax
    8b1f:	42 80 7c 38 08 00    	cmpb   $0x0,0x8(%rax,%r15,1)
    8b25:	48 8b 38             	mov    (%rax),%rdi
    8b28:	74 46                	je     8b70 <bfd_seek@plt+0x5f40>
    8b2a:	4c 89 e6             	mov    %r12,%rsi
    8b2d:	e8 1e 9d ff ff       	callq  2850 <fputs@plt>
    8b32:	4c 8b 25 e7 85 00 00 	mov    0x85e7(%rip),%r12        # 11120 <stdout@@GLIBC_2.2.5>
    8b39:	49 83 c6 60          	add    $0x60,%r14
    8b3d:	4c 89 e6             	mov    %r12,%rsi
    8b40:	4c 39 74 24 08       	cmp    %r14,0x8(%rsp)
    8b45:	74 19                	je     8b60 <bfd_seek@plt+0x5f30>
    8b47:	bf 20 00 00 00       	mov    $0x20,%edi
    8b4c:	e8 0f 9e ff ff       	callq  2960 <putc@plt>
    8b51:	eb bd                	jmp    8b10 <bfd_seek@plt+0x5ee0>
    8b53:	0f 1f 44 00 00       	nopl   0x0(%rax,%rax,1)
    8b58:	48 8b 35 c1 85 00 00 	mov    0x85c1(%rip),%rsi        # 11120 <stdout@@GLIBC_2.2.5>
    8b5f:	90                   	nop
    8b60:	bf 0a 00 00 00       	mov    $0xa,%edi
    8b65:	e8 f6 9d ff ff       	callq  2960 <putc@plt>
    8b6a:	e9 54 ff ff ff       	jmpq   8ac3 <bfd_seek@plt+0x5e93>
    8b6f:	90                   	nop
    8b70:	e8 6b 9c ff ff       	callq  27e0 <strlen@plt>
    8b75:	8d 50 ff             	lea    -0x1(%rax),%edx
    8b78:	85 c0                	test   %eax,%eax
    8b7a:	74 bd                	je     8b39 <bfd_seek@plt+0x5f09>
    8b7c:	4c 89 e6             	mov    %r12,%rsi
    8b7f:	41 89 d4             	mov    %edx,%r12d
    8b82:	eb 0b                	jmp    8b8f <bfd_seek@plt+0x5f5f>
    8b84:	0f 1f 40 00          	nopl   0x0(%rax)
    8b88:	48 8b 35 91 85 00 00 	mov    0x8591(%rip),%rsi        # 11120 <stdout@@GLIBC_2.2.5>
    8b8f:	bf 2d 00 00 00       	mov    $0x2d,%edi
    8b94:	41 83 ec 01          	sub    $0x1,%r12d
    8b98:	e8 c3 9d ff ff       	callq  2960 <putc@plt>
    8b9d:	41 83 fc ff          	cmp    $0xffffffff,%r12d
    8ba1:	75 e5                	jne    8b88 <bfd_seek@plt+0x5f58>
    8ba3:	4c 8b 25 76 85 00 00 	mov    0x8576(%rip),%r12        # 11120 <stdout@@GLIBC_2.2.5>
    8baa:	eb 8d                	jmp    8b39 <bfd_seek@plt+0x5f09>
    8bac:	0f 1f 40 00          	nopl   0x0(%rax)
    8bb0:	44 8b 64 24 28       	mov    0x28(%rsp),%r12d
    8bb5:	e9 17 fd ff ff       	jmpq   88d1 <bfd_seek@plt+0x5ca1>
    8bba:	66 0f 1f 44 00 00    	nopw   0x0(%rax,%rax,1)
    8bc0:	41 89 df             	mov    %ebx,%r15d
    8bc3:	48 83 c5 01          	add    $0x1,%rbp
    8bc7:	41 f7 d7             	not    %r15d
    8bca:	e9 98 fe ff ff       	jmpq   8a67 <bfd_seek@plt+0x5e37>
    8bcf:	e8 2c 9c ff ff       	callq  2800 <__stack_chk_fail@plt>
    8bd4:	66 66 2e 0f 1f 84 00 	data16 nopw %cs:0x0(%rax,%rax,1)
    8bdb:	00 00 00 00 
    8bdf:	90                   	nop
    8be0:	f3 0f 1e fa          	endbr64 
    8be4:	41 55                	push   %r13
    8be6:	41 54                	push   %r12
    8be8:	41 89 cc             	mov    %ecx,%r12d
    8beb:	55                   	push   %rbp
    8bec:	48 89 fd             	mov    %rdi,%rbp
    8bef:	53                   	push   %rbx
    8bf0:	48 89 f3             	mov    %rsi,%rbx
    8bf3:	48 81 ec e8 00 00 00 	sub    $0xe8,%rsp
    8bfa:	64 48 8b 04 25 28 00 	mov    %fs:0x28,%rax
    8c01:	00 00 
    8c03:	48 89 84 24 d8 00 00 	mov    %rax,0xd8(%rsp)
    8c0a:	00 
    8c0b:	31 c0                	xor    %eax,%eax
    8c0d:	85 d2                	test   %edx,%edx
    8c0f:	74 1a                	je     8c2b <bfd_seek@plt+0x5ffb>
    8c11:	48 8b 43 08          	mov    0x8(%rbx),%rax
    8c15:	48 8d 74 24 10       	lea    0x10(%rsp),%rsi
    8c1a:	48 89 df             	mov    %rbx,%rdi
    8c1d:	ff 90 e0 01 00 00    	callq  *0x1e0(%rax)
    8c23:	85 c0                	test   %eax,%eax
    8c25:	0f 84 85 00 00 00    	je     8cb0 <bfd_seek@plt+0x6080>
    8c2b:	48 8b 3b             	mov    (%rbx),%rdi
    8c2e:	48 89 ee             	mov    %rbp,%rsi
    8c31:	e8 1a 9c ff ff       	callq  2850 <fputs@plt>
    8c36:	45 85 e4             	test   %r12d,%r12d
    8c39:	74 15                	je     8c50 <bfd_seek@plt+0x6020>
    8c3b:	80 7b 4c 00          	cmpb   $0x0,0x4c(%rbx)
    8c3f:	79 47                	jns    8c88 <bfd_seek@plt+0x6058>
    8c41:	48 8b 4b 60          	mov    0x60(%rbx),%rcx
    8c45:	48 85 c9             	test   %rcx,%rcx
    8c48:	75 47                	jne    8c91 <bfd_seek@plt+0x6061>
    8c4a:	66 0f 1f 44 00 00    	nopw   0x0(%rax,%rax,1)
    8c50:	48 89 ee             	mov    %rbp,%rsi
    8c53:	bf 0a 00 00 00       	mov    $0xa,%edi
    8c58:	e8 93 9c ff ff       	callq  28f0 <fputc@plt>
    8c5d:	48 8b 84 24 d8 00 00 	mov    0xd8(%rsp),%rax
    8c64:	00 
    8c65:	64 48 33 04 25 28 00 	xor    %fs:0x28,%rax
    8c6c:	00 00 
    8c6e:	0f 85 0b 01 00 00    	jne    8d7f <bfd_seek@plt+0x614f>
    8c74:	48 81 c4 e8 00 00 00 	add    $0xe8,%rsp
    8c7b:	5b                   	pop    %rbx
    8c7c:	5d                   	pop    %rbp
    8c7d:	41 5c                	pop    %r12
    8c7f:	41 5d                	pop    %r13
    8c81:	c3                   	retq   
    8c82:	66 0f 1f 44 00 00    	nopw   0x0(%rax,%rax,1)
    8c88:	48 8b 4b 58          	mov    0x58(%rbx),%rcx
    8c8c:	48 85 c9             	test   %rcx,%rcx
    8c8f:	74 bf                	je     8c50 <bfd_seek@plt+0x6020>
    8c91:	48 8d 15 4c 49 00 00 	lea    0x494c(%rip),%rdx        # d5e4 <bfd_seek@plt+0xa9b4>
    8c98:	be 01 00 00 00       	mov    $0x1,%esi
    8c9d:	48 89 ef             	mov    %rbp,%rdi
    8ca0:	31 c0                	xor    %eax,%eax
    8ca2:	e8 19 9f ff ff       	callq  2bc0 <__fprintf_chk@plt>
    8ca7:	eb a7                	jmp    8c50 <bfd_seek@plt+0x6020>
    8ca9:	0f 1f 80 00 00 00 00 	nopl   0x0(%rax)
    8cb0:	48 8b 44 24 68       	mov    0x68(%rsp),%rax
    8cb5:	48 8d 7c 24 08       	lea    0x8(%rsp),%rdi
    8cba:	48 89 44 24 08       	mov    %rax,0x8(%rsp)
    8cbf:	e8 ec 9a ff ff       	callq  27b0 <ctime@plt>
    8cc4:	48 85 c0             	test   %rax,%rax
    8cc7:	74 7f                	je     8d48 <bfd_seek@plt+0x6118>
    8cc9:	4c 8d 48 14          	lea    0x14(%rax),%r9
    8ccd:	4c 8d 40 04          	lea    0x4(%rax),%r8
    8cd1:	31 c0                	xor    %eax,%eax
    8cd3:	ba 28 00 00 00       	mov    $0x28,%edx
    8cd8:	4c 8d ac 24 b0 00 00 	lea    0xb0(%rsp),%r13
    8cdf:	00 
    8ce0:	48 8d 0d de 48 00 00 	lea    0x48de(%rip),%rcx        # d5c5 <bfd_seek@plt+0xa995>
    8ce7:	be 01 00 00 00       	mov    $0x1,%esi
    8cec:	4c 89 ef             	mov    %r13,%rdi
    8cef:	e8 2c 9f ff ff       	callq  2c20 <__sprintf_chk@plt>
    8cf4:	8b 7c 24 28          	mov    0x28(%rsp),%edi
    8cf8:	48 8d b4 24 a5 00 00 	lea    0xa5(%rsp),%rsi
    8cff:	00 
    8d00:	e8 cb 06 00 00       	callq  93d0 <bfd_seek@plt+0x67a0>
    8d05:	be 01 00 00 00       	mov    $0x1,%esi
    8d0a:	48 89 ef             	mov    %rbp,%rdi
    8d0d:	31 c0                	xor    %eax,%eax
    8d0f:	c6 84 24 af 00 00 00 	movb   $0x0,0xaf(%rsp)
    8d16:	00 
    8d17:	48 8d 8c 24 a6 00 00 	lea    0xa6(%rsp),%rcx
    8d1e:	00 
    8d1f:	48 8d 15 aa 48 00 00 	lea    0x48aa(%rip),%rdx        # d5d0 <bfd_seek@plt+0xa9a0>
    8d26:	41 55                	push   %r13
    8d28:	ff 74 24 48          	pushq  0x48(%rsp)
    8d2c:	44 8b 4c 24 40       	mov    0x40(%rsp),%r9d
    8d31:	44 8b 44 24 3c       	mov    0x3c(%rsp),%r8d
    8d36:	e8 85 9e ff ff       	callq  2bc0 <__fprintf_chk@plt>
    8d3b:	58                   	pop    %rax
    8d3c:	5a                   	pop    %rdx
    8d3d:	e9 e9 fe ff ff       	jmpq   8c2b <bfd_seek@plt+0x5ffb>
    8d42:	66 0f 1f 44 00 00    	nopw   0x0(%rax,%rax,1)
    8d48:	31 ff                	xor    %edi,%edi
    8d4a:	ba 05 00 00 00       	mov    $0x5,%edx
    8d4f:	48 8d 35 5b 48 00 00 	lea    0x485b(%rip),%rsi        # d5b1 <bfd_seek@plt+0xa981>
    8d56:	e8 75 9a ff ff       	callq  27d0 <dcgettext@plt>
    8d5b:	ba 28 00 00 00       	mov    $0x28,%edx
    8d60:	be 01 00 00 00       	mov    $0x1,%esi
    8d65:	4c 8d ac 24 b0 00 00 	lea    0xb0(%rsp),%r13
    8d6c:	00 
    8d6d:	48 89 c1             	mov    %rax,%rcx
    8d70:	4c 89 ef             	mov    %r13,%rdi
    8d73:	31 c0                	xor    %eax,%eax
    8d75:	e8 a6 9e ff ff       	callq  2c20 <__sprintf_chk@plt>
    8d7a:	e9 75 ff ff ff       	jmpq   8cf4 <bfd_seek@plt+0x60c4>
    8d7f:	e8 7c 9a ff ff       	callq  2800 <__stack_chk_fail@plt>
    8d84:	66 66 2e 0f 1f 84 00 	data16 nopw %cs:0x0(%rax,%rax,1)
    8d8b:	00 00 00 00 
    8d8f:	90                   	nop
    8d90:	f3 0f 1e fa          	endbr64 
    8d94:	41 54                	push   %r12
    8d96:	e8 d5 f2 ff ff       	callq  8070 <bfd_seek@plt+0x5440>
    8d9b:	48 89 c7             	mov    %rax,%rdi
    8d9e:	49 89 c4             	mov    %rax,%r12
    8da1:	e8 ba 9c ff ff       	callq  2a60 <mkstemp@plt>
    8da6:	83 f8 ff             	cmp    $0xffffffff,%eax
    8da9:	74 15                	je     8dc0 <bfd_seek@plt+0x6190>
    8dab:	89 c7                	mov    %eax,%edi
    8dad:	e8 1e 9b ff ff       	callq  28d0 <close@plt>
    8db2:	4c 89 e0             	mov    %r12,%rax
    8db5:	41 5c                	pop    %r12
    8db7:	c3                   	retq   
    8db8:	0f 1f 84 00 00 00 00 	nopl   0x0(%rax,%rax,1)
    8dbf:	00 
    8dc0:	4c 89 e7             	mov    %r12,%rdi
    8dc3:	45 31 e4             	xor    %r12d,%r12d
    8dc6:	e8 a5 98 ff ff       	callq  2670 <free@plt>
    8dcb:	eb e5                	jmp    8db2 <bfd_seek@plt+0x6182>
    8dcd:	0f 1f 00             	nopl   (%rax)
    8dd0:	f3 0f 1e fa          	endbr64 
    8dd4:	48 83 ec 08          	sub    $0x8,%rsp
    8dd8:	e8 93 f2 ff ff       	callq  8070 <bfd_seek@plt+0x5440>
    8ddd:	48 83 c4 08          	add    $0x8,%rsp
    8de1:	48 89 c7             	mov    %rax,%rdi
    8de4:	e9 b7 9c ff ff       	jmpq   2aa0 <mkdtemp@plt>
    8de9:	0f 1f 80 00 00 00 00 	nopl   0x0(%rax)
    8df0:	f3 0f 1e fa          	endbr64 
    8df4:	41 54                	push   %r12
    8df6:	31 d2                	xor    %edx,%edx
    8df8:	49 89 fc             	mov    %rdi,%r12
    8dfb:	55                   	push   %rbp
    8dfc:	48 89 f5             	mov    %rsi,%rbp
    8dff:	48 83 ec 18          	sub    $0x18,%rsp
    8e03:	64 48 8b 04 25 28 00 	mov    %fs:0x28,%rax
    8e0a:	00 00 
    8e0c:	48 89 44 24 08       	mov    %rax,0x8(%rsp)
    8e11:	31 c0                	xor    %eax,%eax
    8e13:	48 89 e6             	mov    %rsp,%rsi
    8e16:	e8 65 98 ff ff       	callq  2680 <bfd_scan_vma@plt>
    8e1b:	48 8b 14 24          	mov    (%rsp),%rdx
    8e1f:	80 3a 00             	cmpb   $0x0,(%rdx)
    8e22:	75 18                	jne    8e3c <bfd_seek@plt+0x620c>
    8e24:	48 8b 4c 24 08       	mov    0x8(%rsp),%rcx
    8e29:	64 48 33 0c 25 28 00 	xor    %fs:0x28,%rcx
    8e30:	00 00 
    8e32:	75 2b                	jne    8e5f <bfd_seek@plt+0x622f>
    8e34:	48 83 c4 18          	add    $0x18,%rsp
    8e38:	5d                   	pop    %rbp
    8e39:	41 5c                	pop    %r12
    8e3b:	c3                   	retq   
    8e3c:	ba 05 00 00 00       	mov    $0x5,%edx
    8e41:	48 8d 35 a3 47 00 00 	lea    0x47a3(%rip),%rsi        # d5eb <bfd_seek@plt+0xa9bb>
    8e48:	31 ff                	xor    %edi,%edi
    8e4a:	e8 81 99 ff ff       	callq  27d0 <dcgettext@plt>
    8e4f:	4c 89 e2             	mov    %r12,%rdx
    8e52:	48 89 ee             	mov    %rbp,%rsi
    8e55:	48 89 c7             	mov    %rax,%rdi
    8e58:	31 c0                	xor    %eax,%eax
    8e5a:	e8 d1 f5 ff ff       	callq  8430 <bfd_seek@plt+0x5800>
    8e5f:	e8 9c 99 ff ff       	callq  2800 <__stack_chk_fail@plt>
    8e64:	66 66 2e 0f 1f 84 00 	data16 nopw %cs:0x0(%rax,%rax,1)
    8e6b:	00 00 00 00 
    8e6f:	90                   	nop
    8e70:	f3 0f 1e fa          	endbr64 
    8e74:	41 54                	push   %r12
    8e76:	55                   	push   %rbp
    8e77:	48 81 ec a8 00 00 00 	sub    $0xa8,%rsp
    8e7e:	64 48 8b 04 25 28 00 	mov    %fs:0x28,%rax
    8e85:	00 00 
    8e87:	48 89 84 24 98 00 00 	mov    %rax,0x98(%rsp)
    8e8e:	00 
    8e8f:	31 c0                	xor    %eax,%eax
    8e91:	48 85 ff             	test   %rdi,%rdi
    8e94:	0f 84 f4 00 00 00    	je     8f8e <bfd_seek@plt+0x635e>
    8e9a:	48 89 fd             	mov    %rdi,%rbp
    8e9d:	48 89 fe             	mov    %rdi,%rsi
    8ea0:	48 89 e2             	mov    %rsp,%rdx
    8ea3:	bf 01 00 00 00       	mov    $0x1,%edi
    8ea8:	e8 53 9b ff ff       	callq  2a00 <__xstat@plt>
    8ead:	85 c0                	test   %eax,%eax
    8eaf:	78 4f                	js     8f00 <bfd_seek@plt+0x62d0>
    8eb1:	8b 44 24 18          	mov    0x18(%rsp),%eax
    8eb5:	25 00 f0 00 00       	and    $0xf000,%eax
    8eba:	3d 00 40 00 00       	cmp    $0x4000,%eax
    8ebf:	0f 84 d5 00 00 00    	je     8f9a <bfd_seek@plt+0x636a>
    8ec5:	3d 00 80 00 00       	cmp    $0x8000,%eax
    8eca:	0f 85 b0 00 00 00    	jne    8f80 <bfd_seek@plt+0x6350>
    8ed0:	48 8b 44 24 30       	mov    0x30(%rsp),%rax
    8ed5:	48 85 c0             	test   %rax,%rax
    8ed8:	78 72                	js     8f4c <bfd_seek@plt+0x631c>
    8eda:	48 8b 8c 24 98 00 00 	mov    0x98(%rsp),%rcx
    8ee1:	00 
    8ee2:	64 48 33 0c 25 28 00 	xor    %fs:0x28,%rcx
    8ee9:	00 00 
    8eeb:	0f 85 b7 00 00 00    	jne    8fa8 <bfd_seek@plt+0x6378>
    8ef1:	48 81 c4 a8 00 00 00 	add    $0xa8,%rsp
    8ef8:	5d                   	pop    %rbp
    8ef9:	41 5c                	pop    %r12
    8efb:	c3                   	retq   
    8efc:	0f 1f 40 00          	nopl   0x0(%rax)
    8f00:	e8 bb 97 ff ff       	callq  26c0 <__errno_location@plt>
    8f05:	ba 05 00 00 00       	mov    $0x5,%edx
    8f0a:	48 8d 35 ed 46 00 00 	lea    0x46ed(%rip),%rsi        # d5fe <bfd_seek@plt+0xa9ce>
    8f11:	8b 38                	mov    (%rax),%edi
    8f13:	83 ff 02             	cmp    $0x2,%edi
    8f16:	74 48                	je     8f60 <bfd_seek@plt+0x6330>
    8f18:	e8 e3 9c ff ff       	callq  2c00 <strerror@plt>
    8f1d:	ba 05 00 00 00       	mov    $0x5,%edx
    8f22:	48 8d 35 8f 47 00 00 	lea    0x478f(%rip),%rsi        # d6b8 <bfd_seek@plt+0xaa88>
    8f29:	31 ff                	xor    %edi,%edi
    8f2b:	49 89 c4             	mov    %rax,%r12
    8f2e:	e8 9d 98 ff ff       	callq  27d0 <dcgettext@plt>
    8f33:	4c 89 e2             	mov    %r12,%rdx
    8f36:	48 89 ee             	mov    %rbp,%rsi
    8f39:	48 89 c7             	mov    %rax,%rdi
    8f3c:	31 c0                	xor    %eax,%eax
    8f3e:	e8 9d f5 ff ff       	callq  84e0 <bfd_seek@plt+0x58b0>
    8f43:	48 c7 c0 ff ff ff ff 	mov    $0xffffffffffffffff,%rax
    8f4a:	eb 8e                	jmp    8eda <bfd_seek@plt+0x62aa>
    8f4c:	ba 05 00 00 00       	mov    $0x5,%edx
    8f51:	48 8d 35 b8 47 00 00 	lea    0x47b8(%rip),%rsi        # d710 <bfd_seek@plt+0xaae0>
    8f58:	0f 1f 84 00 00 00 00 	nopl   0x0(%rax,%rax,1)
    8f5f:	00 
    8f60:	31 ff                	xor    %edi,%edi
    8f62:	e8 69 98 ff ff       	callq  27d0 <dcgettext@plt>
    8f67:	48 89 ee             	mov    %rbp,%rsi
    8f6a:	48 89 c7             	mov    %rax,%rdi
    8f6d:	31 c0                	xor    %eax,%eax
    8f6f:	e8 6c f5 ff ff       	callq  84e0 <bfd_seek@plt+0x58b0>
    8f74:	48 c7 c0 ff ff ff ff 	mov    $0xffffffffffffffff,%rax
    8f7b:	e9 5a ff ff ff       	jmpq   8eda <bfd_seek@plt+0x62aa>
    8f80:	ba 05 00 00 00       	mov    $0x5,%edx
    8f85:	48 8d 35 5c 47 00 00 	lea    0x475c(%rip),%rsi        # d6e8 <bfd_seek@plt+0xaab8>
    8f8c:	eb d2                	jmp    8f60 <bfd_seek@plt+0x6330>
    8f8e:	48 c7 c0 ff ff ff ff 	mov    $0xffffffffffffffff,%rax
    8f95:	e9 40 ff ff ff       	jmpq   8eda <bfd_seek@plt+0x62aa>
    8f9a:	ba 05 00 00 00       	mov    $0x5,%edx
    8f9f:	48 8d 35 6b 46 00 00 	lea    0x466b(%rip),%rsi        # d611 <bfd_seek@plt+0xa9e1>
    8fa6:	eb b8                	jmp    8f60 <bfd_seek@plt+0x6330>
    8fa8:	e8 53 98 ff ff       	callq  2800 <__stack_chk_fail@plt>
    8fad:	0f 1f 00             	nopl   (%rax)
    8fb0:	f3 0f 1e fa          	endbr64 
    8fb4:	41 55                	push   %r13
    8fb6:	41 54                	push   %r12
    8fb8:	55                   	push   %rbp
    8fb9:	53                   	push   %rbx
    8fba:	48 83 ec 08          	sub    $0x8,%rsp
    8fbe:	48 85 ff             	test   %rdi,%rdi
    8fc1:	0f 84 e7 00 00 00    	je     90ae <bfd_seek@plt+0x647e>
    8fc7:	48 8b 87 d0 00 00 00 	mov    0xd0(%rdi),%rax
    8fce:	48 89 fb             	mov    %rdi,%rbx
    8fd1:	48 85 c0             	test   %rax,%rax
    8fd4:	0f 84 ae 00 00 00    	je     9088 <bfd_seek@plt+0x6458>
    8fda:	80 78 4c 00          	cmpb   $0x0,0x4c(%rax)
    8fde:	0f 88 a4 00 00 00    	js     9088 <bfd_seek@plt+0x6458>
    8fe4:	4c 8b 20             	mov    (%rax),%r12
    8fe7:	4c 89 e7             	mov    %r12,%rdi
    8fea:	e8 f1 97 ff ff       	callq  27e0 <strlen@plt>
    8fef:	4c 8b 2b             	mov    (%rbx),%r13
    8ff2:	48 89 c5             	mov    %rax,%rbp
    8ff5:	4c 89 ef             	mov    %r13,%rdi
    8ff8:	e8 e3 97 ff ff       	callq  27e0 <strlen@plt>
    8ffd:	48 8b 3d 5c 82 00 00 	mov    0x825c(%rip),%rdi        # 11260 <stderr@@GLIBC_2.2.5+0x100>
    9004:	48 8d 6c 05 03       	lea    0x3(%rbp,%rax,1),%rbp
    9009:	48 8b 05 58 82 00 00 	mov    0x8258(%rip),%rax        # 11268 <stderr@@GLIBC_2.2.5+0x108>
    9010:	48 39 e8             	cmp    %rbp,%rax
    9013:	72 3b                	jb     9050 <bfd_seek@plt+0x6420>
    9015:	4d 89 e9             	mov    %r13,%r9
    9018:	4d 89 e0             	mov    %r12,%r8
    901b:	48 8d 0d 31 46 00 00 	lea    0x4631(%rip),%rcx        # d653 <bfd_seek@plt+0xaa23>
    9022:	31 c0                	xor    %eax,%eax
    9024:	48 c7 c2 ff ff ff ff 	mov    $0xffffffffffffffff,%rdx
    902b:	be 01 00 00 00       	mov    $0x1,%esi
    9030:	e8 eb 9b ff ff       	callq  2c20 <__sprintf_chk@plt>
    9035:	48 8b 05 24 82 00 00 	mov    0x8224(%rip),%rax        # 11260 <stderr@@GLIBC_2.2.5+0x100>
    903c:	48 83 c4 08          	add    $0x8,%rsp
    9040:	5b                   	pop    %rbx
    9041:	5d                   	pop    %rbp
    9042:	41 5c                	pop    %r12
    9044:	41 5d                	pop    %r13
    9046:	c3                   	retq   
    9047:	66 0f 1f 84 00 00 00 	nopw   0x0(%rax,%rax,1)
    904e:	00 00 
    9050:	48 85 c0             	test   %rax,%rax
    9053:	75 4b                	jne    90a0 <bfd_seek@plt+0x6470>
    9055:	48 89 ef             	mov    %rbp,%rdi
    9058:	48 d1 ef             	shr    %rdi
    905b:	48 01 ef             	add    %rbp,%rdi
    905e:	48 89 3d 03 82 00 00 	mov    %rdi,0x8203(%rip)        # 11268 <stderr@@GLIBC_2.2.5+0x108>
    9065:	e8 36 98 ff ff       	callq  28a0 <xmalloc@plt>
    906a:	4c 8b 2b             	mov    (%rbx),%r13
    906d:	48 89 05 ec 81 00 00 	mov    %rax,0x81ec(%rip)        # 11260 <stderr@@GLIBC_2.2.5+0x100>
    9074:	48 89 c7             	mov    %rax,%rdi
    9077:	48 8b 83 d0 00 00 00 	mov    0xd0(%rbx),%rax
    907e:	4c 8b 20             	mov    (%rax),%r12
    9081:	eb 92                	jmp    9015 <bfd_seek@plt+0x63e5>
    9083:	0f 1f 44 00 00       	nopl   0x0(%rax,%rax,1)
    9088:	48 8b 03             	mov    (%rbx),%rax
    908b:	48 83 c4 08          	add    $0x8,%rsp
    908f:	5b                   	pop    %rbx
    9090:	5d                   	pop    %rbp
    9091:	41 5c                	pop    %r12
    9093:	41 5d                	pop    %r13
    9095:	c3                   	retq   
    9096:	66 2e 0f 1f 84 00 00 	nopw   %cs:0x0(%rax,%rax,1)
    909d:	00 00 00 
    90a0:	48 8b 3d b9 81 00 00 	mov    0x81b9(%rip),%rdi        # 11260 <stderr@@GLIBC_2.2.5+0x100>
    90a7:	e8 c4 95 ff ff       	callq  2670 <free@plt>
    90ac:	eb a7                	jmp    9055 <bfd_seek@plt+0x6425>
    90ae:	48 8d 0d 9b 46 00 00 	lea    0x469b(%rip),%rcx        # d750 <bfd_seek@plt+0xab20>
    90b5:	ba 81 02 00 00       	mov    $0x281,%edx
    90ba:	48 8d 35 6d 45 00 00 	lea    0x456d(%rip),%rsi        # d62e <bfd_seek@plt+0xa9fe>
    90c1:	48 8d 3d 7e 45 00 00 	lea    0x457e(%rip),%rdi        # d646 <bfd_seek@plt+0xaa16>
    90c8:	e8 73 97 ff ff       	callq  2840 <__assert_fail@plt>
    90cd:	0f 1f 00             	nopl   (%rax)
    90d0:	f3 0f 1e fa          	endbr64 
    90d4:	41 56                	push   %r14
    90d6:	41 55                	push   %r13
    90d8:	49 89 cd             	mov    %rcx,%r13
    90db:	41 54                	push   %r12
    90dd:	49 89 fc             	mov    %rdi,%r12
    90e0:	55                   	push   %rbp
    90e1:	48 89 f5             	mov    %rsi,%rbp
    90e4:	53                   	push   %rbx
    90e5:	48 89 d3             	mov    %rdx,%rbx
    90e8:	48 81 ec d0 00 00 00 	sub    $0xd0,%rsp
    90ef:	4c 89 44 24 40       	mov    %r8,0x40(%rsp)
    90f4:	4c 89 4c 24 48       	mov    %r9,0x48(%rsp)
    90f9:	84 c0                	test   %al,%al
    90fb:	74 37                	je     9134 <bfd_seek@plt+0x6504>
    90fd:	0f 29 44 24 50       	movaps %xmm0,0x50(%rsp)
    9102:	0f 29 4c 24 60       	movaps %xmm1,0x60(%rsp)
    9107:	0f 29 54 24 70       	movaps %xmm2,0x70(%rsp)
    910c:	0f 29 9c 24 80 00 00 	movaps %xmm3,0x80(%rsp)
    9113:	00 
    9114:	0f 29 a4 24 90 00 00 	movaps %xmm4,0x90(%rsp)
    911b:	00 
    911c:	0f 29 ac 24 a0 00 00 	movaps %xmm5,0xa0(%rsp)
    9123:	00 
    9124:	0f 29 b4 24 b0 00 00 	movaps %xmm6,0xb0(%rsp)
    912b:	00 
    912c:	0f 29 bc 24 c0 00 00 	movaps %xmm7,0xc0(%rsp)
    9133:	00 
    9134:	64 48 8b 04 25 28 00 	mov    %fs:0x28,%rax
    913b:	00 00 
    913d:	48 89 44 24 18       	mov    %rax,0x18(%rsp)
    9142:	31 c0                	xor    %eax,%eax
    9144:	e8 47 97 ff ff       	callq  2890 <bfd_get_error@plt>
    9149:	89 c7                	mov    %eax,%edi
    914b:	85 c0                	test   %eax,%eax
    914d:	0f 85 3d 01 00 00    	jne    9290 <bfd_seek@plt+0x6660>
    9153:	ba 05 00 00 00       	mov    $0x5,%edx
    9158:	48 8d 35 4e 43 00 00 	lea    0x434e(%rip),%rsi        # d4ad <bfd_seek@plt+0xa87d>
    915f:	31 ff                	xor    %edi,%edi
    9161:	e8 6a 96 ff ff       	callq  27d0 <dcgettext@plt>
    9166:	49 89 c6             	mov    %rax,%r14
    9169:	48 8b 3d b0 7f 00 00 	mov    0x7fb0(%rip),%rdi        # 11120 <stdout@@GLIBC_2.2.5>
    9170:	e8 bb 98 ff ff       	callq  2a30 <fflush@plt>
    9175:	48 8d 84 24 00 01 00 	lea    0x100(%rsp),%rax
    917c:	00 
    917d:	48 8b 35 dc 7f 00 00 	mov    0x7fdc(%rip),%rsi        # 11160 <stderr@@GLIBC_2.2.5>
    9184:	48 8b 3d 25 82 00 00 	mov    0x8225(%rip),%rdi        # 113b0 <stderr@@GLIBC_2.2.5+0x250>
    918b:	48 89 44 24 08       	mov    %rax,0x8(%rsp)
    9190:	48 8d 44 24 20       	lea    0x20(%rsp),%rax
    9195:	c7 04 24 20 00 00 00 	movl   $0x20,(%rsp)
    919c:	c7 44 24 04 30 00 00 	movl   $0x30,0x4(%rsp)
    91a3:	00 
    91a4:	48 89 44 24 10       	mov    %rax,0x10(%rsp)
    91a9:	e8 a2 96 ff ff       	callq  2850 <fputs@plt>
    91ae:	48 85 ed             	test   %rbp,%rbp
    91b1:	74 3d                	je     91f0 <bfd_seek@plt+0x65c0>
    91b3:	4d 85 e4             	test   %r12,%r12
    91b6:	0f 84 e4 00 00 00    	je     92a0 <bfd_seek@plt+0x6670>
    91bc:	48 8b 3d 9d 7f 00 00 	mov    0x7f9d(%rip),%rdi        # 11160 <stderr@@GLIBC_2.2.5>
    91c3:	48 85 db             	test   %rbx,%rbx
    91c6:	74 2f                	je     91f7 <bfd_seek@plt+0x65c7>
    91c8:	4c 8b 03             	mov    (%rbx),%r8
    91cb:	4d 85 c0             	test   %r8,%r8
    91ce:	74 27                	je     91f7 <bfd_seek@plt+0x65c7>
    91d0:	4c 89 e1             	mov    %r12,%rcx
    91d3:	48 8d 15 80 44 00 00 	lea    0x4480(%rip),%rdx        # d65a <bfd_seek@plt+0xaa2a>
    91da:	be 01 00 00 00       	mov    $0x1,%esi
    91df:	31 c0                	xor    %eax,%eax
    91e1:	e8 da 99 ff ff       	callq  2bc0 <__fprintf_chk@plt>
    91e6:	eb 25                	jmp    920d <bfd_seek@plt+0x65dd>
    91e8:	0f 1f 84 00 00 00 00 	nopl   0x0(%rax,%rax,1)
    91ef:	00 
    91f0:	48 8b 3d 69 7f 00 00 	mov    0x7f69(%rip),%rdi        # 11160 <stderr@@GLIBC_2.2.5>
    91f7:	4c 89 e1             	mov    %r12,%rcx
    91fa:	48 8d 15 e1 41 00 00 	lea    0x41e1(%rip),%rdx        # d3e2 <bfd_seek@plt+0xa7b2>
    9201:	be 01 00 00 00       	mov    $0x1,%esi
    9206:	31 c0                	xor    %eax,%eax
    9208:	e8 b3 99 ff ff       	callq  2bc0 <__fprintf_chk@plt>
    920d:	48 8b 3d 4c 7f 00 00 	mov    0x7f4c(%rip),%rdi        # 11160 <stderr@@GLIBC_2.2.5>
    9214:	4d 85 ed             	test   %r13,%r13
    9217:	74 37                	je     9250 <bfd_seek@plt+0x6620>
    9219:	48 89 f9             	mov    %rdi,%rcx
    921c:	ba 02 00 00 00       	mov    $0x2,%edx
    9221:	be 01 00 00 00       	mov    $0x1,%esi
    9226:	48 8d 3d 24 2f 00 00 	lea    0x2f24(%rip),%rdi        # c151 <bfd_seek@plt+0x9521>
    922d:	e8 7e 99 ff ff       	callq  2bb0 <fwrite@plt>
    9232:	48 89 e1             	mov    %rsp,%rcx
    9235:	4c 89 ea             	mov    %r13,%rdx
    9238:	be 01 00 00 00       	mov    $0x1,%esi
    923d:	48 8b 3d 1c 7f 00 00 	mov    0x7f1c(%rip),%rdi        # 11160 <stderr@@GLIBC_2.2.5>
    9244:	e8 57 94 ff ff       	callq  26a0 <__vfprintf_chk@plt>
    9249:	48 8b 3d 10 7f 00 00 	mov    0x7f10(%rip),%rdi        # 11160 <stderr@@GLIBC_2.2.5>
    9250:	31 c0                	xor    %eax,%eax
    9252:	4c 89 f1             	mov    %r14,%rcx
    9255:	be 01 00 00 00       	mov    $0x1,%esi
    925a:	48 8d 15 69 42 00 00 	lea    0x4269(%rip),%rdx        # d4ca <bfd_seek@plt+0xa89a>
    9261:	e8 5a 99 ff ff       	callq  2bc0 <__fprintf_chk@plt>
    9266:	48 8b 44 24 18       	mov    0x18(%rsp),%rax
    926b:	64 48 33 04 25 28 00 	xor    %fs:0x28,%rax
    9272:	00 00 
    9274:	75 3a                	jne    92b0 <bfd_seek@plt+0x6680>
    9276:	48 81 c4 d0 00 00 00 	add    $0xd0,%rsp
    927d:	5b                   	pop    %rbx
    927e:	5d                   	pop    %rbp
    927f:	41 5c                	pop    %r12
    9281:	41 5d                	pop    %r13
    9283:	41 5e                	pop    %r14
    9285:	c3                   	retq   
    9286:	66 2e 0f 1f 84 00 00 	nopw   %cs:0x0(%rax,%rax,1)
    928d:	00 00 00 
    9290:	e8 fb 98 ff ff       	callq  2b90 <bfd_errmsg@plt>
    9295:	49 89 c6             	mov    %rax,%r14
    9298:	e9 cc fe ff ff       	jmpq   9169 <bfd_seek@plt+0x6539>
    929d:	0f 1f 00             	nopl   (%rax)
    92a0:	48 89 ef             	mov    %rbp,%rdi
    92a3:	e8 08 fd ff ff       	callq  8fb0 <bfd_seek@plt+0x6380>
    92a8:	49 89 c4             	mov    %rax,%r12
    92ab:	e9 0c ff ff ff       	jmpq   91bc <bfd_seek@plt+0x658c>
    92b0:	e8 4b 95 ff ff       	callq  2800 <__stack_chk_fail@plt>
    92b5:	66 66 2e 0f 1f 84 00 	data16 nopw %cs:0x0(%rax,%rax,1)
    92bc:	00 00 00 00 
    92c0:	f3 0f 1e fa          	endbr64 
    92c4:	0f b6 07             	movzbl (%rdi),%eax
    92c7:	45 31 c0             	xor    %r8d,%r8d
    92ca:	3c 2f                	cmp    $0x2f,%al
    92cc:	74 40                	je     930e <bfd_seek@plt+0x66de>
    92ce:	84 c0                	test   %al,%al
    92d0:	74 36                	je     9308 <bfd_seek@plt+0x66d8>
    92d2:	66 0f 1f 44 00 00    	nopw   0x0(%rax,%rax,1)
    92d8:	3c 2e                	cmp    $0x2e,%al
    92da:	75 0c                	jne    92e8 <bfd_seek@plt+0x66b8>
    92dc:	eb 3a                	jmp    9318 <bfd_seek@plt+0x66e8>
    92de:	66 90                	xchg   %ax,%ax
    92e0:	3c 2f                	cmp    $0x2f,%al
    92e2:	74 14                	je     92f8 <bfd_seek@plt+0x66c8>
    92e4:	48 83 c7 01          	add    $0x1,%rdi
    92e8:	0f b6 07             	movzbl (%rdi),%eax
    92eb:	84 c0                	test   %al,%al
    92ed:	75 f1                	jne    92e0 <bfd_seek@plt+0x66b0>
    92ef:	eb 0f                	jmp    9300 <bfd_seek@plt+0x66d0>
    92f1:	0f 1f 80 00 00 00 00 	nopl   0x0(%rax)
    92f8:	0f b6 47 01          	movzbl 0x1(%rdi),%eax
    92fc:	48 83 c7 01          	add    $0x1,%rdi
    9300:	3c 2f                	cmp    $0x2f,%al
    9302:	74 f4                	je     92f8 <bfd_seek@plt+0x66c8>
    9304:	84 c0                	test   %al,%al
    9306:	75 d0                	jne    92d8 <bfd_seek@plt+0x66a8>
    9308:	41 b8 01 00 00 00    	mov    $0x1,%r8d
    930e:	44 89 c0             	mov    %r8d,%eax
    9311:	c3                   	retq   
    9312:	66 0f 1f 44 00 00    	nopw   0x0(%rax,%rax,1)
    9318:	0f b6 47 01          	movzbl 0x1(%rdi),%eax
    931c:	3c 2e                	cmp    $0x2e,%al
    931e:	74 10                	je     9330 <bfd_seek@plt+0x6700>
    9320:	48 83 c7 01          	add    $0x1,%rdi
    9324:	eb c5                	jmp    92eb <bfd_seek@plt+0x66bb>
    9326:	66 2e 0f 1f 84 00 00 	nopw   %cs:0x0(%rax,%rax,1)
    932d:	00 00 00 
    9330:	0f b6 47 02          	movzbl 0x2(%rdi),%eax
    9334:	48 8d 57 02          	lea    0x2(%rdi),%rdx
    9338:	3c 2f                	cmp    $0x2f,%al
    933a:	74 09                	je     9345 <bfd_seek@plt+0x6715>
    933c:	84 c0                	test   %al,%al
    933e:	74 05                	je     9345 <bfd_seek@plt+0x6715>
    9340:	48 89 d7             	mov    %rdx,%rdi
    9343:	eb 9f                	jmp    92e4 <bfd_seek@plt+0x66b4>
    9345:	45 31 c0             	xor    %r8d,%r8d
    9348:	44 89 c0             	mov    %r8d,%eax
    934b:	c3                   	retq   
    934c:	0f 1f 40 00          	nopl   0x0(%rax)
    9350:	f3 0f 1e fa          	endbr64 
    9354:	50                   	push   %rax
    9355:	58                   	pop    %rax
    9356:	48 8d 0d 3b 43 00 00 	lea    0x433b(%rip),%rcx        # d698 <bfd_seek@plt+0xaa68>
    935d:	48 8d 35 08 45 00 00 	lea    0x4508(%rip),%rsi        # d86c <bfd_seek@plt+0xac3c>
    9364:	31 c0                	xor    %eax,%eax
    9366:	48 83 ec 08          	sub    $0x8,%rsp
    936a:	48 89 fa             	mov    %rdi,%rdx
    936d:	bf 01 00 00 00       	mov    $0x1,%edi
    9372:	e8 59 97 ff ff       	callq  2ad0 <__printf_chk@plt>
    9377:	ba 05 00 00 00       	mov    $0x5,%edx
    937c:	48 8d 35 ed 43 00 00 	lea    0x43ed(%rip),%rsi        # d770 <bfd_seek@plt+0xab40>
    9383:	31 ff                	xor    %edi,%edi
    9385:	e8 46 94 ff ff       	callq  27d0 <dcgettext@plt>
    938a:	bf 01 00 00 00       	mov    $0x1,%edi
    938f:	48 89 c6             	mov    %rax,%rsi
    9392:	31 c0                	xor    %eax,%eax
    9394:	e8 37 97 ff ff       	callq  2ad0 <__printf_chk@plt>
    9399:	ba 05 00 00 00       	mov    $0x5,%edx
    939e:	48 8d 35 03 44 00 00 	lea    0x4403(%rip),%rsi        # d7a8 <bfd_seek@plt+0xab78>
    93a5:	31 ff                	xor    %edi,%edi
    93a7:	e8 24 94 ff ff       	callq  27d0 <dcgettext@plt>
    93ac:	bf 01 00 00 00       	mov    $0x1,%edi
    93b1:	48 89 c6             	mov    %rax,%rsi
    93b4:	31 c0                	xor    %eax,%eax
    93b6:	e8 15 97 ff ff       	callq  2ad0 <__printf_chk@plt>
    93bb:	31 ff                	xor    %edi,%edi
    93bd:	e8 de 97 ff ff       	callq  2ba0 <exit@plt>
    93c2:	66 2e 0f 1f 84 00 00 	nopw   %cs:0x0(%rax,%rax,1)
    93c9:	00 00 00 
    93cc:	0f 1f 40 00          	nopl   0x0(%rax)
    93d0:	f3 0f 1e fa          	endbr64 
    93d4:	48 89 fa             	mov    %rdi,%rdx
    93d7:	b8 64 00 00 00       	mov    $0x64,%eax
    93dc:	81 e2 00 f0 00 00    	and    $0xf000,%edx
    93e2:	48 81 fa 00 40 00 00 	cmp    $0x4000,%rdx
    93e9:	74 4c                	je     9437 <bfd_seek@plt+0x6807>
    93eb:	b8 6c 00 00 00       	mov    $0x6c,%eax
    93f0:	48 81 fa 00 a0 00 00 	cmp    $0xa000,%rdx
    93f7:	74 3e                	je     9437 <bfd_seek@plt+0x6807>
    93f9:	b8 62 00 00 00       	mov    $0x62,%eax
    93fe:	48 81 fa 00 60 00 00 	cmp    $0x6000,%rdx
    9405:	74 30                	je     9437 <bfd_seek@plt+0x6807>
    9407:	b8 63 00 00 00       	mov    $0x63,%eax
    940c:	48 81 fa 00 20 00 00 	cmp    $0x2000,%rdx
    9413:	74 22                	je     9437 <bfd_seek@plt+0x6807>
    9415:	b8 73 00 00 00       	mov    $0x73,%eax
    941a:	48 81 fa 00 c0 00 00 	cmp    $0xc000,%rdx
    9421:	74 14                	je     9437 <bfd_seek@plt+0x6807>
    9423:	48 81 fa 00 10 00 00 	cmp    $0x1000,%rdx
    942a:	b8 70 00 00 00       	mov    $0x70,%eax
    942f:	ba 2d 00 00 00       	mov    $0x2d,%edx
    9434:	0f 45 c2             	cmovne %edx,%eax
    9437:	88 06                	mov    %al,(%rsi)
    9439:	48 89 f8             	mov    %rdi,%rax
    943c:	25 00 01 00 00       	and    $0x100,%eax
    9441:	48 83 f8 01          	cmp    $0x1,%rax
    9445:	19 c0                	sbb    %eax,%eax
    9447:	83 e0 bb             	and    $0xffffffbb,%eax
    944a:	83 c0 72             	add    $0x72,%eax
    944d:	88 46 01             	mov    %al,0x1(%rsi)
    9450:	48 89 f8             	mov    %rdi,%rax
    9453:	25 80 00 00 00       	and    $0x80,%eax
    9458:	48 83 f8 01          	cmp    $0x1,%rax
    945c:	19 c0                	sbb    %eax,%eax
    945e:	83 e0 b6             	and    $0xffffffb6,%eax
    9461:	83 c0 77             	add    $0x77,%eax
    9464:	88 46 02             	mov    %al,0x2(%rsi)
    9467:	48 89 f8             	mov    %rdi,%rax
    946a:	83 e0 40             	and    $0x40,%eax
    946d:	48 83 f8 01          	cmp    $0x1,%rax
    9471:	48 89 f8             	mov    %rdi,%rax
    9474:	19 c9                	sbb    %ecx,%ecx
    9476:	83 e0 20             	and    $0x20,%eax
    9479:	83 e1 b5             	and    $0xffffffb5,%ecx
    947c:	83 c1 78             	add    $0x78,%ecx
    947f:	48 83 f8 01          	cmp    $0x1,%rax
    9483:	19 c0                	sbb    %eax,%eax
    9485:	88 4e 03             	mov    %cl,0x3(%rsi)
    9488:	83 e0 bb             	and    $0xffffffbb,%eax
    948b:	83 c0 72             	add    $0x72,%eax
    948e:	88 46 04             	mov    %al,0x4(%rsi)
    9491:	48 89 f8             	mov    %rdi,%rax
    9494:	83 e0 10             	and    $0x10,%eax
    9497:	48 83 f8 01          	cmp    $0x1,%rax
    949b:	19 c0                	sbb    %eax,%eax
    949d:	83 e0 b6             	and    $0xffffffb6,%eax
    94a0:	83 c0 77             	add    $0x77,%eax
    94a3:	88 46 05             	mov    %al,0x5(%rsi)
    94a6:	48 89 f8             	mov    %rdi,%rax
    94a9:	83 e0 08             	and    $0x8,%eax
    94ac:	48 83 f8 01          	cmp    $0x1,%rax
    94b0:	48 89 f8             	mov    %rdi,%rax
    94b3:	19 d2                	sbb    %edx,%edx
    94b5:	83 e0 04             	and    $0x4,%eax
    94b8:	83 e2 b5             	and    $0xffffffb5,%edx
    94bb:	83 c2 78             	add    $0x78,%edx
    94be:	48 83 f8 01          	cmp    $0x1,%rax
    94c2:	19 c0                	sbb    %eax,%eax
    94c4:	88 56 06             	mov    %dl,0x6(%rsi)
    94c7:	83 e0 bb             	and    $0xffffffbb,%eax
    94ca:	83 c0 72             	add    $0x72,%eax
    94cd:	88 46 07             	mov    %al,0x7(%rsi)
    94d0:	48 89 f8             	mov    %rdi,%rax
    94d3:	83 e0 02             	and    $0x2,%eax
    94d6:	48 83 f8 01          	cmp    $0x1,%rax
    94da:	19 c0                	sbb    %eax,%eax
    94dc:	83 e0 b6             	and    $0xffffffb6,%eax
    94df:	83 c0 77             	add    $0x77,%eax
    94e2:	88 46 08             	mov    %al,0x8(%rsi)
    94e5:	48 89 f8             	mov    %rdi,%rax
    94e8:	83 e0 01             	and    $0x1,%eax
    94eb:	48 83 f8 01          	cmp    $0x1,%rax
    94ef:	19 c0                	sbb    %eax,%eax
    94f1:	83 e0 b5             	and    $0xffffffb5,%eax
    94f4:	83 c0 78             	add    $0x78,%eax
    94f7:	88 46 09             	mov    %al,0x9(%rsi)
    94fa:	f7 c7 00 08 00 00    	test   $0x800,%edi
    9500:	74 15                	je     9517 <bfd_seek@plt+0x68e7>
    9502:	80 f9 78             	cmp    $0x78,%cl
    9505:	41 b8 53 00 00 00    	mov    $0x53,%r8d
    950b:	b9 73 00 00 00       	mov    $0x73,%ecx
    9510:	41 0f 45 c8          	cmovne %r8d,%ecx
    9514:	88 4e 03             	mov    %cl,0x3(%rsi)
    9517:	f7 c7 00 04 00 00    	test   $0x400,%edi
    951d:	74 13                	je     9532 <bfd_seek@plt+0x6902>
    951f:	80 fa 78             	cmp    $0x78,%dl
    9522:	b9 53 00 00 00       	mov    $0x53,%ecx
    9527:	ba 73 00 00 00       	mov    $0x73,%edx
    952c:	0f 45 d1             	cmovne %ecx,%edx
    952f:	88 56 06             	mov    %dl,0x6(%rsi)
    9532:	f7 c7 00 02 00 00    	test   $0x200,%edi
    9538:	74 12                	je     954c <bfd_seek@plt+0x691c>
    953a:	3c 78                	cmp    $0x78,%al
    953c:	ba 54 00 00 00       	mov    $0x54,%edx
    9541:	b8 74 00 00 00       	mov    $0x74,%eax
    9546:	0f 45 c2             	cmovne %edx,%eax
    9549:	88 46 09             	mov    %al,0x9(%rsi)
    954c:	c3                   	retq   
    954d:	0f 1f 00             	nopl   (%rax)
    9550:	f3 0f 1e fa          	endbr64 
    9554:	41 54                	push   %r12
    9556:	55                   	push   %rbp
    9557:	53                   	push   %rbx
    9558:	48 85 ff             	test   %rdi,%rdi
    955b:	0f 84 84 00 00 00    	je     95e5 <bfd_seek@plt+0x69b5>
    9561:	48 83 3f 00          	cmpq   $0x0,(%rdi)
    9565:	48 89 fd             	mov    %rdi,%rbp
    9568:	74 66                	je     95d0 <bfd_seek@plt+0x69a0>
    956a:	b8 01 00 00 00       	mov    $0x1,%eax
    956f:	90                   	nop
    9570:	89 c2                	mov    %eax,%edx
    9572:	48 83 c0 01          	add    $0x1,%rax
    9576:	48 83 7c c5 f8 00    	cmpq   $0x0,-0x8(%rbp,%rax,8)
    957c:	75 f2                	jne    9570 <bfd_seek@plt+0x6940>
    957e:	8d 7a 01             	lea    0x1(%rdx),%edi
    9581:	48 63 ff             	movslq %edi,%rdi
    9584:	48 c1 e7 03          	shl    $0x3,%rdi
    9588:	e8 13 93 ff ff       	callq  28a0 <xmalloc@plt>
    958d:	48 8b 7d 00          	mov    0x0(%rbp),%rdi
    9591:	49 89 c4             	mov    %rax,%r12
    9594:	48 85 ff             	test   %rdi,%rdi
    9597:	74 47                	je     95e0 <bfd_seek@plt+0x69b0>
    9599:	31 db                	xor    %ebx,%ebx
    959b:	0f 1f 44 00 00       	nopl   0x0(%rax,%rax,1)
    95a0:	e8 3b 93 ff ff       	callq  28e0 <xstrdup@plt>
    95a5:	49 89 04 1c          	mov    %rax,(%r12,%rbx,1)
    95a9:	48 83 c3 08          	add    $0x8,%rbx
    95ad:	48 8b 7c 1d 00       	mov    0x0(%rbp,%rbx,1),%rdi
    95b2:	48 85 ff             	test   %rdi,%rdi
    95b5:	75 e9                	jne    95a0 <bfd_seek@plt+0x6970>
    95b7:	4c 01 e3             	add    %r12,%rbx
    95ba:	48 c7 03 00 00 00 00 	movq   $0x0,(%rbx)
    95c1:	4c 89 e0             	mov    %r12,%rax
    95c4:	5b                   	pop    %rbx
    95c5:	5d                   	pop    %rbp
    95c6:	41 5c                	pop    %r12
    95c8:	c3                   	retq   
    95c9:	0f 1f 80 00 00 00 00 	nopl   0x0(%rax)
    95d0:	bf 08 00 00 00       	mov    $0x8,%edi
    95d5:	eb b1                	jmp    9588 <bfd_seek@plt+0x6958>
    95d7:	66 0f 1f 84 00 00 00 	nopw   0x0(%rax,%rax,1)
    95de:	00 00 
    95e0:	48 89 c3             	mov    %rax,%rbx
    95e3:	eb d5                	jmp    95ba <bfd_seek@plt+0x698a>
    95e5:	45 31 e4             	xor    %r12d,%r12d
    95e8:	eb d7                	jmp    95c1 <bfd_seek@plt+0x6991>
    95ea:	66 0f 1f 44 00 00    	nopw   0x0(%rax,%rax,1)
    95f0:	f3 0f 1e fa          	endbr64 
    95f4:	48 85 ff             	test   %rdi,%rdi
    95f7:	74 37                	je     9630 <bfd_seek@plt+0x6a00>
    95f9:	55                   	push   %rbp
    95fa:	48 89 fd             	mov    %rdi,%rbp
    95fd:	53                   	push   %rbx
    95fe:	48 83 ec 08          	sub    $0x8,%rsp
    9602:	48 8b 3f             	mov    (%rdi),%rdi
    9605:	48 85 ff             	test   %rdi,%rdi
    9608:	74 18                	je     9622 <bfd_seek@plt+0x69f2>
    960a:	48 89 eb             	mov    %rbp,%rbx
    960d:	0f 1f 00             	nopl   (%rax)
    9610:	e8 5b 90 ff ff       	callq  2670 <free@plt>
    9615:	48 8b 7b 08          	mov    0x8(%rbx),%rdi
    9619:	48 83 c3 08          	add    $0x8,%rbx
    961d:	48 85 ff             	test   %rdi,%rdi
    9620:	75 ee                	jne    9610 <bfd_seek@plt+0x69e0>
    9622:	48 83 c4 08          	add    $0x8,%rsp
    9626:	48 89 ef             	mov    %rbp,%rdi
    9629:	5b                   	pop    %rbx
    962a:	5d                   	pop    %rbp
    962b:	e9 40 90 ff ff       	jmpq   2670 <free@plt>
    9630:	c3                   	retq   
    9631:	66 66 2e 0f 1f 84 00 	data16 nopw %cs:0x0(%rax,%rax,1)
    9638:	00 00 00 00 
    963c:	0f 1f 40 00          	nopl   0x0(%rax)
    9640:	f3 0f 1e fa          	endbr64 
    9644:	45 31 c9             	xor    %r9d,%r9d
    9647:	48 85 ff             	test   %rdi,%rdi
    964a:	0f 84 81 02 00 00    	je     98d1 <bfd_seek@plt+0x6ca1>
    9650:	41 57                	push   %r15
    9652:	45 31 ff             	xor    %r15d,%r15d
    9655:	41 56                	push   %r14
    9657:	45 31 f6             	xor    %r14d,%r14d
    965a:	41 55                	push   %r13
    965c:	45 31 ed             	xor    %r13d,%r13d
    965f:	41 54                	push   %r12
    9661:	45 31 e4             	xor    %r12d,%r12d
    9664:	55                   	push   %rbp
    9665:	53                   	push   %rbx
    9666:	48 89 fb             	mov    %rdi,%rbx
    9669:	48 83 ec 38          	sub    $0x38,%rsp
    966d:	4c 89 4c 24 08       	mov    %r9,0x8(%rsp)
    9672:	e8 69 91 ff ff       	callq  27e0 <strlen@plt>
    9677:	48 8d 78 01          	lea    0x1(%rax),%rdi
    967b:	e8 20 92 ff ff       	callq  28a0 <xmalloc@plt>
    9680:	48 8b 2d 41 79 00 00 	mov    0x7941(%rip),%rbp        # 10fc8 <bfd_seek@plt+0xe398>
    9687:	4c 8b 4c 24 08       	mov    0x8(%rsp),%r9
    968c:	45 31 d2             	xor    %r10d,%r10d
    968f:	48 89 44 24 10       	mov    %rax,0x10(%rsp)
    9694:	eb 0e                	jmp    96a4 <bfd_seek@plt+0x6a74>
    9696:	66 2e 0f 1f 84 00 00 	nopw   %cs:0x0(%rax,%rax,1)
    969d:	00 00 00 
    96a0:	48 83 c3 01          	add    $0x1,%rbx
    96a4:	0f b6 03             	movzbl (%rbx),%eax
    96a7:	f6 44 45 00 40       	testb  $0x40,0x0(%rbp,%rax,2)
    96ac:	75 f2                	jne    96a0 <bfd_seek@plt+0x6a70>
    96ae:	4a 8d 0c e5 00 00 00 	lea    0x0(,%r12,8),%rcx
    96b5:	00 
    96b6:	48 89 4c 24 08       	mov    %rcx,0x8(%rsp)
    96bb:	45 85 d2             	test   %r10d,%r10d
    96be:	74 0d                	je     96cd <bfd_seek@plt+0x6a9d>
    96c0:	41 8d 42 ff          	lea    -0x1(%r10),%eax
    96c4:	49 8d 34 09          	lea    (%r9,%rcx,1),%rsi
    96c8:	44 39 e0             	cmp    %r12d,%eax
    96cb:	7f 38                	jg     9705 <bfd_seek@plt+0x6ad5>
    96cd:	4d 85 c9             	test   %r9,%r9
    96d0:	0f 84 ca 01 00 00    	je     98a0 <bfd_seek@plt+0x6c70>
    96d6:	45 01 d2             	add    %r10d,%r10d
    96d9:	4c 89 cf             	mov    %r9,%rdi
    96dc:	49 63 f2             	movslq %r10d,%rsi
    96df:	44 89 54 24 18       	mov    %r10d,0x18(%rsp)
    96e4:	48 c1 e6 03          	shl    $0x3,%rsi
    96e8:	e8 33 91 ff ff       	callq  2820 <xrealloc@plt>
    96ed:	44 8b 54 24 18       	mov    0x18(%rsp),%r10d
    96f2:	49 89 c1             	mov    %rax,%r9
    96f5:	48 8b 44 24 08       	mov    0x8(%rsp),%rax
    96fa:	49 8d 34 01          	lea    (%r9,%rax,1),%rsi
    96fe:	48 c7 06 00 00 00 00 	movq   $0x0,(%rsi)
    9705:	0f b6 03             	movzbl (%rbx),%eax
    9708:	48 8b 54 24 10       	mov    0x10(%rsp),%rdx
    970d:	84 c0                	test   %al,%al
    970f:	75 1c                	jne    972d <bfd_seek@plt+0x6afd>
    9711:	eb 65                	jmp    9778 <bfd_seek@plt+0x6b48>
    9713:	0f 1f 44 00 00       	nopl   0x0(%rax,%rax,1)
    9718:	88 02                	mov    %al,(%rdx)
    971a:	45 31 ff             	xor    %r15d,%r15d
    971d:	48 83 c2 01          	add    $0x1,%rdx
    9721:	0f b6 43 01          	movzbl 0x1(%rbx),%eax
    9725:	48 83 c3 01          	add    $0x1,%rbx
    9729:	84 c0                	test   %al,%al
    972b:	74 4b                	je     9778 <bfd_seek@plt+0x6b48>
    972d:	0f b6 f8             	movzbl %al,%edi
    9730:	f6 44 7d 00 40       	testb  $0x40,0x0(%rbp,%rdi,2)
    9735:	74 0f                	je     9746 <bfd_seek@plt+0x6b16>
    9737:	44 89 ef             	mov    %r13d,%edi
    973a:	44 09 ff             	or     %r15d,%edi
    973d:	44 09 f7             	or     %r14d,%edi
    9740:	0f 84 2a 01 00 00    	je     9870 <bfd_seek@plt+0x6c40>
    9746:	45 85 ff             	test   %r15d,%r15d
    9749:	75 cd                	jne    9718 <bfd_seek@plt+0x6ae8>
    974b:	3c 5c                	cmp    $0x5c,%al
    974d:	0f 84 bd 00 00 00    	je     9810 <bfd_seek@plt+0x6be0>
    9753:	45 85 ed             	test   %r13d,%r13d
    9756:	0f 84 c4 00 00 00    	je     9820 <bfd_seek@plt+0x6bf0>
    975c:	3c 27                	cmp    $0x27,%al
    975e:	0f 84 fc 00 00 00    	je     9860 <bfd_seek@plt+0x6c30>
    9764:	48 83 c3 01          	add    $0x1,%rbx
    9768:	88 02                	mov    %al,(%rdx)
    976a:	48 83 c2 01          	add    $0x1,%rdx
    976e:	0f b6 03             	movzbl (%rbx),%eax
    9771:	84 c0                	test   %al,%al
    9773:	75 b8                	jne    972d <bfd_seek@plt+0x6afd>
    9775:	0f 1f 00             	nopl   (%rax)
    9778:	c6 02 00             	movb   $0x0,(%rdx)
    977b:	48 8b 7c 24 10       	mov    0x10(%rsp),%rdi
    9780:	4c 89 4c 24 28       	mov    %r9,0x28(%rsp)
    9785:	44 89 54 24 24       	mov    %r10d,0x24(%rsp)
    978a:	48 89 74 24 18       	mov    %rsi,0x18(%rsp)
    978f:	e8 4c 91 ff ff       	callq  28e0 <xstrdup@plt>
    9794:	48 8b 74 24 18       	mov    0x18(%rsp),%rsi
    9799:	4c 8b 4c 24 28       	mov    0x28(%rsp),%r9
    979e:	44 8b 54 24 24       	mov    0x24(%rsp),%r10d
    97a3:	48 89 06             	mov    %rax,(%rsi)
    97a6:	48 8b 44 24 08       	mov    0x8(%rsp),%rax
    97ab:	49 c7 44 01 08 00 00 	movq   $0x0,0x8(%r9,%rax,1)
    97b2:	00 00 
    97b4:	0f b6 13             	movzbl (%rbx),%edx
    97b7:	f6 44 55 00 40       	testb  $0x40,0x0(%rbp,%rdx,2)
    97bc:	48 89 d0             	mov    %rdx,%rax
    97bf:	74 19                	je     97da <bfd_seek@plt+0x6baa>
    97c1:	0f 1f 80 00 00 00 00 	nopl   0x0(%rax)
    97c8:	0f b6 53 01          	movzbl 0x1(%rbx),%edx
    97cc:	48 83 c3 01          	add    $0x1,%rbx
    97d0:	48 89 d0             	mov    %rdx,%rax
    97d3:	f6 44 55 00 40       	testb  $0x40,0x0(%rbp,%rdx,2)
    97d8:	75 ee                	jne    97c8 <bfd_seek@plt+0x6b98>
    97da:	49 83 c4 01          	add    $0x1,%r12
    97de:	84 c0                	test   %al,%al
    97e0:	0f 85 be fe ff ff    	jne    96a4 <bfd_seek@plt+0x6a74>
    97e6:	48 8b 7c 24 10       	mov    0x10(%rsp),%rdi
    97eb:	4c 89 4c 24 08       	mov    %r9,0x8(%rsp)
    97f0:	e8 7b 8e ff ff       	callq  2670 <free@plt>
    97f5:	4c 8b 4c 24 08       	mov    0x8(%rsp),%r9
    97fa:	48 83 c4 38          	add    $0x38,%rsp
    97fe:	5b                   	pop    %rbx
    97ff:	5d                   	pop    %rbp
    9800:	4c 89 c8             	mov    %r9,%rax
    9803:	41 5c                	pop    %r12
    9805:	41 5d                	pop    %r13
    9807:	41 5e                	pop    %r14
    9809:	41 5f                	pop    %r15
    980b:	c3                   	retq   
    980c:	0f 1f 40 00          	nopl   0x0(%rax)
    9810:	41 bf 01 00 00 00    	mov    $0x1,%r15d
    9816:	e9 06 ff ff ff       	jmpq   9721 <bfd_seek@plt+0x6af1>
    981b:	0f 1f 44 00 00       	nopl   0x0(%rax,%rax,1)
    9820:	45 85 f6             	test   %r14d,%r14d
    9823:	74 1b                	je     9840 <bfd_seek@plt+0x6c10>
    9825:	3c 22                	cmp    $0x22,%al
    9827:	74 57                	je     9880 <bfd_seek@plt+0x6c50>
    9829:	88 02                	mov    %al,(%rdx)
    982b:	45 89 ef             	mov    %r13d,%r15d
    982e:	48 83 c2 01          	add    $0x1,%rdx
    9832:	e9 ea fe ff ff       	jmpq   9721 <bfd_seek@plt+0x6af1>
    9837:	66 0f 1f 84 00 00 00 	nopw   0x0(%rax,%rax,1)
    983e:	00 00 
    9840:	3c 27                	cmp    $0x27,%al
    9842:	74 4c                	je     9890 <bfd_seek@plt+0x6c60>
    9844:	3c 22                	cmp    $0x22,%al
    9846:	74 78                	je     98c0 <bfd_seek@plt+0x6c90>
    9848:	88 02                	mov    %al,(%rdx)
    984a:	45 89 f7             	mov    %r14d,%r15d
    984d:	45 89 f5             	mov    %r14d,%r13d
    9850:	48 83 c2 01          	add    $0x1,%rdx
    9854:	e9 c8 fe ff ff       	jmpq   9721 <bfd_seek@plt+0x6af1>
    9859:	0f 1f 80 00 00 00 00 	nopl   0x0(%rax)
    9860:	45 31 ed             	xor    %r13d,%r13d
    9863:	e9 b9 fe ff ff       	jmpq   9721 <bfd_seek@plt+0x6af1>
    9868:	0f 1f 84 00 00 00 00 	nopl   0x0(%rax,%rax,1)
    986f:	00 
    9870:	45 31 f6             	xor    %r14d,%r14d
    9873:	45 31 ed             	xor    %r13d,%r13d
    9876:	45 31 ff             	xor    %r15d,%r15d
    9879:	e9 fa fe ff ff       	jmpq   9778 <bfd_seek@plt+0x6b48>
    987e:	66 90                	xchg   %ax,%ax
    9880:	45 89 ef             	mov    %r13d,%r15d
    9883:	45 31 f6             	xor    %r14d,%r14d
    9886:	e9 96 fe ff ff       	jmpq   9721 <bfd_seek@plt+0x6af1>
    988b:	0f 1f 44 00 00       	nopl   0x0(%rax,%rax,1)
    9890:	45 89 f7             	mov    %r14d,%r15d
    9893:	41 bd 01 00 00 00    	mov    $0x1,%r13d
    9899:	e9 83 fe ff ff       	jmpq   9721 <bfd_seek@plt+0x6af1>
    989e:	66 90                	xchg   %ax,%ax
    98a0:	bf 40 00 00 00       	mov    $0x40,%edi
    98a5:	e8 f6 8f ff ff       	callq  28a0 <xmalloc@plt>
    98aa:	41 ba 08 00 00 00    	mov    $0x8,%r10d
    98b0:	49 89 c1             	mov    %rax,%r9
    98b3:	e9 3d fe ff ff       	jmpq   96f5 <bfd_seek@plt+0x6ac5>
    98b8:	0f 1f 84 00 00 00 00 	nopl   0x0(%rax,%rax,1)
    98bf:	00 
    98c0:	45 89 f7             	mov    %r14d,%r15d
    98c3:	45 89 f5             	mov    %r14d,%r13d
    98c6:	41 be 01 00 00 00    	mov    $0x1,%r14d
    98cc:	e9 50 fe ff ff       	jmpq   9721 <bfd_seek@plt+0x6af1>
    98d1:	4c 89 c8             	mov    %r9,%rax
    98d4:	c3                   	retq   
    98d5:	66 66 2e 0f 1f 84 00 	data16 nopw %cs:0x0(%rax,%rax,1)
    98dc:	00 00 00 00 
    98e0:	f3 0f 1e fa          	endbr64 
    98e4:	48 85 f6             	test   %rsi,%rsi
    98e7:	0f 84 d3 00 00 00    	je     99c0 <bfd_seek@plt+0x6d90>
    98ed:	41 57                	push   %r15
    98ef:	41 56                	push   %r14
    98f1:	49 be 21 00 00 00 00 	movabs $0x400000000000021,%r14
    98f8:	00 00 04 
    98fb:	41 55                	push   %r13
    98fd:	49 89 fd             	mov    %rdi,%r13
    9900:	41 54                	push   %r12
    9902:	55                   	push   %rbp
    9903:	48 89 f5             	mov    %rsi,%rbp
    9906:	53                   	push   %rbx
    9907:	48 83 ec 08          	sub    $0x8,%rsp
    990b:	48 8b 1f             	mov    (%rdi),%rbx
    990e:	48 85 db             	test   %rbx,%rbx
    9911:	0f 84 9c 00 00 00    	je     99b3 <bfd_seek@plt+0x6d83>
    9917:	0f b6 03             	movzbl (%rbx),%eax
    991a:	84 c0                	test   %al,%al
    991c:	74 72                	je     9990 <bfd_seek@plt+0x6d60>
    991e:	4c 8b 25 a3 76 00 00 	mov    0x76a3(%rip),%r12        # 10fc8 <bfd_seek@plt+0xe398>
    9925:	eb 15                	jmp    993c <bfd_seek@plt+0x6d0c>
    9927:	66 0f 1f 84 00 00 00 	nopw   0x0(%rax,%rax,1)
    992e:	00 00 
    9930:	0f b6 43 01          	movzbl 0x1(%rbx),%eax
    9934:	48 83 c3 01          	add    $0x1,%rbx
    9938:	84 c0                	test   %al,%al
    993a:	74 54                	je     9990 <bfd_seek@plt+0x6d60>
    993c:	0f b6 d0             	movzbl %al,%edx
    993f:	44 0f be f8          	movsbl %al,%r15d
    9943:	41 f6 04 54 40       	testb  $0x40,(%r12,%rdx,2)
    9948:	75 0d                	jne    9957 <bfd_seek@plt+0x6d27>
    994a:	83 e8 22             	sub    $0x22,%eax
    994d:	3c 3a                	cmp    $0x3a,%al
    994f:	77 18                	ja     9969 <bfd_seek@plt+0x6d39>
    9951:	49 0f a3 c6          	bt     %rax,%r14
    9955:	73 12                	jae    9969 <bfd_seek@plt+0x6d39>
    9957:	48 89 ee             	mov    %rbp,%rsi
    995a:	bf 5c 00 00 00       	mov    $0x5c,%edi
    995f:	e8 8c 8f ff ff       	callq  28f0 <fputc@plt>
    9964:	83 f8 ff             	cmp    $0xffffffff,%eax
    9967:	74 10                	je     9979 <bfd_seek@plt+0x6d49>
    9969:	48 89 ee             	mov    %rbp,%rsi
    996c:	44 89 ff             	mov    %r15d,%edi
    996f:	e8 7c 8f ff ff       	callq  28f0 <fputc@plt>
    9974:	83 f8 ff             	cmp    $0xffffffff,%eax
    9977:	75 b7                	jne    9930 <bfd_seek@plt+0x6d00>
    9979:	b8 01 00 00 00       	mov    $0x1,%eax
    997e:	48 83 c4 08          	add    $0x8,%rsp
    9982:	5b                   	pop    %rbx
    9983:	5d                   	pop    %rbp
    9984:	41 5c                	pop    %r12
    9986:	41 5d                	pop    %r13
    9988:	41 5e                	pop    %r14
    998a:	41 5f                	pop    %r15
    998c:	c3                   	retq   
    998d:	0f 1f 00             	nopl   (%rax)
    9990:	48 89 ee             	mov    %rbp,%rsi
    9993:	bf 0a 00 00 00       	mov    $0xa,%edi
    9998:	e8 53 8f ff ff       	callq  28f0 <fputc@plt>
    999d:	83 f8 ff             	cmp    $0xffffffff,%eax
    99a0:	74 d7                	je     9979 <bfd_seek@plt+0x6d49>
    99a2:	49 8b 5d 08          	mov    0x8(%r13),%rbx
    99a6:	49 83 c5 08          	add    $0x8,%r13
    99aa:	48 85 db             	test   %rbx,%rbx
    99ad:	0f 85 64 ff ff ff    	jne    9917 <bfd_seek@plt+0x6ce7>
    99b3:	31 c0                	xor    %eax,%eax
    99b5:	eb c7                	jmp    997e <bfd_seek@plt+0x6d4e>
    99b7:	66 0f 1f 84 00 00 00 	nopw   0x0(%rax,%rax,1)
    99be:	00 00 
    99c0:	b8 01 00 00 00       	mov    $0x1,%eax
    99c5:	c3                   	retq   
    99c6:	66 2e 0f 1f 84 00 00 	nopw   %cs:0x0(%rax,%rax,1)
    99cd:	00 00 00 
    99d0:	f3 0f 1e fa          	endbr64 
    99d4:	41 57                	push   %r15
    99d6:	41 56                	push   %r14
    99d8:	41 55                	push   %r13
    99da:	41 54                	push   %r12
    99dc:	55                   	push   %rbp
    99dd:	53                   	push   %rbx
    99de:	48 81 ec f8 00 00 00 	sub    $0xf8,%rsp
    99e5:	64 48 8b 04 25 28 00 	mov    %fs:0x28,%rax
    99ec:	00 00 
    99ee:	48 89 84 24 e8 00 00 	mov    %rax,0xe8(%rsp)
    99f5:	00 
    99f6:	31 c0                	xor    %eax,%eax
    99f8:	48 8b 06             	mov    (%rsi),%rax
    99fb:	83 3f 01             	cmpl   $0x1,(%rdi)
    99fe:	48 89 44 24 48       	mov    %rax,0x48(%rsp)
    9a03:	0f 8e 69 01 00 00    	jle    9b72 <bfd_seek@plt+0x6f42>
    9a09:	48 89 c2             	mov    %rax,%rdx
    9a0c:	48 8d 44 24 50       	lea    0x50(%rsp),%rax
    9a11:	48 89 fd             	mov    %rdi,%rbp
    9a14:	49 89 f4             	mov    %rsi,%r12
    9a17:	c7 44 24 40 d0 07 00 	movl   $0x7d0,0x40(%rsp)
    9a1e:	00 
    9a1f:	41 bf 01 00 00 00    	mov    $0x1,%r15d
    9a25:	c7 44 24 0c 00 00 00 	movl   $0x0,0xc(%rsp)
    9a2c:	00 
    9a2d:	48 89 44 24 10       	mov    %rax,0x10(%rsp)
    9a32:	e9 14 01 00 00       	jmpq   9b4b <bfd_seek@plt+0x6f1b>
    9a37:	66 0f 1f 84 00 00 00 	nopw   0x0(%rax,%rax,1)
    9a3e:	00 00 
    9a40:	83 6c 24 40 01       	subl   $0x1,0x40(%rsp)
    9a45:	0f 84 ef 02 00 00    	je     9d3a <bfd_seek@plt+0x710a>
    9a4b:	4c 8d 70 01          	lea    0x1(%rax),%r14
    9a4f:	48 8b 54 24 10       	mov    0x10(%rsp),%rdx
    9a54:	bf 01 00 00 00       	mov    $0x1,%edi
    9a59:	4c 89 f6             	mov    %r14,%rsi
    9a5c:	e8 9f 8f ff ff       	callq  2a00 <__xstat@plt>
    9a61:	85 c0                	test   %eax,%eax
    9a63:	0f 88 fa 00 00 00    	js     9b63 <bfd_seek@plt+0x6f33>
    9a69:	8b 44 24 68          	mov    0x68(%rsp),%eax
    9a6d:	25 00 f0 00 00       	and    $0xf000,%eax
    9a72:	3d 00 40 00 00       	cmp    $0x4000,%eax
    9a77:	0f 84 e7 02 00 00    	je     9d64 <bfd_seek@plt+0x7134>
    9a7d:	4c 89 f7             	mov    %r14,%rdi
    9a80:	48 8d 35 3d 27 00 00 	lea    0x273d(%rip),%rsi        # c1c4 <bfd_seek@plt+0x9594>
    9a87:	e8 a4 90 ff ff       	callq  2b30 <fopen@plt>
    9a8c:	49 89 c6             	mov    %rax,%r14
    9a8f:	48 85 c0             	test   %rax,%rax
    9a92:	0f 84 cb 00 00 00    	je     9b63 <bfd_seek@plt+0x6f33>
    9a98:	31 f6                	xor    %esi,%esi
    9a9a:	ba 02 00 00 00       	mov    $0x2,%edx
    9a9f:	48 89 c7             	mov    %rax,%rdi
    9aa2:	e8 c9 8f ff ff       	callq  2a70 <fseek@plt>
    9aa7:	83 f8 ff             	cmp    $0xffffffff,%eax
    9aaa:	0f 84 80 00 00 00    	je     9b30 <bfd_seek@plt+0x6f00>
    9ab0:	4c 89 f7             	mov    %r14,%rdi
    9ab3:	e8 c8 8e ff ff       	callq  2980 <ftell@plt>
    9ab8:	48 83 f8 ff          	cmp    $0xffffffffffffffff,%rax
    9abc:	48 89 44 24 18       	mov    %rax,0x18(%rsp)
    9ac1:	74 6d                	je     9b30 <bfd_seek@plt+0x6f00>
    9ac3:	31 d2                	xor    %edx,%edx
    9ac5:	31 f6                	xor    %esi,%esi
    9ac7:	4c 89 f7             	mov    %r14,%rdi
    9aca:	e8 a1 8f ff ff       	callq  2a70 <fseek@plt>
    9acf:	83 f8 ff             	cmp    $0xffffffff,%eax
    9ad2:	74 5c                	je     9b30 <bfd_seek@plt+0x6f00>
    9ad4:	4c 8b 54 24 18       	mov    0x18(%rsp),%r10
    9ad9:	49 8d 7a 01          	lea    0x1(%r10),%rdi
    9add:	4c 89 54 24 20       	mov    %r10,0x20(%rsp)
    9ae2:	e8 b9 8d ff ff       	callq  28a0 <xmalloc@plt>
    9ae7:	4c 8b 54 24 20       	mov    0x20(%rsp),%r10
    9aec:	4c 89 f1             	mov    %r14,%rcx
    9aef:	be 01 00 00 00       	mov    $0x1,%esi
    9af4:	48 89 c7             	mov    %rax,%rdi
    9af7:	48 89 44 24 18       	mov    %rax,0x18(%rsp)
    9afc:	4c 89 d2             	mov    %r10,%rdx
    9aff:	e8 3c 8c ff ff       	callq  2740 <fread@plt>
    9b04:	4c 8b 54 24 20       	mov    0x20(%rsp),%r10
    9b09:	48 89 c2             	mov    %rax,%rdx
    9b0c:	49 39 c2             	cmp    %rax,%r10
    9b0f:	0f 84 8b 00 00 00    	je     9ba0 <bfd_seek@plt+0x6f70>
    9b15:	4c 89 f7             	mov    %r14,%rdi
    9b18:	48 89 44 24 20       	mov    %rax,0x20(%rsp)
    9b1d:	e8 de 8b ff ff       	callq  2700 <ferror@plt>
    9b22:	48 8b 54 24 20       	mov    0x20(%rsp),%rdx
    9b27:	85 c0                	test   %eax,%eax
    9b29:	74 75                	je     9ba0 <bfd_seek@plt+0x6f70>
    9b2b:	0f 1f 44 00 00       	nopl   0x0(%rax,%rax,1)
    9b30:	4c 89 f7             	mov    %r14,%rdi
    9b33:	e8 68 8c ff ff       	callq  27a0 <fclose@plt>
    9b38:	44 89 7c 24 0c       	mov    %r15d,0xc(%rsp)
    9b3d:	41 83 c7 01          	add    $0x1,%r15d
    9b41:	44 39 7d 00          	cmp    %r15d,0x0(%rbp)
    9b45:	7e 2b                	jle    9b72 <bfd_seek@plt+0x6f42>
    9b47:	49 8b 14 24          	mov    (%r12),%rdx
    9b4b:	49 63 df             	movslq %r15d,%rbx
    9b4e:	48 8b 04 da          	mov    (%rdx,%rbx,8),%rax
    9b52:	4c 8d 2c dd 00 00 00 	lea    0x0(,%rbx,8),%r13
    9b59:	00 
    9b5a:	80 38 40             	cmpb   $0x40,(%rax)
    9b5d:	0f 84 dd fe ff ff    	je     9a40 <bfd_seek@plt+0x6e10>
    9b63:	44 89 7c 24 0c       	mov    %r15d,0xc(%rsp)
    9b68:	41 83 c7 01          	add    $0x1,%r15d
    9b6c:	44 39 7d 00          	cmp    %r15d,0x0(%rbp)
    9b70:	7f d5                	jg     9b47 <bfd_seek@plt+0x6f17>
    9b72:	48 8b 84 24 e8 00 00 	mov    0xe8(%rsp),%rax
    9b79:	00 
    9b7a:	64 48 33 04 25 28 00 	xor    %fs:0x28,%rax
    9b81:	00 00 
    9b83:	0f 85 eb 01 00 00    	jne    9d74 <bfd_seek@plt+0x7144>
    9b89:	48 81 c4 f8 00 00 00 	add    $0xf8,%rsp
    9b90:	5b                   	pop    %rbx
    9b91:	5d                   	pop    %rbp
    9b92:	41 5c                	pop    %r12
    9b94:	41 5d                	pop    %r13
    9b96:	41 5e                	pop    %r14
    9b98:	41 5f                	pop    %r15
    9b9a:	c3                   	retq   
    9b9b:	0f 1f 44 00 00       	nopl   0x0(%rax,%rax,1)
    9ba0:	48 8b 44 24 18       	mov    0x18(%rsp),%rax
    9ba5:	c6 04 10 00          	movb   $0x0,(%rax,%rdx,1)
    9ba9:	0f b6 00             	movzbl (%rax),%eax
    9bac:	84 c0                	test   %al,%al
    9bae:	0f 84 2c 01 00 00    	je     9ce0 <bfd_seek@plt+0x70b0>
    9bb4:	48 8b 54 24 18       	mov    0x18(%rsp),%rdx
    9bb9:	48 8b 0d 08 74 00 00 	mov    0x7408(%rip),%rcx        # 10fc8 <bfd_seek@plt+0xe398>
    9bc0:	eb 16                	jmp    9bd8 <bfd_seek@plt+0x6fa8>
    9bc2:	66 0f 1f 44 00 00    	nopw   0x0(%rax,%rax,1)
    9bc8:	0f b6 42 01          	movzbl 0x1(%rdx),%eax
    9bcc:	48 83 c2 01          	add    $0x1,%rdx
    9bd0:	84 c0                	test   %al,%al
    9bd2:	0f 84 08 01 00 00    	je     9ce0 <bfd_seek@plt+0x70b0>
    9bd8:	f6 04 41 40          	testb  $0x40,(%rcx,%rax,2)
    9bdc:	75 ea                	jne    9bc8 <bfd_seek@plt+0x6f98>
    9bde:	48 8b 7c 24 18       	mov    0x18(%rsp),%rdi
    9be3:	e8 58 fa ff ff       	callq  9640 <bfd_seek@plt+0x6a10>
    9be8:	49 8b 14 24          	mov    (%r12),%rdx
    9bec:	48 8b 08             	mov    (%rax),%rcx
    9bef:	49 89 c2             	mov    %rax,%r10
    9bf2:	48 3b 54 24 48       	cmp    0x48(%rsp),%rdx
    9bf7:	0f 84 7c 01 00 00    	je     9d79 <bfd_seek@plt+0x7149>
    9bfd:	48 85 c9             	test   %rcx,%rcx
    9c00:	0f 84 23 01 00 00    	je     9d29 <bfd_seek@plt+0x70f9>
    9c06:	31 c0                	xor    %eax,%eax
    9c08:	0f 1f 84 00 00 00 00 	nopl   0x0(%rax,%rax,1)
    9c0f:	00 
    9c10:	48 83 c0 01          	add    $0x1,%rax
    9c14:	49 83 3c c2 00       	cmpq   $0x0,(%r10,%rax,8)
    9c19:	4c 8d 1c c5 00 00 00 	lea    0x0(,%rax,8),%r11
    9c20:	00 
    9c21:	75 ed                	jne    9c10 <bfd_seek@plt+0x6fe0>
    9c23:	48 8d 3c 03          	lea    (%rbx,%rax,1),%rdi
    9c27:	89 c1                	mov    %eax,%ecx
    9c29:	48 8d 34 fd 00 00 00 	lea    0x0(,%rdi,8),%rsi
    9c30:	00 
    9c31:	48 89 74 24 20       	mov    %rsi,0x20(%rsp)
    9c36:	48 8b 3c da          	mov    (%rdx,%rbx,8),%rdi
    9c3a:	89 4c 24 44          	mov    %ecx,0x44(%rsp)
    9c3e:	4c 89 54 24 30       	mov    %r10,0x30(%rsp)
    9c43:	4c 89 5c 24 28       	mov    %r11,0x28(%rsp)
    9c48:	48 89 44 24 38       	mov    %rax,0x38(%rsp)
    9c4d:	e8 1e 8a ff ff       	callq  2670 <free@plt>
    9c52:	48 63 55 00          	movslq 0x0(%rbp),%rdx
    9c56:	48 8b 44 24 38       	mov    0x38(%rsp),%rax
    9c5b:	49 8b 3c 24          	mov    (%r12),%rdi
    9c5f:	48 8d 74 10 01       	lea    0x1(%rax,%rdx,1),%rsi
    9c64:	48 c1 e6 03          	shl    $0x3,%rsi
    9c68:	e8 b3 8b ff ff       	callq  2820 <xrealloc@plt>
    9c6d:	8b 55 00             	mov    0x0(%rbp),%edx
    9c70:	48 8b 7c 24 20       	mov    0x20(%rsp),%rdi
    9c75:	49 89 04 24          	mov    %rax,(%r12)
    9c79:	4a 8d 74 28 08       	lea    0x8(%rax,%r13,1),%rsi
    9c7e:	44 29 fa             	sub    %r15d,%edx
    9c81:	48 01 c7             	add    %rax,%rdi
    9c84:	48 63 d2             	movslq %edx,%rdx
    9c87:	48 c1 e2 03          	shl    $0x3,%rdx
    9c8b:	e8 70 8e ff ff       	callq  2b00 <memmove@plt>
    9c90:	4c 8b 5c 24 28       	mov    0x28(%rsp),%r11
    9c95:	4c 8b 54 24 30       	mov    0x30(%rsp),%r10
    9c9a:	49 8b 3c 24          	mov    (%r12),%rdi
    9c9e:	4c 89 d6             	mov    %r10,%rsi
    9ca1:	4c 89 da             	mov    %r11,%rdx
    9ca4:	4c 89 54 24 20       	mov    %r10,0x20(%rsp)
    9ca9:	4c 01 ef             	add    %r13,%rdi
    9cac:	e8 0f 8d ff ff       	callq  29c0 <memcpy@plt>
    9cb1:	8b 45 00             	mov    0x0(%rbp),%eax
    9cb4:	8b 4c 24 44          	mov    0x44(%rsp),%ecx
    9cb8:	4c 8b 54 24 20       	mov    0x20(%rsp),%r10
    9cbd:	8d 44 01 ff          	lea    -0x1(%rcx,%rax,1),%eax
    9cc1:	89 45 00             	mov    %eax,0x0(%rbp)
    9cc4:	4c 89 d7             	mov    %r10,%rdi
    9cc7:	e8 a4 89 ff ff       	callq  2670 <free@plt>
    9ccc:	48 8b 7c 24 18       	mov    0x18(%rsp),%rdi
    9cd1:	e8 9a 89 ff ff       	callq  2670 <free@plt>
    9cd6:	44 8b 7c 24 0c       	mov    0xc(%rsp),%r15d
    9cdb:	e9 50 fe ff ff       	jmpq   9b30 <bfd_seek@plt+0x6f00>
    9ce0:	bf 08 00 00 00       	mov    $0x8,%edi
    9ce5:	e8 b6 8b ff ff       	callq  28a0 <xmalloc@plt>
    9cea:	49 8b 14 24          	mov    (%r12),%rdx
    9cee:	48 8b 7c 24 48       	mov    0x48(%rsp),%rdi
    9cf3:	48 c7 00 00 00 00 00 	movq   $0x0,(%rax)
    9cfa:	49 89 c2             	mov    %rax,%r10
    9cfd:	48 39 d7             	cmp    %rdx,%rdi
    9d00:	75 27                	jne    9d29 <bfd_seek@plt+0x70f9>
    9d02:	48 89 44 24 28       	mov    %rax,0x28(%rsp)
    9d07:	e8 44 f8 ff ff       	callq  9550 <bfd_seek@plt+0x6920>
    9d0c:	4c 89 6c 24 20       	mov    %r13,0x20(%rsp)
    9d11:	31 c9                	xor    %ecx,%ecx
    9d13:	45 31 db             	xor    %r11d,%r11d
    9d16:	49 89 04 24          	mov    %rax,(%r12)
    9d1a:	48 89 c2             	mov    %rax,%rdx
    9d1d:	4c 8b 54 24 28       	mov    0x28(%rsp),%r10
    9d22:	31 c0                	xor    %eax,%eax
    9d24:	e9 0d ff ff ff       	jmpq   9c36 <bfd_seek@plt+0x7006>
    9d29:	4c 89 6c 24 20       	mov    %r13,0x20(%rsp)
    9d2e:	31 c9                	xor    %ecx,%ecx
    9d30:	31 c0                	xor    %eax,%eax
    9d32:	45 31 db             	xor    %r11d,%r11d
    9d35:	e9 fc fe ff ff       	jmpq   9c36 <bfd_seek@plt+0x7006>
    9d3a:	48 8b 0a             	mov    (%rdx),%rcx
    9d3d:	48 8d 15 34 3b 00 00 	lea    0x3b34(%rip),%rdx        # d878 <bfd_seek@plt+0xac48>
    9d44:	48 8b 05 ad 72 00 00 	mov    0x72ad(%rip),%rax        # 10ff8 <bfd_seek@plt+0xe3c8>
    9d4b:	be 01 00 00 00       	mov    $0x1,%esi
    9d50:	48 8b 38             	mov    (%rax),%rdi
    9d53:	31 c0                	xor    %eax,%eax
    9d55:	e8 66 8e ff ff       	callq  2bc0 <__fprintf_chk@plt>
    9d5a:	bf 01 00 00 00       	mov    $0x1,%edi
    9d5f:	e8 dc 8d ff ff       	callq  2b40 <xexit@plt>
    9d64:	49 8b 04 24          	mov    (%r12),%rax
    9d68:	48 8d 15 39 3b 00 00 	lea    0x3b39(%rip),%rdx        # d8a8 <bfd_seek@plt+0xac78>
    9d6f:	48 8b 08             	mov    (%rax),%rcx
    9d72:	eb d0                	jmp    9d44 <bfd_seek@plt+0x7114>
    9d74:	e8 87 8a ff ff       	callq  2800 <__stack_chk_fail@plt>
    9d79:	48 8b 7c 24 48       	mov    0x48(%rsp),%rdi
    9d7e:	4c 89 54 24 28       	mov    %r10,0x28(%rsp)
    9d83:	48 89 4c 24 20       	mov    %rcx,0x20(%rsp)
    9d88:	e8 c3 f7 ff ff       	callq  9550 <bfd_seek@plt+0x6920>
    9d8d:	4c 8b 54 24 28       	mov    0x28(%rsp),%r10
    9d92:	48 8b 4c 24 20       	mov    0x20(%rsp),%rcx
    9d97:	49 89 04 24          	mov    %rax,(%r12)
    9d9b:	48 89 c2             	mov    %rax,%rdx
    9d9e:	e9 5a fe ff ff       	jmpq   9bfd <bfd_seek@plt+0x6fcd>
    9da3:	66 66 2e 0f 1f 84 00 	data16 nopw %cs:0x0(%rax,%rax,1)
    9daa:	00 00 00 00 
    9dae:	66 90                	xchg   %ax,%ax
    9db0:	f3 0f 1e fa          	endbr64 
    9db4:	45 31 c0             	xor    %r8d,%r8d
    9db7:	48 85 ff             	test   %rdi,%rdi
    9dba:	74 1a                	je     9dd6 <bfd_seek@plt+0x71a6>
    9dbc:	48 83 3f 00          	cmpq   $0x0,(%rdi)
    9dc0:	74 14                	je     9dd6 <bfd_seek@plt+0x71a6>
    9dc2:	b8 01 00 00 00       	mov    $0x1,%eax
    9dc7:	41 89 c0             	mov    %eax,%r8d
    9dca:	48 83 c0 01          	add    $0x1,%rax
    9dce:	48 83 7c c7 f8 00    	cmpq   $0x0,-0x8(%rdi,%rax,8)
    9dd4:	75 f1                	jne    9dc7 <bfd_seek@plt+0x7197>
    9dd6:	44 89 c0             	mov    %r8d,%eax
    9dd9:	c3                   	retq   
    9dda:	66 0f 1f 44 00 00    	nopw   0x0(%rax,%rax,1)
    9de0:	f3 0f 1e fa          	endbr64 
    9de4:	4c 8b 05 85 74 00 00 	mov    0x7485(%rip),%r8        # 11270 <stderr@@GLIBC_2.2.5+0x110>
    9deb:	4d 85 c0             	test   %r8,%r8
    9dee:	74 08                	je     9df8 <bfd_seek@plt+0x71c8>
    9df0:	4c 89 c0             	mov    %r8,%rax
    9df3:	c3                   	retq   
    9df4:	0f 1f 40 00          	nopl   0x0(%rax)
    9df8:	41 54                	push   %r12
    9dfa:	48 8d 3d d5 3a 00 00 	lea    0x3ad5(%rip),%rdi        # d8d6 <bfd_seek@plt+0xaca6>
    9e01:	55                   	push   %rbp
    9e02:	53                   	push   %rbx
    9e03:	e8 48 88 ff ff       	callq  2650 <getenv@plt>
    9e08:	48 89 c5             	mov    %rax,%rbp
    9e0b:	48 85 c0             	test   %rax,%rax
    9e0e:	0f 84 a4 01 00 00    	je     9fb8 <bfd_seek@plt+0x7388>
    9e14:	48 89 c7             	mov    %rax,%rdi
    9e17:	be 07 00 00 00       	mov    $0x7,%esi
    9e1c:	e8 ff 8c ff ff       	callq  2b20 <access@plt>
    9e21:	48 8d 3d b5 3a 00 00 	lea    0x3ab5(%rip),%rdi        # d8dd <bfd_seek@plt+0xacad>
    9e28:	85 c0                	test   %eax,%eax
    9e2a:	75 4c                	jne    9e78 <bfd_seek@plt+0x7248>
    9e2c:	e8 1f 88 ff ff       	callq  2650 <getenv@plt>
    9e31:	48 8d 3d a9 3a 00 00 	lea    0x3aa9(%rip),%rdi        # d8e1 <bfd_seek@plt+0xacb1>
    9e38:	e8 13 88 ff ff       	callq  2650 <getenv@plt>
    9e3d:	48 89 ef             	mov    %rbp,%rdi
    9e40:	e8 9b 89 ff ff       	callq  27e0 <strlen@plt>
    9e45:	8d 78 02             	lea    0x2(%rax),%edi
    9e48:	44 8d 60 01          	lea    0x1(%rax),%r12d
    9e4c:	89 c3                	mov    %eax,%ebx
    9e4e:	e8 4d 8a ff ff       	callq  28a0 <xmalloc@plt>
    9e53:	48 89 ee             	mov    %rbp,%rsi
    9e56:	48 89 c7             	mov    %rax,%rdi
    9e59:	e8 82 88 ff ff       	callq  26e0 <strcpy@plt>
    9e5e:	c6 04 18 2f          	movb   $0x2f,(%rax,%rbx,1)
    9e62:	48 89 05 07 74 00 00 	mov    %rax,0x7407(%rip)        # 11270 <stderr@@GLIBC_2.2.5+0x110>
    9e69:	42 c6 04 20 00       	movb   $0x0,(%rax,%r12,1)
    9e6e:	5b                   	pop    %rbx
    9e6f:	5d                   	pop    %rbp
    9e70:	41 5c                	pop    %r12
    9e72:	c3                   	retq   
    9e73:	0f 1f 44 00 00       	nopl   0x0(%rax,%rax,1)
    9e78:	e8 d3 87 ff ff       	callq  2650 <getenv@plt>
    9e7d:	48 89 c5             	mov    %rax,%rbp
    9e80:	48 85 ed             	test   %rbp,%rbp
    9e83:	74 11                	je     9e96 <bfd_seek@plt+0x7266>
    9e85:	be 07 00 00 00       	mov    $0x7,%esi
    9e8a:	48 89 ef             	mov    %rbp,%rdi
    9e8d:	e8 8e 8c ff ff       	callq  2b20 <access@plt>
    9e92:	85 c0                	test   %eax,%eax
    9e94:	74 9b                	je     9e31 <bfd_seek@plt+0x7201>
    9e96:	48 8d 3d 44 3a 00 00 	lea    0x3a44(%rip),%rdi        # d8e1 <bfd_seek@plt+0xacb1>
    9e9d:	e8 ae 87 ff ff       	callq  2650 <getenv@plt>
    9ea2:	48 89 c5             	mov    %rax,%rbp
    9ea5:	48 85 c0             	test   %rax,%rax
    9ea8:	74 11                	je     9ebb <bfd_seek@plt+0x728b>
    9eaa:	be 07 00 00 00       	mov    $0x7,%esi
    9eaf:	48 89 c7             	mov    %rax,%rdi
    9eb2:	e8 69 8c ff ff       	callq  2b20 <access@plt>
    9eb7:	85 c0                	test   %eax,%eax
    9eb9:	74 82                	je     9e3d <bfd_seek@plt+0x720d>
    9ebb:	be 07 00 00 00       	mov    $0x7,%esi
    9ec0:	48 8d 3d 0a 3a 00 00 	lea    0x3a0a(%rip),%rdi        # d8d1 <bfd_seek@plt+0xaca1>
    9ec7:	e8 54 8c ff ff       	callq  2b20 <access@plt>
    9ecc:	85 c0                	test   %eax,%eax
    9ece:	75 20                	jne    9ef0 <bfd_seek@plt+0x72c0>
    9ed0:	bb 04 00 00 00       	mov    $0x4,%ebx
    9ed5:	41 bc 05 00 00 00    	mov    $0x5,%r12d
    9edb:	bf 06 00 00 00       	mov    $0x6,%edi
    9ee0:	48 8d 2d ea 39 00 00 	lea    0x39ea(%rip),%rbp        # d8d1 <bfd_seek@plt+0xaca1>
    9ee7:	e9 62 ff ff ff       	jmpq   9e4e <bfd_seek@plt+0x721e>
    9eec:	0f 1f 40 00          	nopl   0x0(%rax)
    9ef0:	be 07 00 00 00       	mov    $0x7,%esi
    9ef5:	48 8d 3d 1c 3a 00 00 	lea    0x3a1c(%rip),%rdi        # d918 <bfd_seek@plt+0xace8>
    9efc:	e8 1f 8c ff ff       	callq  2b20 <access@plt>
    9f01:	85 c0                	test   %eax,%eax
    9f03:	75 23                	jne    9f28 <bfd_seek@plt+0x72f8>
    9f05:	bb 08 00 00 00       	mov    $0x8,%ebx
    9f0a:	41 bc 09 00 00 00    	mov    $0x9,%r12d
    9f10:	bf 0a 00 00 00       	mov    $0xa,%edi
    9f15:	48 8d 2d fc 39 00 00 	lea    0x39fc(%rip),%rbp        # d918 <bfd_seek@plt+0xace8>
    9f1c:	e9 2d ff ff ff       	jmpq   9e4e <bfd_seek@plt+0x721e>
    9f21:	0f 1f 80 00 00 00 00 	nopl   0x0(%rax)
    9f28:	be 07 00 00 00       	mov    $0x7,%esi
    9f2d:	48 8d 3d f4 39 00 00 	lea    0x39f4(%rip),%rdi        # d928 <bfd_seek@plt+0xacf8>
    9f34:	e8 e7 8b ff ff       	callq  2b20 <access@plt>
    9f39:	85 c0                	test   %eax,%eax
    9f3b:	75 23                	jne    9f60 <bfd_seek@plt+0x7330>
    9f3d:	bb 08 00 00 00       	mov    $0x8,%ebx
    9f42:	41 bc 09 00 00 00    	mov    $0x9,%r12d
    9f48:	bf 0a 00 00 00       	mov    $0xa,%edi
    9f4d:	48 8d 2d d4 39 00 00 	lea    0x39d4(%rip),%rbp        # d928 <bfd_seek@plt+0xacf8>
    9f54:	e9 f5 fe ff ff       	jmpq   9e4e <bfd_seek@plt+0x721e>
    9f59:	0f 1f 80 00 00 00 00 	nopl   0x0(%rax)
    9f60:	48 8d 3d ca 39 00 00 	lea    0x39ca(%rip),%rdi        # d931 <bfd_seek@plt+0xad01>
    9f67:	be 07 00 00 00       	mov    $0x7,%esi
    9f6c:	48 8d 2d 91 22 00 00 	lea    0x2291(%rip),%rbp        # c204 <bfd_seek@plt+0x95d4>
    9f73:	e8 a8 8b ff ff       	callq  2b20 <access@plt>
    9f78:	83 f8 01             	cmp    $0x1,%eax
    9f7b:	48 19 db             	sbb    %rbx,%rbx
    9f7e:	83 e3 03             	and    $0x3,%ebx
    9f81:	48 83 c3 01          	add    $0x1,%rbx
    9f85:	83 f8 01             	cmp    $0x1,%eax
    9f88:	4d 19 e4             	sbb    %r12,%r12
    9f8b:	41 83 e4 03          	and    $0x3,%r12d
    9f8f:	49 83 c4 02          	add    $0x2,%r12
    9f93:	83 f8 01             	cmp    $0x1,%eax
    9f96:	48 19 ff             	sbb    %rdi,%rdi
    9f99:	83 e7 03             	and    $0x3,%edi
    9f9c:	48 83 c7 03          	add    $0x3,%rdi
    9fa0:	85 c0                	test   %eax,%eax
    9fa2:	48 8d 05 88 39 00 00 	lea    0x3988(%rip),%rax        # d931 <bfd_seek@plt+0xad01>
    9fa9:	48 0f 44 e8          	cmove  %rax,%rbp
    9fad:	e9 9c fe ff ff       	jmpq   9e4e <bfd_seek@plt+0x721e>
    9fb2:	66 0f 1f 44 00 00    	nopw   0x0(%rax,%rax,1)
    9fb8:	48 8d 3d 1e 39 00 00 	lea    0x391e(%rip),%rdi        # d8dd <bfd_seek@plt+0xacad>
    9fbf:	e8 8c 86 ff ff       	callq  2650 <getenv@plt>
    9fc4:	48 89 c5             	mov    %rax,%rbp
    9fc7:	e9 b4 fe ff ff       	jmpq   9e80 <bfd_seek@plt+0x7250>
    9fcc:	0f 1f 40 00          	nopl   0x0(%rax)
    9fd0:	f3 0f 1e fa          	endbr64 
    9fd4:	41 57                	push   %r15
    9fd6:	41 56                	push   %r14
    9fd8:	41 55                	push   %r13
    9fda:	49 89 fd             	mov    %rdi,%r13
    9fdd:	41 54                	push   %r12
    9fdf:	55                   	push   %rbp
    9fe0:	48 89 f5             	mov    %rsi,%rbp
    9fe3:	53                   	push   %rbx
    9fe4:	48 83 ec 18          	sub    $0x18,%rsp
    9fe8:	e8 f3 fd ff ff       	callq  9de0 <bfd_seek@plt+0x71b0>
    9fed:	49 89 c6             	mov    %rax,%r14
    9ff0:	4d 85 ed             	test   %r13,%r13
    9ff3:	0f 84 b7 00 00 00    	je     a0b0 <bfd_seek@plt+0x7480>
    9ff9:	4c 89 ef             	mov    %r13,%rdi
    9ffc:	e8 df 87 ff ff       	callq  27e0 <strlen@plt>
    a001:	4c 63 f8             	movslq %eax,%r15
    a004:	48 85 ed             	test   %rbp,%rbp
    a007:	0f 84 b9 00 00 00    	je     a0c6 <bfd_seek@plt+0x7496>
    a00d:	48 89 ef             	mov    %rbp,%rdi
    a010:	e8 cb 87 ff ff       	callq  27e0 <strlen@plt>
    a015:	41 89 c0             	mov    %eax,%r8d
    a018:	4c 63 e0             	movslq %eax,%r12
    a01b:	4c 89 f7             	mov    %r14,%rdi
    a01e:	44 89 44 24 0c       	mov    %r8d,0xc(%rsp)
    a023:	e8 b8 87 ff ff       	callq  27e0 <strlen@plt>
    a028:	4b 8d 7c 27 07       	lea    0x7(%r15,%r12,1),%rdi
    a02d:	48 63 d8             	movslq %eax,%rbx
    a030:	48 01 df             	add    %rbx,%rdi
    a033:	e8 68 88 ff ff       	callq  28a0 <xmalloc@plt>
    a038:	4c 89 f6             	mov    %r14,%rsi
    a03b:	49 89 c4             	mov    %rax,%r12
    a03e:	48 89 c7             	mov    %rax,%rdi
    a041:	e8 9a 86 ff ff       	callq  26e0 <strcpy@plt>
    a046:	49 8d 3c 1c          	lea    (%r12,%rbx,1),%rdi
    a04a:	4c 89 ee             	mov    %r13,%rsi
    a04d:	4c 01 fb             	add    %r15,%rbx
    a050:	e8 8b 86 ff ff       	callq  26e0 <strcpy@plt>
    a055:	49 8d 04 1c          	lea    (%r12,%rbx,1),%rax
    a059:	ba 58 58 00 00       	mov    $0x5858,%edx
    a05e:	48 89 ee             	mov    %rbp,%rsi
    a061:	66 89 50 04          	mov    %dx,0x4(%rax)
    a065:	49 8d 7c 1c 06       	lea    0x6(%r12,%rbx,1),%rdi
    a06a:	c7 00 58 58 58 58    	movl   $0x58585858,(%rax)
    a070:	c6 40 06 00          	movb   $0x0,0x6(%rax)
    a074:	e8 67 86 ff ff       	callq  26e0 <strcpy@plt>
    a079:	44 8b 44 24 0c       	mov    0xc(%rsp),%r8d
    a07e:	4c 89 e7             	mov    %r12,%rdi
    a081:	44 89 c6             	mov    %r8d,%esi
    a084:	e8 b7 85 ff ff       	callq  2640 <mkstemps@plt>
    a089:	89 c7                	mov    %eax,%edi
    a08b:	83 f8 ff             	cmp    $0xffffffff,%eax
    a08e:	74 48                	je     a0d8 <bfd_seek@plt+0x74a8>
    a090:	e8 3b 88 ff ff       	callq  28d0 <close@plt>
    a095:	85 c0                	test   %eax,%eax
    a097:	0f 85 a3 8b ff ff    	jne    2c40 <bfd_seek@plt+0x10>
    a09d:	48 83 c4 18          	add    $0x18,%rsp
    a0a1:	4c 89 e0             	mov    %r12,%rax
    a0a4:	5b                   	pop    %rbx
    a0a5:	5d                   	pop    %rbp
    a0a6:	41 5c                	pop    %r12
    a0a8:	41 5d                	pop    %r13
    a0aa:	41 5e                	pop    %r14
    a0ac:	41 5f                	pop    %r15
    a0ae:	c3                   	retq   
    a0af:	90                   	nop
    a0b0:	41 bf 02 00 00 00    	mov    $0x2,%r15d
    a0b6:	4c 8d 2d 29 38 00 00 	lea    0x3829(%rip),%r13        # d8e6 <bfd_seek@plt+0xacb6>
    a0bd:	48 85 ed             	test   %rbp,%rbp
    a0c0:	0f 85 47 ff ff ff    	jne    a00d <bfd_seek@plt+0x73dd>
    a0c6:	45 31 c0             	xor    %r8d,%r8d
    a0c9:	45 31 e4             	xor    %r12d,%r12d
    a0cc:	48 8d 2d 70 1f 00 00 	lea    0x1f70(%rip),%rbp        # c043 <bfd_seek@plt+0x9413>
    a0d3:	e9 43 ff ff ff       	jmpq   a01b <bfd_seek@plt+0x73eb>
    a0d8:	e8 e3 85 ff ff       	callq  26c0 <__errno_location@plt>
    a0dd:	8b 38                	mov    (%rax),%edi
    a0df:	e8 1c 8b ff ff       	callq  2c00 <strerror@plt>
    a0e4:	4c 89 f1             	mov    %r14,%rcx
    a0e7:	be 01 00 00 00       	mov    $0x1,%esi
    a0ec:	48 8d 15 fd 37 00 00 	lea    0x37fd(%rip),%rdx        # d8f0 <bfd_seek@plt+0xacc0>
    a0f3:	49 89 c0             	mov    %rax,%r8
    a0f6:	48 8b 05 fb 6e 00 00 	mov    0x6efb(%rip),%rax        # 10ff8 <bfd_seek@plt+0xe3c8>
    a0fd:	48 8b 38             	mov    (%rax),%rdi
    a100:	31 c0                	xor    %eax,%eax
    a102:	e8 b9 8a ff ff       	callq  2bc0 <__fprintf_chk@plt>
    a107:	e8 a4 85 ff ff       	callq  26b0 <abort@plt>
    a10c:	0f 1f 40 00          	nopl   0x0(%rax)
    a110:	f3 0f 1e fa          	endbr64 
    a114:	48 89 fe             	mov    %rdi,%rsi
    a117:	31 ff                	xor    %edi,%edi
    a119:	e9 b2 fe ff ff       	jmpq   9fd0 <bfd_seek@plt+0x73a0>
    a11e:	66 90                	xchg   %ax,%ax
    a120:	f3 0f 1e fa          	endbr64 
    a124:	55                   	push   %rbp
    a125:	53                   	push   %rbx
    a126:	48 83 ec 08          	sub    $0x8,%rsp
    a12a:	48 8b 2d cf 6f 00 00 	mov    0x6fcf(%rip),%rbp        # 11100 <bfd_seek@plt+0xe4d0>
    a131:	48 85 ed             	test   %rbp,%rbp
    a134:	74 2f                	je     a165 <bfd_seek@plt+0x7535>
    a136:	66 2e 0f 1f 84 00 00 	nopw   %cs:0x0(%rax,%rax,1)
    a13d:	00 00 00 
    a140:	8b 5d 08             	mov    0x8(%rbp),%ebx
    a143:	83 eb 01             	sub    $0x1,%ebx
    a146:	78 14                	js     a15c <bfd_seek@plt+0x752c>
    a148:	48 63 db             	movslq %ebx,%rbx
    a14b:	0f 1f 44 00 00       	nopl   0x0(%rax,%rax,1)
    a150:	ff 54 dd 10          	callq  *0x10(%rbp,%rbx,8)
    a154:	48 83 eb 01          	sub    $0x1,%rbx
    a158:	85 db                	test   %ebx,%ebx
    a15a:	79 f4                	jns    a150 <bfd_seek@plt+0x7520>
    a15c:	48 8b 6d 00          	mov    0x0(%rbp),%rbp
    a160:	48 85 ed             	test   %rbp,%rbp
    a163:	75 db                	jne    a140 <bfd_seek@plt+0x7510>
    a165:	48 83 c4 08          	add    $0x8,%rsp
    a169:	5b                   	pop    %rbx
    a16a:	5d                   	pop    %rbp
    a16b:	c3                   	retq   
    a16c:	0f 1f 40 00          	nopl   0x0(%rax)
    a170:	f3 0f 1e fa          	endbr64 
    a174:	55                   	push   %rbp
    a175:	48 89 fd             	mov    %rdi,%rbp
    a178:	53                   	push   %rbx
    a179:	48 83 ec 08          	sub    $0x8,%rsp
    a17d:	48 8b 05 5c 6e 00 00 	mov    0x6e5c(%rip),%rax        # 10fe0 <bfd_seek@plt+0xe3b0>
    a184:	48 83 38 00          	cmpq   $0x0,(%rax)
    a188:	74 56                	je     a1e0 <bfd_seek@plt+0x75b0>
    a18a:	48 8b 1d 6f 6f 00 00 	mov    0x6f6f(%rip),%rbx        # 11100 <bfd_seek@plt+0xe4d0>
    a191:	48 63 43 08          	movslq 0x8(%rbx),%rax
    a195:	8d 50 01             	lea    0x1(%rax),%edx
    a198:	83 f8 1f             	cmp    $0x1f,%eax
    a19b:	7f 13                	jg     a1b0 <bfd_seek@plt+0x7580>
    a19d:	89 53 08             	mov    %edx,0x8(%rbx)
    a1a0:	48 89 6c c3 10       	mov    %rbp,0x10(%rbx,%rax,8)
    a1a5:	31 c0                	xor    %eax,%eax
    a1a7:	48 83 c4 08          	add    $0x8,%rsp
    a1ab:	5b                   	pop    %rbx
    a1ac:	5d                   	pop    %rbp
    a1ad:	c3                   	retq   
    a1ae:	66 90                	xchg   %ax,%ax
    a1b0:	bf 10 01 00 00       	mov    $0x110,%edi
    a1b5:	e8 66 88 ff ff       	callq  2a20 <malloc@plt>
    a1ba:	48 85 c0             	test   %rax,%rax
    a1bd:	74 2d                	je     a1ec <bfd_seek@plt+0x75bc>
    a1bf:	48 89 18             	mov    %rbx,(%rax)
    a1c2:	ba 01 00 00 00       	mov    $0x1,%edx
    a1c7:	48 89 c3             	mov    %rax,%rbx
    a1ca:	c7 40 08 00 00 00 00 	movl   $0x0,0x8(%rax)
    a1d1:	48 89 05 28 6f 00 00 	mov    %rax,0x6f28(%rip)        # 11100 <bfd_seek@plt+0xe4d0>
    a1d8:	31 c0                	xor    %eax,%eax
    a1da:	eb c1                	jmp    a19d <bfd_seek@plt+0x756d>
    a1dc:	0f 1f 40 00          	nopl   0x0(%rax)
    a1e0:	48 8d 0d 39 ff ff ff 	lea    -0xc7(%rip),%rcx        # a120 <bfd_seek@plt+0x74f0>
    a1e7:	48 89 08             	mov    %rcx,(%rax)
    a1ea:	eb 9e                	jmp    a18a <bfd_seek@plt+0x755a>
    a1ec:	83 c8 ff             	or     $0xffffffff,%eax
    a1ef:	eb b6                	jmp    a1a7 <bfd_seek@plt+0x7577>
    a1f1:	66 2e 0f 1f 84 00 00 	nopw   %cs:0x0(%rax,%rax,1)
    a1f8:	00 00 00 
    a1fb:	0f 1f 44 00 00       	nopl   0x0(%rax,%rax,1)
    a200:	f3 0f 1e fa          	endbr64 
    a204:	41 57                	push   %r15
    a206:	4c 8d 3d 8b 68 00 00 	lea    0x688b(%rip),%r15        # 10a98 <bfd_seek@plt+0xde68>
    a20d:	41 56                	push   %r14
    a20f:	49 89 d6             	mov    %rdx,%r14
    a212:	41 55                	push   %r13
    a214:	49 89 f5             	mov    %rsi,%r13
    a217:	41 54                	push   %r12
    a219:	41 89 fc             	mov    %edi,%r12d
    a21c:	55                   	push   %rbp
    a21d:	48 8d 2d 7c 68 00 00 	lea    0x687c(%rip),%rbp        # 10aa0 <bfd_seek@plt+0xde70>
    a224:	53                   	push   %rbx
    a225:	4c 29 fd             	sub    %r15,%rbp
    a228:	48 83 ec 08          	sub    $0x8,%rsp
    a22c:	e8 cf 7d ff ff       	callq  2000 <__cxa_finalize@plt-0x630>
    a231:	48 c1 fd 03          	sar    $0x3,%rbp
    a235:	74 1f                	je     a256 <bfd_seek@plt+0x7626>
    a237:	31 db                	xor    %ebx,%ebx
    a239:	0f 1f 80 00 00 00 00 	nopl   0x0(%rax)
    a240:	4c 89 f2             	mov    %r14,%rdx
    a243:	4c 89 ee             	mov    %r13,%rsi
    a246:	44 89 e7             	mov    %r12d,%edi
    a249:	41 ff 14 df          	callq  *(%r15,%rbx,8)
    a24d:	48 83 c3 01          	add    $0x1,%rbx
    a251:	48 39 dd             	cmp    %rbx,%rbp
    a254:	75 ea                	jne    a240 <bfd_seek@plt+0x7610>
    a256:	48 83 c4 08          	add    $0x8,%rsp
    a25a:	5b                   	pop    %rbx
    a25b:	5d                   	pop    %rbp
    a25c:	41 5c                	pop    %r12
    a25e:	41 5d                	pop    %r13
    a260:	41 5e                	pop    %r14
    a262:	41 5f                	pop    %r15
    a264:	c3                   	retq   
    a265:	66 66 2e 0f 1f 84 00 	data16 nopw %cs:0x0(%rax,%rax,1)
    a26c:	00 00 00 00 
    a270:	f3 0f 1e fa          	endbr64 
    a274:	c3                   	retq   

Disassembly of section .fini:

000000000000a278 <.fini>:
    a278:	f3 0f 1e fa          	endbr64 
    a27c:	48 83 ec 08          	sub    $0x8,%rsp
    a280:	48 83 c4 08          	add    $0x8,%rsp
    a284:	c3                   	retq   
